---
triple:          'arm64-apple-darwin'
binary-path:     FlashRadixTree
relocations:
  - { offsetInCU: 0x3B, offset: 0x3B, size: 0x8, addend: 0x0, symName: _.str, symObjAddr: 0xA4020, symBinAddr: 0x1000A8640, symSize: 0x0 }
  - { offsetInCU: 0x6B, offset: 0x6B, size: 0x8, addend: 0x0, symName: _.str.1, symObjAddr: 0xA4060, symBinAddr: 0x1000A8680, symSize: 0x0 }
  - { offsetInCU: 0x88, offset: 0x88, size: 0x8, addend: 0x0, symName: _.str.2, symObjAddr: 0xA4080, symBinAddr: 0x1000A86A0, symSize: 0x0 }
  - { offsetInCU: 0xA5, offset: 0xA5, size: 0x8, addend: 0x0, symName: _.str.3, symObjAddr: 0xA40C0, symBinAddr: 0x1000A86E0, symSize: 0x0 }
  - { offsetInCU: 0xC2, offset: 0xC2, size: 0x8, addend: 0x0, symName: _.str.4, symObjAddr: 0xA4100, symBinAddr: 0x1000A8720, symSize: 0x0 }
  - { offsetInCU: 0xDF, offset: 0xDF, size: 0x8, addend: 0x0, symName: _.str.5, symObjAddr: 0xA4120, symBinAddr: 0x1000A8740, symSize: 0x0 }
  - { offsetInCU: 0xFC, offset: 0xFC, size: 0x8, addend: 0x0, symName: _.str.6, symObjAddr: 0xA4140, symBinAddr: 0x1000A8760, symSize: 0x0 }
  - { offsetInCU: 0x10D, offset: 0x10D, size: 0x8, addend: 0x0, symName: _.str.7, symObjAddr: 0xA4160, symBinAddr: 0x1000A8780, symSize: 0x0 }
  - { offsetInCU: 0x12A, offset: 0x12A, size: 0x8, addend: 0x0, symName: _.str.8, symObjAddr: 0xA4180, symBinAddr: 0x1000A87A0, symSize: 0x0 }
  - { offsetInCU: 0x13B, offset: 0x13B, size: 0x8, addend: 0x0, symName: _.str.9, symObjAddr: 0xA41A0, symBinAddr: 0x1000A87C0, symSize: 0x0 }
  - { offsetInCU: 0x158, offset: 0x158, size: 0x8, addend: 0x0, symName: _.str.10, symObjAddr: 0xA4200, symBinAddr: 0x1000A8820, symSize: 0x0 }
  - { offsetInCU: 0x175, offset: 0x175, size: 0x8, addend: 0x0, symName: _.str.11, symObjAddr: 0xA4240, symBinAddr: 0x1000A8860, symSize: 0x0 }
  - { offsetInCU: 0x192, offset: 0x192, size: 0x8, addend: 0x0, symName: _.str.12, symObjAddr: 0xA4260, symBinAddr: 0x1000A8880, symSize: 0x0 }
  - { offsetInCU: 0x1AF, offset: 0x1AF, size: 0x8, addend: 0x0, symName: _.str.13, symObjAddr: 0xA4280, symBinAddr: 0x1000A88A0, symSize: 0x0 }
  - { offsetInCU: 0x1C0, offset: 0x1C0, size: 0x8, addend: 0x0, symName: _.str.14, symObjAddr: 0xA6180, symBinAddr: 0x1000A8600, symSize: 0x0 }
  - { offsetInCU: 0x1DD, offset: 0x1DD, size: 0x8, addend: 0x0, symName: _.str.15, symObjAddr: 0xA42C0, symBinAddr: 0x1000A88E0, symSize: 0x0 }
  - { offsetInCU: 0x1EE, offset: 0x1EE, size: 0x8, addend: 0x0, symName: _.str.16, symObjAddr: 0xA42E0, symBinAddr: 0x1000A8900, symSize: 0x0 }
  - { offsetInCU: 0x20B, offset: 0x20B, size: 0x8, addend: 0x0, symName: _.str.17, symObjAddr: 0xA4340, symBinAddr: 0x1000A8960, symSize: 0x0 }
  - { offsetInCU: 0x228, offset: 0x228, size: 0x8, addend: 0x0, symName: _.str.18, symObjAddr: 0xA4360, symBinAddr: 0x1000A8980, symSize: 0x0 }
  - { offsetInCU: 0x239, offset: 0x239, size: 0x8, addend: 0x0, symName: _.str.19, symObjAddr: 0xA4380, symBinAddr: 0x1000A89A0, symSize: 0x0 }
  - { offsetInCU: 0x256, offset: 0x256, size: 0x8, addend: 0x0, symName: _.str.20, symObjAddr: 0xA43E0, symBinAddr: 0x1000A8A00, symSize: 0x0 }
  - { offsetInCU: 0x273, offset: 0x273, size: 0x8, addend: 0x0, symName: _.str.21, symObjAddr: 0xA4420, symBinAddr: 0x1000A8A40, symSize: 0x0 }
  - { offsetInCU: 0x284, offset: 0x284, size: 0x8, addend: 0x0, symName: _.str.22, symObjAddr: 0xA4460, symBinAddr: 0x1000A8A80, symSize: 0x0 }
  - { offsetInCU: 0x295, offset: 0x295, size: 0x8, addend: 0x0, symName: _.str.23, symObjAddr: 0xA44C0, symBinAddr: 0x1000A8AE0, symSize: 0x0 }
  - { offsetInCU: 0x2A6, offset: 0x2A6, size: 0x8, addend: 0x0, symName: _.str.24, symObjAddr: 0xA4520, symBinAddr: 0x1000A8B40, symSize: 0x0 }
  - { offsetInCU: 0x2C3, offset: 0x2C3, size: 0x8, addend: 0x0, symName: _.str.25, symObjAddr: 0xA4580, symBinAddr: 0x1000A8BA0, symSize: 0x0 }
  - { offsetInCU: 0x2E0, offset: 0x2E0, size: 0x8, addend: 0x0, symName: _.str.26, symObjAddr: 0xA45A0, symBinAddr: 0x1000A8BC0, symSize: 0x0 }
  - { offsetInCU: 0x2F1, offset: 0x2F1, size: 0x8, addend: 0x0, symName: _.str.27, symObjAddr: 0xA45C0, symBinAddr: 0x1000A8BE0, symSize: 0x0 }
  - { offsetInCU: 0x302, offset: 0x302, size: 0x8, addend: 0x0, symName: _.str.28, symObjAddr: 0xA4600, symBinAddr: 0x1000A8C20, symSize: 0x0 }
  - { offsetInCU: 0x313, offset: 0x313, size: 0x8, addend: 0x0, symName: _.str.29, symObjAddr: 0xA4660, symBinAddr: 0x1000A8C80, symSize: 0x0 }
  - { offsetInCU: 0x325, offset: 0x325, size: 0x8, addend: 0x0, symName: _.str.30, symObjAddr: 0xA46A0, symBinAddr: 0x1000A8CC0, symSize: 0x0 }
  - { offsetInCU: 0x337, offset: 0x337, size: 0x8, addend: 0x0, symName: _.str.31, symObjAddr: 0xA46C0, symBinAddr: 0x1000A8CE0, symSize: 0x0 }
  - { offsetInCU: 0x349, offset: 0x349, size: 0x8, addend: 0x0, symName: _.str.32, symObjAddr: 0xA46E0, symBinAddr: 0x1000A8D00, symSize: 0x0 }
  - { offsetInCU: 0x367, offset: 0x367, size: 0x8, addend: 0x0, symName: _.str.33, symObjAddr: 0xA4740, symBinAddr: 0x1000A8D60, symSize: 0x0 }
  - { offsetInCU: 0x379, offset: 0x379, size: 0x8, addend: 0x0, symName: _.str.34, symObjAddr: 0xA4780, symBinAddr: 0x1000A8DA0, symSize: 0x0 }
  - { offsetInCU: 0x397, offset: 0x397, size: 0x8, addend: 0x0, symName: _.str.35, symObjAddr: 0xA47A0, symBinAddr: 0x1000A8DC0, symSize: 0x0 }
  - { offsetInCU: 0x3A9, offset: 0x3A9, size: 0x8, addend: 0x0, symName: _.str.36, symObjAddr: 0xA4800, symBinAddr: 0x1000A8E20, symSize: 0x0 }
  - { offsetInCU: 0x3BB, offset: 0x3BB, size: 0x8, addend: 0x0, symName: _.str.37, symObjAddr: 0xA4840, symBinAddr: 0x1000A8E60, symSize: 0x0 }
  - { offsetInCU: 0x3D9, offset: 0x3D9, size: 0x8, addend: 0x0, symName: _.str.38, symObjAddr: 0xA48A0, symBinAddr: 0x1000A8EC0, symSize: 0x0 }
  - { offsetInCU: 0x3EB, offset: 0x3EB, size: 0x8, addend: 0x0, symName: _.str.39, symObjAddr: 0xA4900, symBinAddr: 0x1000A8F20, symSize: 0x0 }
  - { offsetInCU: 0x3FD, offset: 0x3FD, size: 0x8, addend: 0x0, symName: _.str.40, symObjAddr: 0xA4960, symBinAddr: 0x1000A8F80, symSize: 0x0 }
  - { offsetInCU: 0x40F, offset: 0x40F, size: 0x8, addend: 0x0, symName: _.str.41, symObjAddr: 0xA4980, symBinAddr: 0x1000A8FA0, symSize: 0x0 }
  - { offsetInCU: 0x421, offset: 0x421, size: 0x8, addend: 0x0, symName: _.str.42, symObjAddr: 0xA49A0, symBinAddr: 0x1000A8FC0, symSize: 0x0 }
  - { offsetInCU: 0x43F, offset: 0x43F, size: 0x8, addend: 0x0, symName: _.str.43, symObjAddr: 0xA4A20, symBinAddr: 0x1000A9040, symSize: 0x0 }
  - { offsetInCU: 0x451, offset: 0x451, size: 0x8, addend: 0x0, symName: _.str.44, symObjAddr: 0xA4A60, symBinAddr: 0x1000A9080, symSize: 0x0 }
  - { offsetInCU: 0x46F, offset: 0x46F, size: 0x8, addend: 0x0, symName: _.str.45, symObjAddr: 0xA4AA0, symBinAddr: 0x1000A90C0, symSize: 0x0 }
  - { offsetInCU: 0x481, offset: 0x481, size: 0x8, addend: 0x0, symName: _.str.46, symObjAddr: 0xA4AE0, symBinAddr: 0x1000A9100, symSize: 0x0 }
  - { offsetInCU: 0x493, offset: 0x493, size: 0x8, addend: 0x0, symName: _.str.47, symObjAddr: 0xA4B40, symBinAddr: 0x1000A9160, symSize: 0x0 }
  - { offsetInCU: 0x4A5, offset: 0x4A5, size: 0x8, addend: 0x0, symName: _.str.48, symObjAddr: 0xA4B60, symBinAddr: 0x1000A9180, symSize: 0x0 }
  - { offsetInCU: 0x4B7, offset: 0x4B7, size: 0x8, addend: 0x0, symName: _.str.49, symObjAddr: 0xA4B80, symBinAddr: 0x1000A91A0, symSize: 0x0 }
  - { offsetInCU: 0x4D5, offset: 0x4D5, size: 0x8, addend: 0x0, symName: _.str.50, symObjAddr: 0xA4BE0, symBinAddr: 0x1000A9200, symSize: 0x0 }
  - { offsetInCU: 0x4E7, offset: 0x4E7, size: 0x8, addend: 0x0, symName: _.str.51, symObjAddr: 0xA4C00, symBinAddr: 0x1000A9220, symSize: 0x0 }
  - { offsetInCU: 0x505, offset: 0x505, size: 0x8, addend: 0x0, symName: _.str.52, symObjAddr: 0xA4C80, symBinAddr: 0x1000A92A0, symSize: 0x0 }
  - { offsetInCU: 0x517, offset: 0x517, size: 0x8, addend: 0x0, symName: _.str.53, symObjAddr: 0xA4CE0, symBinAddr: 0x1000A9300, symSize: 0x0 }
  - { offsetInCU: 0x529, offset: 0x529, size: 0x8, addend: 0x0, symName: _.str.54, symObjAddr: 0xA4D60, symBinAddr: 0x1000A9380, symSize: 0x0 }
  - { offsetInCU: 0x53B, offset: 0x53B, size: 0x8, addend: 0x0, symName: _.str.55, symObjAddr: 0xA4DA0, symBinAddr: 0x1000A93C0, symSize: 0x0 }
  - { offsetInCU: 0x54D, offset: 0x54D, size: 0x8, addend: 0x0, symName: _.str.56, symObjAddr: 0xA4DC0, symBinAddr: 0x1000A93E0, symSize: 0x0 }
  - { offsetInCU: 0x55F, offset: 0x55F, size: 0x8, addend: 0x0, symName: _.str.57, symObjAddr: 0xA4DE0, symBinAddr: 0x1000A9400, symSize: 0x0 }
  - { offsetInCU: 0x57D, offset: 0x57D, size: 0x8, addend: 0x0, symName: _.str.58, symObjAddr: 0xA4E80, symBinAddr: 0x1000A94A0, symSize: 0x0 }
  - { offsetInCU: 0x58F, offset: 0x58F, size: 0x8, addend: 0x0, symName: _.str.59, symObjAddr: 0xA4EE0, symBinAddr: 0x1000A9500, symSize: 0x0 }
  - { offsetInCU: 0x5A1, offset: 0x5A1, size: 0x8, addend: 0x0, symName: _.str.60, symObjAddr: 0xA4F40, symBinAddr: 0x1000A9560, symSize: 0x0 }
  - { offsetInCU: 0x5BF, offset: 0x5BF, size: 0x8, addend: 0x0, symName: _.str.61, symObjAddr: 0xA4FC0, symBinAddr: 0x1000A95E0, symSize: 0x0 }
  - { offsetInCU: 0x5DD, offset: 0x5DD, size: 0x8, addend: 0x0, symName: _.str.62, symObjAddr: 0xA5060, symBinAddr: 0x1000A9680, symSize: 0x0 }
  - { offsetInCU: 0x5EF, offset: 0x5EF, size: 0x8, addend: 0x0, symName: _.str.63, symObjAddr: 0xA5080, symBinAddr: 0x1000A96A0, symSize: 0x0 }
  - { offsetInCU: 0x60D, offset: 0x60D, size: 0x8, addend: 0x0, symName: _.str.64, symObjAddr: 0xA50E0, symBinAddr: 0x1000A9700, symSize: 0x0 }
  - { offsetInCU: 0x62E, offset: 0x62E, size: 0x8, addend: 0x0, symName: _g_counters, symObjAddr: 0x212EC0, symBinAddr: 0x1000CF2E0, symSize: 0x0 }
  - { offsetInCU: 0x661, offset: 0x661, size: 0x8, addend: 0x0, symName: _g_config, symObjAddr: 0x212F40, symBinAddr: 0x1000CF360, symSize: 0x0 }
  - { offsetInCU: 0x672, offset: 0x672, size: 0x8, addend: 0x0, symName: _.str.65, symObjAddr: 0xA5120, symBinAddr: 0x1000A9740, symSize: 0x0 }
  - { offsetInCU: 0x683, offset: 0x683, size: 0x8, addend: 0x0, symName: _.str.66, symObjAddr: 0xA5160, symBinAddr: 0x1000A9780, symSize: 0x0 }
  - { offsetInCU: 0x6A0, offset: 0x6A0, size: 0x8, addend: 0x0, symName: _.str.67, symObjAddr: 0xA51A0, symBinAddr: 0x1000A97C0, symSize: 0x0 }
  - { offsetInCU: 0x6B1, offset: 0x6B1, size: 0x8, addend: 0x0, symName: _.str.68, symObjAddr: 0xA51E0, symBinAddr: 0x1000A9800, symSize: 0x0 }
  - { offsetInCU: 0x6CE, offset: 0x6CE, size: 0x8, addend: 0x0, symName: _.str.69, symObjAddr: 0xA5220, symBinAddr: 0x1000A9840, symSize: 0x0 }
  - { offsetInCU: 0x6DF, offset: 0x6DF, size: 0x8, addend: 0x0, symName: _.str.70, symObjAddr: 0xA52A0, symBinAddr: 0x1000A98C0, symSize: 0x0 }
  - { offsetInCU: 0x6F0, offset: 0x6F0, size: 0x8, addend: 0x0, symName: _.str.71, symObjAddr: 0xA52C0, symBinAddr: 0x1000A98E0, symSize: 0x0 }
  - { offsetInCU: 0x701, offset: 0x701, size: 0x8, addend: 0x0, symName: _.str.72, symObjAddr: 0xA5300, symBinAddr: 0x1000A9920, symSize: 0x0 }
  - { offsetInCU: 0x71E, offset: 0x71E, size: 0x8, addend: 0x0, symName: _.str.73, symObjAddr: 0xA5320, symBinAddr: 0x1000A9940, symSize: 0x0 }
  - { offsetInCU: 0x72F, offset: 0x72F, size: 0x8, addend: 0x0, symName: _.str.74, symObjAddr: 0xA5360, symBinAddr: 0x1000A9980, symSize: 0x0 }
  - { offsetInCU: 0x740, offset: 0x740, size: 0x8, addend: 0x0, symName: _.str.75, symObjAddr: 0xA53A0, symBinAddr: 0x1000A99C0, symSize: 0x0 }
  - { offsetInCU: 0x751, offset: 0x751, size: 0x8, addend: 0x0, symName: _.str.76, symObjAddr: 0xA53E0, symBinAddr: 0x1000A9A00, symSize: 0x0 }
  - { offsetInCU: 0x762, offset: 0x762, size: 0x8, addend: 0x0, symName: _.str.77, symObjAddr: 0xA5400, symBinAddr: 0x1000A9A20, symSize: 0x0 }
  - { offsetInCU: 0x773, offset: 0x773, size: 0x8, addend: 0x0, symName: _.str.78, symObjAddr: 0xA5420, symBinAddr: 0x1000A9A40, symSize: 0x0 }
  - { offsetInCU: 0x784, offset: 0x784, size: 0x8, addend: 0x0, symName: _.str.79, symObjAddr: 0xA5440, symBinAddr: 0x1000A9A60, symSize: 0x0 }
  - { offsetInCU: 0x795, offset: 0x795, size: 0x8, addend: 0x0, symName: _.str.80, symObjAddr: 0xA5460, symBinAddr: 0x1000A9A80, symSize: 0x0 }
  - { offsetInCU: 0x7A6, offset: 0x7A6, size: 0x8, addend: 0x0, symName: _.str.81, symObjAddr: 0xA54A0, symBinAddr: 0x1000A9AC0, symSize: 0x0 }
  - { offsetInCU: 0x7C3, offset: 0x7C3, size: 0x8, addend: 0x0, symName: _.str.82, symObjAddr: 0xA54E0, symBinAddr: 0x1000A9B00, symSize: 0x0 }
  - { offsetInCU: 0x7D4, offset: 0x7D4, size: 0x8, addend: 0x0, symName: _.str.83, symObjAddr: 0xA5520, symBinAddr: 0x1000A9B40, symSize: 0x0 }
  - { offsetInCU: 0x7E5, offset: 0x7E5, size: 0x8, addend: 0x0, symName: _.str.84, symObjAddr: 0xA5560, symBinAddr: 0x1000A9B80, symSize: 0x0 }
  - { offsetInCU: 0x802, offset: 0x802, size: 0x8, addend: 0x0, symName: _.str.85, symObjAddr: 0xA55A0, symBinAddr: 0x1000A9BC0, symSize: 0x0 }
  - { offsetInCU: 0x80B, offset: 0x80B, size: 0x8, addend: 0x0, symName: __Z12get_countersv, symObjAddr: 0x181D0, symBinAddr: 0x10001B544, symSize: 0x344 }
  - { offsetInCU: 0x834, offset: 0x834, size: 0x8, addend: 0x0, symName: __ZZ12get_countersvE6warned, symObjAddr: 0x213140, symBinAddr: 0x1000CF580, symSize: 0x0 }
  - { offsetInCU: 0x84D, offset: 0x84D, size: 0x8, addend: 0x0, symName: _.str.86, symObjAddr: 0xA55E0, symBinAddr: 0x1000A9C00, symSize: 0x0 }
  - { offsetInCU: 0x86A, offset: 0x86A, size: 0x8, addend: 0x0, symName: _.str.87, symObjAddr: 0xA5640, symBinAddr: 0x1000A9C60, symSize: 0x0 }
  - { offsetInCU: 0x887, offset: 0x887, size: 0x8, addend: 0x0, symName: _.str.88, symObjAddr: 0xA56A0, symBinAddr: 0x1000A9CC0, symSize: 0x0 }
  - { offsetInCU: 0x898, offset: 0x898, size: 0x8, addend: 0x0, symName: _.str.89, symObjAddr: 0xA56C0, symBinAddr: 0x1000A9CE0, symSize: 0x0 }
  - { offsetInCU: 0x8B5, offset: 0x8B5, size: 0x8, addend: 0x0, symName: _.str.90, symObjAddr: 0xA5720, symBinAddr: 0x1000A9D40, symSize: 0x0 }
  - { offsetInCU: 0x8D2, offset: 0x8D2, size: 0x8, addend: 0x0, symName: _.str.91, symObjAddr: 0xA5760, symBinAddr: 0x1000A9D80, symSize: 0x0 }
  - { offsetInCU: 0x8E3, offset: 0x8E3, size: 0x8, addend: 0x0, symName: _.str.92, symObjAddr: 0xA57C0, symBinAddr: 0x1000A9DE0, symSize: 0x0 }
  - { offsetInCU: 0x8F4, offset: 0x8F4, size: 0x8, addend: 0x0, symName: _.str.93, symObjAddr: 0xA5800, symBinAddr: 0x1000A9E20, symSize: 0x0 }
  - { offsetInCU: 0x911, offset: 0x911, size: 0x8, addend: 0x0, symName: _.str.94, symObjAddr: 0xA5880, symBinAddr: 0x1000A9EA0, symSize: 0x0 }
  - { offsetInCU: 0x922, offset: 0x922, size: 0x8, addend: 0x0, symName: _.str.95, symObjAddr: 0xA58C0, symBinAddr: 0x1000A9EE0, symSize: 0x0 }
  - { offsetInCU: 0x933, offset: 0x933, size: 0x8, addend: 0x0, symName: _.str.96, symObjAddr: 0xA58E0, symBinAddr: 0x1000A9F00, symSize: 0x0 }
  - { offsetInCU: 0x944, offset: 0x944, size: 0x8, addend: 0x0, symName: _.str.97, symObjAddr: 0xA5920, symBinAddr: 0x1000A9F40, symSize: 0x0 }
  - { offsetInCU: 0x955, offset: 0x955, size: 0x8, addend: 0x0, symName: _.str.98, symObjAddr: 0xA5940, symBinAddr: 0x1000A9F60, symSize: 0x0 }
  - { offsetInCU: 0x966, offset: 0x966, size: 0x8, addend: 0x0, symName: _.str.99, symObjAddr: 0xA5980, symBinAddr: 0x1000A9FA0, symSize: 0x0 }
  - { offsetInCU: 0x977, offset: 0x977, size: 0x8, addend: 0x0, symName: _.str.100, symObjAddr: 0xA59A0, symBinAddr: 0x1000A9FC0, symSize: 0x0 }
  - { offsetInCU: 0x994, offset: 0x994, size: 0x8, addend: 0x0, symName: _.str.101, symObjAddr: 0xA59C0, symBinAddr: 0x1000A9FE0, symSize: 0x0 }
  - { offsetInCU: 0x9A5, offset: 0x9A5, size: 0x8, addend: 0x0, symName: _.str.102, symObjAddr: 0xA5A00, symBinAddr: 0x1000AA020, symSize: 0x0 }
  - { offsetInCU: 0x9C2, offset: 0x9C2, size: 0x8, addend: 0x0, symName: _.str.103, symObjAddr: 0xA5A40, symBinAddr: 0x1000AA060, symSize: 0x0 }
  - { offsetInCU: 0x9D4, offset: 0x9D4, size: 0x8, addend: 0x0, symName: _.str.104, symObjAddr: 0xA5A80, symBinAddr: 0x1000AA0A0, symSize: 0x0 }
  - { offsetInCU: 0x9F2, offset: 0x9F2, size: 0x8, addend: 0x0, symName: _.str.105, symObjAddr: 0xA5AC0, symBinAddr: 0x1000AA0E0, symSize: 0x0 }
  - { offsetInCU: 0xA10, offset: 0xA10, size: 0x8, addend: 0x0, symName: _.str.106, symObjAddr: 0xA5AE0, symBinAddr: 0x1000AA100, symSize: 0x0 }
  - { offsetInCU: 0xA22, offset: 0xA22, size: 0x8, addend: 0x0, symName: _.str.107, symObjAddr: 0xA5B20, symBinAddr: 0x1000AA140, symSize: 0x0 }
  - { offsetInCU: 0xA34, offset: 0xA34, size: 0x8, addend: 0x0, symName: _.str.108, symObjAddr: 0xA5B40, symBinAddr: 0x1000AA160, symSize: 0x0 }
  - { offsetInCU: 0xA46, offset: 0xA46, size: 0x8, addend: 0x0, symName: _.str.109, symObjAddr: 0xA5B80, symBinAddr: 0x1000AA1A0, symSize: 0x0 }
  - { offsetInCU: 0xA58, offset: 0xA58, size: 0x8, addend: 0x0, symName: _.str.110, symObjAddr: 0xA5BC0, symBinAddr: 0x1000AA1E0, symSize: 0x0 }
  - { offsetInCU: 0xA76, offset: 0xA76, size: 0x8, addend: 0x0, symName: _.str.111, symObjAddr: 0xA5C20, symBinAddr: 0x1000AA240, symSize: 0x0 }
  - { offsetInCU: 0xA88, offset: 0xA88, size: 0x8, addend: 0x0, symName: _.str.112, symObjAddr: 0xA5C60, symBinAddr: 0x1000AA280, symSize: 0x0 }
  - { offsetInCU: 0xA9A, offset: 0xA9A, size: 0x8, addend: 0x0, symName: _.str.113, symObjAddr: 0xA5CC0, symBinAddr: 0x1000AA2E0, symSize: 0x0 }
  - { offsetInCU: 0xAAC, offset: 0xAAC, size: 0x8, addend: 0x0, symName: _.str.114, symObjAddr: 0xA5CE0, symBinAddr: 0x1000AA300, symSize: 0x0 }
  - { offsetInCU: 0xABE, offset: 0xABE, size: 0x8, addend: 0x0, symName: _.str.115, symObjAddr: 0xA5D20, symBinAddr: 0x1000AA340, symSize: 0x0 }
  - { offsetInCU: 0xADC, offset: 0xADC, size: 0x8, addend: 0x0, symName: _.str.116, symObjAddr: 0xA5D60, symBinAddr: 0x1000AA380, symSize: 0x0 }
  - { offsetInCU: 0xAFA, offset: 0xAFA, size: 0x8, addend: 0x0, symName: _.str.117, symObjAddr: 0xA5D80, symBinAddr: 0x1000AA3A0, symSize: 0x0 }
  - { offsetInCU: 0xB0C, offset: 0xB0C, size: 0x8, addend: 0x0, symName: _.str.118, symObjAddr: 0xA5DA0, symBinAddr: 0x1000AA3C0, symSize: 0x0 }
  - { offsetInCU: 0xB1E, offset: 0xB1E, size: 0x8, addend: 0x0, symName: _.str.119, symObjAddr: 0xA5DC0, symBinAddr: 0x1000AA3E0, symSize: 0x0 }
  - { offsetInCU: 0xB30, offset: 0xB30, size: 0x8, addend: 0x0, symName: _.str.120, symObjAddr: 0xA5E00, symBinAddr: 0x1000AA420, symSize: 0x0 }
  - { offsetInCU: 0xB42, offset: 0xB42, size: 0x8, addend: 0x0, symName: _.str.121, symObjAddr: 0xA5E40, symBinAddr: 0x1000AA460, symSize: 0x0 }
  - { offsetInCU: 0xB54, offset: 0xB54, size: 0x8, addend: 0x0, symName: _.str.122, symObjAddr: 0xA5E80, symBinAddr: 0x1000AA4A0, symSize: 0x0 }
  - { offsetInCU: 0xB66, offset: 0xB66, size: 0x8, addend: 0x0, symName: _.str.123, symObjAddr: 0xA5EC0, symBinAddr: 0x1000AA4E0, symSize: 0x0 }
  - { offsetInCU: 0xB87, offset: 0xB87, size: 0x8, addend: 0x0, symName: __ZL14kpc_set_config, symObjAddr: 0x212FC0, symBinAddr: 0x1000CF400, symSize: 0x0 }
  - { offsetInCU: 0xBDA, offset: 0xBDA, size: 0x8, addend: 0x0, symName: __ZL22kpc_force_all_ctrs_set, symObjAddr: 0x212FE0, symBinAddr: 0x1000CF420, symSize: 0x0 }
  - { offsetInCU: 0xC0E, offset: 0xC0E, size: 0x8, addend: 0x0, symName: __ZL16kpc_set_counting, symObjAddr: 0x213000, symBinAddr: 0x1000CF440, symSize: 0x0 }
  - { offsetInCU: 0xC42, offset: 0xC42, size: 0x8, addend: 0x0, symName: __ZL23kpc_set_thread_counting, symObjAddr: 0x213020, symBinAddr: 0x1000CF460, symSize: 0x0 }
  - { offsetInCU: 0xC6B, offset: 0xC6B, size: 0x8, addend: 0x0, symName: __ZL16kpc_get_counting, symObjAddr: 0x213040, symBinAddr: 0x1000CF480, symSize: 0x0 }
  - { offsetInCU: 0xC99, offset: 0xC99, size: 0x8, addend: 0x0, symName: __ZL14kpc_get_config, symObjAddr: 0x213060, symBinAddr: 0x1000CF4A0, symSize: 0x0 }
  - { offsetInCU: 0xCC2, offset: 0xCC2, size: 0x8, addend: 0x0, symName: __ZL14kpc_set_period, symObjAddr: 0x213080, symBinAddr: 0x1000CF4C0, symSize: 0x0 }
  - { offsetInCU: 0xCEB, offset: 0xCEB, size: 0x8, addend: 0x0, symName: __ZL14kpc_get_period, symObjAddr: 0x2130A0, symBinAddr: 0x1000CF4E0, symSize: 0x0 }
  - { offsetInCU: 0xD14, offset: 0xD14, size: 0x8, addend: 0x0, symName: __ZL21kpc_get_counter_count, symObjAddr: 0x2130C0, symBinAddr: 0x1000CF500, symSize: 0x0 }
  - { offsetInCU: 0xD48, offset: 0xD48, size: 0x8, addend: 0x0, symName: __ZL20kpc_get_config_count, symObjAddr: 0x2130E0, symBinAddr: 0x1000CF520, symSize: 0x0 }
  - { offsetInCU: 0xD71, offset: 0xD71, size: 0x8, addend: 0x0, symName: __ZL16kperf_sample_get, symObjAddr: 0x213100, symBinAddr: 0x1000CF540, symSize: 0x0 }
  - { offsetInCU: 0xDAA, offset: 0xDAA, size: 0x8, addend: 0x0, symName: __ZL23kpc_get_thread_counters, symObjAddr: 0x213120, symBinAddr: 0x1000CF560, symSize: 0x0 }
  - { offsetInCU: 0xDE5, offset: 0xDE5, size: 0x8, addend: 0x0, symName: _.str.124, symObjAddr: 0xA5F40, symBinAddr: 0x1000AA560, symSize: 0x0 }
  - { offsetInCU: 0x531F, offset: 0x531F, size: 0x8, addend: 0x0, symName: __ZNSt3__119piecewise_constructE, symObjAddr: 0xA61A0, symBinAddr: 0x1000A8620, symSize: 0x0 }
  - { offsetInCU: 0x11195, offset: 0x11195, size: 0x8, addend: 0x0, symName: __ZNSt3__17advanceB8ue170006IPNS_12basic_stringIcNS_11char_traitsIcEENS_9allocatorIcEEEEllvEEvRT_T0_, symObjAddr: 0x38B8C, symBinAddr: 0x10003BF00, symSize: 0x38 }
  - { offsetInCU: 0x11415, offset: 0x11415, size: 0x8, addend: 0x0, symName: __ZNSt3__17advanceB8ue170006INS_16reverse_iteratorIPNS_12basic_stringIcNS_11char_traitsIcEENS_9allocatorIcEEEEEEllvEEvRT_T0_, symObjAddr: 0x39E88, symBinAddr: 0x10003D1FC, symSize: 0x38 }
  - { offsetInCU: 0x12A94, offset: 0x12A94, size: 0x8, addend: 0x0, symName: __ZNSt3__17advanceB8ue170006IPNS_4pairINS_12basic_stringIcNS_11char_traitsIcEENS_9allocatorIcEEEEjEEllvEEvRT_T0_, symObjAddr: 0x40700, symBinAddr: 0x100043A74, symSize: 0x38 }
  - { offsetInCU: 0x12AFF, offset: 0x12AFF, size: 0x8, addend: 0x0, symName: '__ZNSt3__111__introsortINS_17_ClassicAlgPolicyERZ4mainE3$_0PNS_4pairINS_12basic_stringIcNS_11char_traitsIcEENS_9allocatorIcEEEEjEELb0EEEvT1_SD_T0_NS_15iterator_traitsISD_E15difference_typeEb', symObjAddr: 0x41C3C, symBinAddr: 0x100044FB0, symSize: 0x1218 }
  - { offsetInCU: 0x12C37, offset: 0x12C37, size: 0x8, addend: 0x0, symName: '__ZNSt3__126__insertion_sort_unguardedB8ue170006INS_17_ClassicAlgPolicyERZ4mainE3$_0PNS_4pairINS_12basic_stringIcNS_11char_traitsIcEENS_9allocatorIcEEEEjEEEEvT1_SD_T0_', symObjAddr: 0x43764, symBinAddr: 0x100046AD8, symSize: 0x620 }
  - { offsetInCU: 0x12D21, offset: 0x12D21, size: 0x8, addend: 0x0, symName: '__ZNSt3__111__sift_downB8ue170006INS_17_ClassicAlgPolicyERZ4mainE3$_0PNS_4pairINS_12basic_stringIcNS_11char_traitsIcEENS_9allocatorIcEEEEjEEEEvT1_OT0_NS_15iterator_traitsISD_E15difference_typeESD_', symObjAddr: 0x4943C, symBinAddr: 0x10004C7B0, symSize: 0x878 }
  - { offsetInCU: 0x12DDE, offset: 0x12DDE, size: 0x8, addend: 0x0, symName: '__ZNSt3__117__floyd_sift_downB8ue170006INS_17_ClassicAlgPolicyERZ4mainE3$_0PNS_4pairINS_12basic_stringIcNS_11char_traitsIcEENS_9allocatorIcEEEEjEEEET1_SD_OT0_NS_15iterator_traitsISD_E15difference_typeE', symObjAddr: 0x4A2B8, symBinAddr: 0x10004D62C, symSize: 0x3CC }
  - { offsetInCU: 0x12E7F, offset: 0x12E7F, size: 0x8, addend: 0x0, symName: '__ZNSt3__131__partition_with_equals_on_leftB8ue170006INS_17_ClassicAlgPolicyEPNS_4pairINS_12basic_stringIcNS_11char_traitsIcEENS_9allocatorIcEEEEjEERZ4mainE3$_0EET0_SD_SD_T1_', symObjAddr: 0x44534, symBinAddr: 0x1000478A8, symSize: 0xAA4 }
  - { offsetInCU: 0x12F4E, offset: 0x12F4E, size: 0x8, addend: 0x0, symName: '__ZNSt3__118__bitset_partitionB8ue170006INS_17_ClassicAlgPolicyEPNS_4pairINS_12basic_stringIcNS_11char_traitsIcEENS_9allocatorIcEEEEjEERZ4mainE3$_0EENS2_IT0_bEESD_SD_T1_', symObjAddr: 0x44FD8, symBinAddr: 0x10004834C, symSize: 0x1000 }
  - { offsetInCU: 0x1306E, offset: 0x1306E, size: 0x8, addend: 0x0, symName: __ZNSt3__124__swap_bitmap_pos_withinB8ue170006INS_17_ClassicAlgPolicyEPNS_4pairINS_12basic_stringIcNS_11char_traitsIcEENS_9allocatorIcEEEEjEEEEvRT0_SC_RySD_, symObjAddr: 0x4BA70, symBinAddr: 0x10004EDE4, symSize: 0x7B8 }
  - { offsetInCU: 0x13149, offset: 0x13149, size: 0x8, addend: 0x0, symName: '__ZNSt3__132__partition_with_equals_on_rightB8ue170006INS_17_ClassicAlgPolicyEPNS_4pairINS_12basic_stringIcNS_11char_traitsIcEENS_9allocatorIcEEEEjEERZ4mainE3$_0EENS2_IT0_bEESD_SD_T1_', symObjAddr: 0x45FD8, symBinAddr: 0x10004934C, symSize: 0xBC0 }
  - { offsetInCU: 0x1322D, offset: 0x1322D, size: 0x8, addend: 0x0, symName: '__ZNSt3__127__insertion_sort_incompleteB8ue170006INS_17_ClassicAlgPolicyERZ4mainE3$_0PNS_4pairINS_12basic_stringIcNS_11char_traitsIcEENS_9allocatorIcEEEEjEEEEbT1_SD_T0_', symObjAddr: 0x46B98, symBinAddr: 0x100049F0C, symSize: 0xCD8 }
  - { offsetInCU: 0x1332C, offset: 0x1332C, size: 0x8, addend: 0x0, symName: __ZNSt3__124__put_character_sequenceB8ue170006IcNS_11char_traitsIcEEEERNS_13basic_ostreamIT_T0_EES7_PKS4_m, symObjAddr: 0x4E374, symBinAddr: 0x1000516E8, symSize: 0x744 }
  - { offsetInCU: 0x1F281, offset: 0x1F281, size: 0x8, addend: 0x0, symName: __ZNSt3__1lsB8ue170006INS_11char_traitsIcEEEERNS_13basic_ostreamIcT_EES6_PKc, symObjAddr: 0x11074, symBinAddr: 0x1000143E8, symSize: 0x48 }
  - { offsetInCU: 0x1F2C7, offset: 0x1F2C7, size: 0x8, addend: 0x0, symName: __ZNSt3__1eqB8ue170006INS_9allocatorIcEEEEbRKNS_12basic_stringIcNS_11char_traitsIcEET_EES9_, symObjAddr: 0x121A8, symBinAddr: 0x10001551C, symSize: 0x234 }
  - { offsetInCU: 0x1F33A, offset: 0x1F33A, size: 0x8, addend: 0x0, symName: __ZNSt3__14endlB8ue170006IcNS_11char_traitsIcEEEERNS_13basic_ostreamIT_T0_EES7_, symObjAddr: 0x12408, symBinAddr: 0x10001577C, symSize: 0xD4 }
  - { offsetInCU: 0x1F37A, offset: 0x1F37A, size: 0x8, addend: 0x0, symName: __ZNSt3__1lsB8ue170006IcNS_11char_traitsIcEENS_9allocatorIcEEEERNS_13basic_ostreamIT_T0_EES9_RKNS_12basic_stringIS6_S7_T1_EE, symObjAddr: 0x124DC, symBinAddr: 0x100015850, symSize: 0x4C }
  - { offsetInCU: 0x1F3D2, offset: 0x1F3D2, size: 0x8, addend: 0x0, symName: __ZNSt3__1eqB8ue170006IcNS_11char_traitsIcEENS_9allocatorIcEEEEbRKNS_12basic_stringIT_T0_T1_EEPKS6_, symObjAddr: 0x136CC, symBinAddr: 0x100016A40, symSize: 0x2EC }
  - { offsetInCU: 0x20499, offset: 0x20499, size: 0x8, addend: 0x0, symName: __ZNSt3__17getlineB8ue170006IcNS_11char_traitsIcEENS_9allocatorIcEEEERNS_13basic_istreamIT_T0_EES9_RNS_12basic_stringIS6_S7_T1_EE, symObjAddr: 0x2819C, symBinAddr: 0x10002B510, symSize: 0xD8 }
  - { offsetInCU: 0x204F1, offset: 0x204F1, size: 0x8, addend: 0x0, symName: __ZNSt3__1neB8ue170006IPcEEbRKNS_11__wrap_iterIT_EES6_, symObjAddr: 0x28754, symBinAddr: 0x10002BAC8, symSize: 0x34 }
  - { offsetInCU: 0x2112B, offset: 0x2112B, size: 0x8, addend: 0x0, symName: __ZNSt3__1neB8ue170006IPNS_12basic_stringIcNS_11char_traitsIcEENS_9allocatorIcEEEEEEbRKNS_11__wrap_iterIT_EESC_, symObjAddr: 0x28F04, symBinAddr: 0x10002C278, symSize: 0x34 }
  - { offsetInCU: 0x2116E, offset: 0x2116E, size: 0x8, addend: 0x0, symName: '__ZNSt3__14sortB8ue170006INS_11__wrap_iterIPNS_4pairINS_12basic_stringIcNS_11char_traitsIcEENS_9allocatorIcEEEEjEEEEZ4mainE3$_0EEvT_SD_T0_', symObjAddr: 0x29B78, symBinAddr: 0x10002CEEC, symSize: 0x36C }
  - { offsetInCU: 0x21FEA, offset: 0x21FEA, size: 0x8, addend: 0x0, symName: __ZNSt3__1eqB8ue170006ERKNS_19__hash_map_iteratorINS_15__hash_iteratorIPNS_11__hash_nodeINS_17__hash_value_typeINS_12basic_stringIcNS_11char_traitsIcEENS_9allocatorIcEEEEjEEPvEEEEEESH_, symObjAddr: 0x2A52C, symBinAddr: 0x10002D8A0, symSize: 0x30 }
  - { offsetInCU: 0x22B46, offset: 0x22B46, size: 0x8, addend: 0x0, symName: __ZNSt3__1neB8ue170006ERKNS_21__hash_const_iteratorIPNS_11__hash_nodeINS_12basic_stringIcNS_11char_traitsIcEENS_9allocatorIcEEEEPvEEEESD_, symObjAddr: 0x2B208, symBinAddr: 0x10002E57C, symSize: 0x34 }
  - { offsetInCU: 0x22B83, offset: 0x22B83, size: 0x8, addend: 0x0, symName: __ZNSt3__1eqB8ue170006ERKNS_19__hash_map_iteratorINS_15__hash_iteratorIPNS_11__hash_nodeINS_17__hash_value_typeINS_12basic_stringIcNS_11char_traitsIcEENS_9allocatorIcEEEE4DataEEPvEEEEEESI_, symObjAddr: 0x2F178, symBinAddr: 0x1000324EC, symSize: 0x30 }
  - { offsetInCU: 0x22BC0, offset: 0x22BC0, size: 0x8, addend: 0x0, symName: __ZNSt3__1eqB8ue170006ERKNS_14__map_iteratorINS_15__tree_iteratorINS_12__value_typeINS_12basic_stringIcNS_11char_traitsIcEENS_9allocatorIcEEEE4DataEEPNS_11__tree_nodeISA_PvEElEEEESI_, symObjAddr: 0x2FA58, symBinAddr: 0x100032DCC, symSize: 0x30 }
  - { offsetInCU: 0x22C08, offset: 0x22C08, size: 0x8, addend: 0x0, symName: __ZNSt3__118__constexpr_strlenB8ue170006EPKc, symObjAddr: 0x32234, symBinAddr: 0x1000355A8, symSize: 0x24 }
  - { offsetInCU: 0x22C35, offset: 0x22C35, size: 0x8, addend: 0x0, symName: __ZNSt3__112__to_addressB8ue170006IKcEEPT_S3_, symObjAddr: 0x32364, symBinAddr: 0x1000356D8, symSize: 0x14 }
  - { offsetInCU: 0x22C9D, offset: 0x22C9D, size: 0x8, addend: 0x0, symName: __ZNSt3__119__libcpp_deallocateB8ue170006EPvmm, symObjAddr: 0x32BA0, symBinAddr: 0x100035F14, symSize: 0x60 }
  - { offsetInCU: 0x22D03, offset: 0x22D03, size: 0x8, addend: 0x0, symName: __ZNSt3__124__is_overaligned_for_newB8ue170006Em, symObjAddr: 0x32C00, symBinAddr: 0x100035F74, symSize: 0x20 }
  - { offsetInCU: 0x22D31, offset: 0x22D31, size: 0x8, addend: 0x0, symName: __ZNSt3__127__do_deallocate_handle_sizeB8ue170006IJSt11align_val_tEEEvPvmDpT_, symObjAddr: 0x32C20, symBinAddr: 0x100035F94, symSize: 0x30 }
  - { offsetInCU: 0x22D84, offset: 0x22D84, size: 0x8, addend: 0x0, symName: __ZNSt3__127__do_deallocate_handle_sizeB8ue170006IJEEEvPvmDpT_, symObjAddr: 0x32C50, symBinAddr: 0x100035FC4, symSize: 0x28 }
  - { offsetInCU: 0x22DC3, offset: 0x22DC3, size: 0x8, addend: 0x0, symName: __ZNSt3__124__libcpp_operator_deleteB8ue170006IJPvSt11align_val_tEEEvDpT_, symObjAddr: 0x32C78, symBinAddr: 0x100035FEC, symSize: 0x2C }
  - { offsetInCU: 0x22E0C, offset: 0x22E0C, size: 0x8, addend: 0x0, symName: __ZNSt3__124__libcpp_operator_deleteB8ue170006IJPvEEEvDpT_, symObjAddr: 0x32CA4, symBinAddr: 0x100036018, symSize: 0x24 }
  - { offsetInCU: 0x22E41, offset: 0x22E41, size: 0x8, addend: 0x0, symName: __ZNSt3__1eqB8ue170006IcNS_11char_traitsIcEEEEbNS_17basic_string_viewIT_T0_EES6_, symObjAddr: 0x32D60, symBinAddr: 0x1000360D4, symSize: 0x348 }
  - { offsetInCU: 0x22E98, offset: 0x22E98, size: 0x8, addend: 0x0, symName: __ZNSt3__13minB8ue170006ImEERKT_S3_S3_, symObjAddr: 0x33540, symBinAddr: 0x1000368B4, symSize: 0x2C }
  - { offsetInCU: 0x22EDB, offset: 0x22EDB, size: 0x8, addend: 0x0, symName: __ZNSt3__13minB8ue170006ImNS_6__lessIvvEEEERKT_S5_S5_T0_, symObjAddr: 0x335CC, symBinAddr: 0x100036940, symSize: 0x1E8 }
  - { offsetInCU: 0x22F82, offset: 0x22F82, size: 0x8, addend: 0x0, symName: __ZNSt3__128__char_traits_length_checkedB8ue170006INS_11char_traitsIcEEEEmPKNT_9char_typeE, symObjAddr: 0x33A2C, symBinAddr: 0x100036DA0, symSize: 0x24 }
  - { offsetInCU: 0x22FB9, offset: 0x22FB9, size: 0x8, addend: 0x0, symName: __ZNSt3__1eqB8ue170006IPcEEbRKNS_11__wrap_iterIT_EES6_, symObjAddr: 0x34BE0, symBinAddr: 0x100037F54, symSize: 0x48 }
  - { offsetInCU: 0x22FFD, offset: 0x22FFD, size: 0x8, addend: 0x0, symName: __ZNSt3__112__to_addressB8ue170006INS_12basic_stringIcNS_11char_traitsIcEENS_9allocatorIcEEEEEEPT_S8_, symObjAddr: 0x354A8, symBinAddr: 0x10003881C, symSize: 0x14 }
  - { offsetInCU: 0x23059, offset: 0x23059, size: 0x8, addend: 0x0, symName: __ZNSt3__112construct_atB8ue170006INS_12basic_stringIcNS_11char_traitsIcEENS_9allocatorIcEEEEJRKS6_EPS6_EEPT_SB_DpOT0_, symObjAddr: 0x35990, symBinAddr: 0x100038D04, symSize: 0x3C }
  - { offsetInCU: 0x230CB, offset: 0x230CB, size: 0x8, addend: 0x0, symName: __ZNSt3__13maxB8ue170006ImEERKT_S3_S3_, symObjAddr: 0x369DC, symBinAddr: 0x100039D50, symSize: 0x2C }
  - { offsetInCU: 0x232F9, offset: 0x232F9, size: 0x8, addend: 0x0, symName: __ZNSt3__120__throw_length_errorB8ue170006EPKc, symObjAddr: 0x36AC8, symBinAddr: 0x100039E3C, symSize: 0x68 }
  - { offsetInCU: 0x23323, offset: 0x23323, size: 0x8, addend: 0x0, symName: __ZNSt3__13maxB8ue170006ImNS_6__lessIvvEEEERKT_S5_S5_T0_, symObjAddr: 0x36BF0, symBinAddr: 0x100039F64, symSize: 0x1E8 }
  - { offsetInCU: 0x23383, offset: 0x23383, size: 0x8, addend: 0x0, symName: __ZNSt3__119__allocate_at_leastB8ue170006INS_9allocatorINS_12basic_stringIcNS_11char_traitsIcEENS1_IcEEEEEEEENS_19__allocation_resultINS_16allocator_traitsIT_E7pointerEEERSA_m, symObjAddr: 0x37344, symBinAddr: 0x10003A6B8, symSize: 0x28C }
  - { offsetInCU: 0x233C8, offset: 0x233C8, size: 0x8, addend: 0x0, symName: __ZNSt3__117__libcpp_allocateB8ue170006Emm, symObjAddr: 0x37770, symBinAddr: 0x10003AAE4, symSize: 0x60 }
  - { offsetInCU: 0x23422, offset: 0x23422, size: 0x8, addend: 0x0, symName: __ZNSt3__121__libcpp_operator_newB8ue170006IJmSt11align_val_tEEEPvDpT_, symObjAddr: 0x377D0, symBinAddr: 0x10003AB44, symSize: 0x2C }
  - { offsetInCU: 0x2346F, offset: 0x2346F, size: 0x8, addend: 0x0, symName: __ZNSt3__121__libcpp_operator_newB8ue170006IJmEEEPvDpT_, symObjAddr: 0x377FC, symBinAddr: 0x10003AB70, symSize: 0x24 }
  - { offsetInCU: 0x234A8, offset: 0x234A8, size: 0x8, addend: 0x0, symName: __ZNSt3__142__uninitialized_allocator_move_if_noexceptB8ue170006INS_9allocatorINS_12basic_stringIcNS_11char_traitsIcEENS1_IcEEEEEENS_16reverse_iteratorIPS6_EESA_SA_EET2_RT_T0_T1_SB_, symObjAddr: 0x379B4, symBinAddr: 0x10003AD28, symSize: 0x544 }
  - { offsetInCU: 0x2355D, offset: 0x2355D, size: 0x8, addend: 0x0, symName: __ZNSt3__14swapB8ue170006IPNS_12basic_stringIcNS_11char_traitsIcEENS_9allocatorIcEEEEEENS_9enable_ifIXaasr21is_move_constructibleIT_EE5valuesr18is_move_assignableIS9_EE5valueEvE4typeERS9_SC_, symObjAddr: 0x37F90, symBinAddr: 0x10003B304, symSize: 0x134 }
  - { offsetInCU: 0x235AE, offset: 0x235AE, size: 0x8, addend: 0x0, symName: __ZNSt3__122__make_exception_guardB8ue170006INS_29_AllocatorDestroyRangeReverseINS_9allocatorINS_12basic_stringIcNS_11char_traitsIcEENS2_IcEEEEEENS_16reverse_iteratorIPS7_EEEEEENS_28__exception_guard_exceptionsIT_EESE_, symObjAddr: 0x381A0, symBinAddr: 0x10003B514, symSize: 0x1F8 }
  - { offsetInCU: 0x235E5, offset: 0x235E5, size: 0x8, addend: 0x0, symName: __ZNSt3__1neB8ue170006IPNS_12basic_stringIcNS_11char_traitsIcEENS_9allocatorIcEEEES7_EEbRKNS_16reverse_iteratorIT_EERKNS8_IT0_EE, symObjAddr: 0x383DC, symBinAddr: 0x10003B750, symSize: 0x48 }
  - { offsetInCU: 0x23631, offset: 0x23631, size: 0x8, addend: 0x0, symName: __ZNSt3__112__to_addressB8ue170006INS_16reverse_iteratorIPNS_12basic_stringIcNS_11char_traitsIcEENS_9allocatorIcEEEEEEvEEu7__decayIDTclsr19__to_address_helperIT_EE6__callclsr3stdE7declvalIRKSA_EEEEESC_, symObjAddr: 0x38454, symBinAddr: 0x10003B7C8, symSize: 0x24 }
  - { offsetInCU: 0x23667, offset: 0x23667, size: 0x8, addend: 0x0, symName: __ZNSt3__112construct_atB8ue170006INS_12basic_stringIcNS_11char_traitsIcEENS_9allocatorIcEEEEJS6_EPS6_EEPT_S9_DpOT0_, symObjAddr: 0x387EC, symBinAddr: 0x10003BB60, symSize: 0x3C }
  - { offsetInCU: 0x23703, offset: 0x23703, size: 0x8, addend: 0x0, symName: __ZNSt3__14prevB8ue170006IPNS_12basic_stringIcNS_11char_traitsIcEENS_9allocatorIcEEEEEENS_9enable_ifIXsr29__has_input_iterator_categoryIT_EE5valueES9_E4typeES9_NS_15iterator_traitsIS9_E15difference_typeE, symObjAddr: 0x3894C, symBinAddr: 0x10003BCC0, symSize: 0x240 }
  - { offsetInCU: 0x2374C, offset: 0x2374C, size: 0x8, addend: 0x0, symName: __ZNSt3__121__convert_to_integralB8ue170006El, symObjAddr: 0x38BC4, symBinAddr: 0x10003BF38, symSize: 0x14 }
  - { offsetInCU: 0x23778, offset: 0x23778, size: 0x8, addend: 0x0, symName: __ZNSt3__19__advanceB8ue170006IPNS_12basic_stringIcNS_11char_traitsIcEENS_9allocatorIcEEEEEEvRT_NS_15iterator_traitsIS8_E15difference_typeENS_26random_access_iterator_tagE, symObjAddr: 0x38BD8, symBinAddr: 0x10003BF4C, symSize: 0x80 }
  - { offsetInCU: 0x237C2, offset: 0x237C2, size: 0x8, addend: 0x0, symName: __ZNSt3__119__allocator_destroyB8ue170006INS_9allocatorINS_12basic_stringIcNS_11char_traitsIcEENS1_IcEEEEEENS_16reverse_iteratorINS8_IPS6_EEEESB_EEvRT_T0_T1_, symObjAddr: 0x390BC, symBinAddr: 0x10003C430, symSize: 0x70 }
  - { offsetInCU: 0x23827, offset: 0x23827, size: 0x8, addend: 0x0, symName: __ZNSt3__1neB8ue170006INS_16reverse_iteratorIPNS_12basic_stringIcNS_11char_traitsIcEENS_9allocatorIcEEEEEES9_EEbRKNS1_IT_EERKNS1_IT0_EE, symObjAddr: 0x39374, symBinAddr: 0x10003C6E8, symSize: 0x2CC }
  - { offsetInCU: 0x23875, offset: 0x23875, size: 0x8, addend: 0x0, symName: __ZNSt3__112__to_addressB8ue170006INS_16reverse_iteratorINS1_IPNS_12basic_stringIcNS_11char_traitsIcEENS_9allocatorIcEEEEEEEEvEEu7__decayIDTclsr19__to_address_helperIT_EE6__callclsr3stdE7declvalIRKSB_EEEEESD_, symObjAddr: 0x39668, symBinAddr: 0x10003C9DC, symSize: 0x24 }
  - { offsetInCU: 0x238AB, offset: 0x238AB, size: 0x8, addend: 0x0, symName: __ZNSt3__110destroy_atB8ue170006INS_12basic_stringIcNS_11char_traitsIcEENS_9allocatorIcEEEELi0EEEvPT_, symObjAddr: 0x398C8, symBinAddr: 0x10003CC3C, symSize: 0x24 }
  - { offsetInCU: 0x238E2, offset: 0x238E2, size: 0x8, addend: 0x0, symName: __ZNSt3__112__destroy_atB8ue170006INS_12basic_stringIcNS_11char_traitsIcEENS_9allocatorIcEEEELi0EEEvPT_, symObjAddr: 0x398EC, symBinAddr: 0x10003CC60, symSize: 0x24 }
  - { offsetInCU: 0x23943, offset: 0x23943, size: 0x8, addend: 0x0, symName: __ZNSt3__14prevB8ue170006INS_16reverse_iteratorIPNS_12basic_stringIcNS_11char_traitsIcEENS_9allocatorIcEEEEEEEENS_9enable_ifIXsr29__has_input_iterator_categoryIT_EE5valueESB_E4typeESB_NS_15iterator_traitsISB_E15difference_typeE, symObjAddr: 0x39BF4, symBinAddr: 0x10003CF68, symSize: 0x294 }
  - { offsetInCU: 0x2398B, offset: 0x2398B, size: 0x8, addend: 0x0, symName: __ZNSt3__19__advanceB8ue170006INS_16reverse_iteratorIPNS_12basic_stringIcNS_11char_traitsIcEENS_9allocatorIcEEEEEEEEvRT_NS_15iterator_traitsISA_E15difference_typeENS_26random_access_iterator_tagE, symObjAddr: 0x39EC0, symBinAddr: 0x10003D234, symSize: 0x2C }
  - { offsetInCU: 0x239D5, offset: 0x239D5, size: 0x8, addend: 0x0, symName: __ZNSt3__1eqB8ue170006IPNS_12basic_stringIcNS_11char_traitsIcEENS_9allocatorIcEEEEEEbRKNS_11__wrap_iterIT_EESC_, symObjAddr: 0x3A990, symBinAddr: 0x10003DD04, symSize: 0x48 }
  - { offsetInCU: 0x23A18, offset: 0x23A18, size: 0x8, addend: 0x0, symName: __ZNSt3__18distanceB8ue170006INS_19__hash_map_iteratorINS_15__hash_iteratorIPNS_11__hash_nodeINS_17__hash_value_typeINS_12basic_stringIcNS_11char_traitsIcEENS_9allocatorIcEEEEjEEPvEEEEEEEENS_15iterator_traitsIT_E15difference_typeESI_SI_, symObjAddr: 0x3AFAC, symBinAddr: 0x10003E320, symSize: 0x350 }
  - { offsetInCU: 0x23A63, offset: 0x23A63, size: 0x8, addend: 0x0, symName: __ZNSt3__110__distanceB8ue170006INS_19__hash_map_iteratorINS_15__hash_iteratorIPNS_11__hash_nodeINS_17__hash_value_typeINS_12basic_stringIcNS_11char_traitsIcEENS_9allocatorIcEEEEjEEPvEEEEEEEENS_15iterator_traitsIT_E15difference_typeESI_SI_NS_18input_iterator_tagE, symObjAddr: 0x3B920, symBinAddr: 0x10003EC94, symSize: 0x2A8 }
  - { offsetInCU: 0x23AC9, offset: 0x23AC9, size: 0x8, addend: 0x0, symName: __ZNSt3__122__make_exception_guardB8ue170006INS_6vectorINS_4pairINS_12basic_stringIcNS_11char_traitsIcEENS_9allocatorIcEEEEjEENS6_IS9_EEE16__destroy_vectorEEENS_28__exception_guard_exceptionsIT_EESE_, symObjAddr: 0x3BBC8, symBinAddr: 0x10003EF3C, symSize: 0x278 }
  - { offsetInCU: 0x23B02, offset: 0x23B02, size: 0x8, addend: 0x0, symName: __ZNSt3__119__allocate_at_leastB8ue170006INS_9allocatorINS_4pairINS_12basic_stringIcNS_11char_traitsIcEENS1_IcEEEEjEEEEEENS_19__allocation_resultINS_16allocator_traitsIT_E7pointerEEERSC_m, symObjAddr: 0x3D0BC, symBinAddr: 0x100040430, symSize: 0x28C }
  - { offsetInCU: 0x23B48, offset: 0x23B48, size: 0x8, addend: 0x0, symName: __ZNSt3__112__to_addressB8ue170006INS_4pairINS_12basic_stringIcNS_11char_traitsIcEENS_9allocatorIcEEEEjEEEEPT_SA_, symObjAddr: 0x3D724, symBinAddr: 0x100040A98, symSize: 0x14 }
  - { offsetInCU: 0x23B7D, offset: 0x23B7D, size: 0x8, addend: 0x0, symName: __ZNSt3__130__uninitialized_allocator_copyB8ue170006INS_9allocatorINS_4pairINS_12basic_stringIcNS_11char_traitsIcEENS1_IcEEEEjEEEENS_19__hash_map_iteratorINS_15__hash_iteratorIPNS_11__hash_nodeINS_17__hash_value_typeIS7_jEEPvEEEEEESJ_PS8_EET2_RT_T0_T1_SL_, symObjAddr: 0x3D7D4, symBinAddr: 0x100040B48, symSize: 0x4EC }
  - { offsetInCU: 0x23C29, offset: 0x23C29, size: 0x8, addend: 0x0, symName: __ZNSt3__114__unwrap_rangeB8ue170006INS_19__hash_map_iteratorINS_15__hash_iteratorIPNS_11__hash_nodeINS_17__hash_value_typeINS_12basic_stringIcNS_11char_traitsIcEENS_9allocatorIcEEEEjEEPvEEEEEESG_EEDaT_T0_, symObjAddr: 0x3DF94, symBinAddr: 0x100041308, symSize: 0x3CC }
  - { offsetInCU: 0x23C7D, offset: 0x23C7D, size: 0x8, addend: 0x0, symName: __ZNSt3__135__uninitialized_allocator_copy_implB8ue170006INS_9allocatorINS_4pairINS_12basic_stringIcNS_11char_traitsIcEENS1_IcEEEEjEEEENS_19__hash_map_iteratorINS_15__hash_iteratorIPNS_11__hash_nodeINS_17__hash_value_typeIS7_jEEPvEEEEEESJ_PS8_EET2_RT_T0_T1_SL_, symObjAddr: 0x3E360, symBinAddr: 0x1000416D4, symSize: 0x5D4 }
  - { offsetInCU: 0x23D31, offset: 0x23D31, size: 0x8, addend: 0x0, symName: __ZNSt3__113__unwrap_iterB8ue170006IPNS_4pairINS_12basic_stringIcNS_11char_traitsIcEENS_9allocatorIcEEEEjEENS_18__unwrap_iter_implIS9_Lb1EEELi0EEEDTclsrT0_8__unwrapclsr3stdE7declvalIT_EEEESD_, symObjAddr: 0x3E934, symBinAddr: 0x100041CA8, symSize: 0x24 }
  - { offsetInCU: 0x23D75, offset: 0x23D75, size: 0x8, addend: 0x0, symName: __ZNSt3__113__rewrap_iterB8ue170006IPNS_4pairINS_12basic_stringIcNS_11char_traitsIcEENS_9allocatorIcEEEEjEES9_NS_18__unwrap_iter_implIS9_Lb1EEEEET_SC_T0_, symObjAddr: 0x3E958, symBinAddr: 0x100041CCC, symSize: 0x48 }
  - { offsetInCU: 0x23E00, offset: 0x23E00, size: 0x8, addend: 0x0, symName: __ZNSt3__113__unwrap_iterB8ue170006INS_19__hash_map_iteratorINS_15__hash_iteratorIPNS_11__hash_nodeINS_17__hash_value_typeINS_12basic_stringIcNS_11char_traitsIcEENS_9allocatorIcEEEEjEEPvEEEEEENS_18__unwrap_iter_implISG_Lb0EEELi0EEEDTclsrT0_8__unwrapclsr3stdE7declvalIT_EEEESK_, symObjAddr: 0x3EE30, symBinAddr: 0x1000421A4, symSize: 0x30C }
  - { offsetInCU: 0x23E90, offset: 0x23E90, size: 0x8, addend: 0x0, symName: __ZNSt3__122__make_exception_guardB8ue170006INS_29_AllocatorDestroyRangeReverseINS_9allocatorINS_4pairINS_12basic_stringIcNS_11char_traitsIcEENS2_IcEEEEjEEEEPS9_EEEENS_28__exception_guard_exceptionsIT_EESE_, symObjAddr: 0x3F43C, symBinAddr: 0x1000427B0, symSize: 0x1F8 }
  - { offsetInCU: 0x23EEE, offset: 0x23EEE, size: 0x8, addend: 0x0, symName: __ZNSt3__112construct_atB8ue170006INS_4pairINS_12basic_stringIcNS_11char_traitsIcEENS_9allocatorIcEEEEjEEJRNS1_IKS7_jEEEPS8_EEPT_SE_DpOT0_, symObjAddr: 0x3F93C, symBinAddr: 0x100042CB0, symSize: 0x3C }
  - { offsetInCU: 0x23F60, offset: 0x23F60, size: 0x8, addend: 0x0, symName: __ZNSt3__119__allocator_destroyB8ue170006INS_9allocatorINS_4pairINS_12basic_stringIcNS_11char_traitsIcEENS1_IcEEEEjEEEENS_16reverse_iteratorIPS8_EESC_EEvRT_T0_T1_, symObjAddr: 0x3FF20, symBinAddr: 0x100043294, symSize: 0x2B8 }
  - { offsetInCU: 0x23FCC, offset: 0x23FCC, size: 0x8, addend: 0x0, symName: __ZNSt3__1neB8ue170006IPNS_4pairINS_12basic_stringIcNS_11char_traitsIcEENS_9allocatorIcEEEEjEES9_EEbRKNS_16reverse_iteratorIT_EERKNSA_IT0_EE, symObjAddr: 0x4020C, symBinAddr: 0x100043580, symSize: 0x48 }
  - { offsetInCU: 0x24018, offset: 0x24018, size: 0x8, addend: 0x0, symName: __ZNSt3__112__to_addressB8ue170006INS_16reverse_iteratorIPNS_4pairINS_12basic_stringIcNS_11char_traitsIcEENS_9allocatorIcEEEEjEEEEvEEu7__decayIDTclsr19__to_address_helperIT_EE6__callclsr3stdE7declvalIRKSC_EEEEESE_, symObjAddr: 0x4027C, symBinAddr: 0x1000435F0, symSize: 0x24 }
  - { offsetInCU: 0x2404E, offset: 0x2404E, size: 0x8, addend: 0x0, symName: __ZNSt3__110destroy_atB8ue170006INS_4pairINS_12basic_stringIcNS_11char_traitsIcEENS_9allocatorIcEEEEjEELi0EEEvPT_, symObjAddr: 0x40370, symBinAddr: 0x1000436E4, symSize: 0x24 }
  - { offsetInCU: 0x24085, offset: 0x24085, size: 0x8, addend: 0x0, symName: __ZNSt3__112__destroy_atB8ue170006INS_4pairINS_12basic_stringIcNS_11char_traitsIcEENS_9allocatorIcEEEEjEELi0EEEvPT_, symObjAddr: 0x40394, symBinAddr: 0x100043708, symSize: 0x24 }
  - { offsetInCU: 0x240E6, offset: 0x240E6, size: 0x8, addend: 0x0, symName: __ZNSt3__14prevB8ue170006IPNS_4pairINS_12basic_stringIcNS_11char_traitsIcEENS_9allocatorIcEEEEjEEEENS_9enable_ifIXsr29__has_input_iterator_categoryIT_EE5valueESB_E4typeESB_NS_15iterator_traitsISB_E15difference_typeE, symObjAddr: 0x404C0, symBinAddr: 0x100043834, symSize: 0x240 }
  - { offsetInCU: 0x2412E, offset: 0x2412E, size: 0x8, addend: 0x0, symName: __ZNSt3__19__advanceB8ue170006IPNS_4pairINS_12basic_stringIcNS_11char_traitsIcEENS_9allocatorIcEEEEjEEEEvRT_NS_15iterator_traitsISA_E15difference_typeENS_26random_access_iterator_tagE, symObjAddr: 0x40738, symBinAddr: 0x100043AAC, symSize: 0x78 }
  - { offsetInCU: 0x241CB, offset: 0x241CB, size: 0x8, addend: 0x0, symName: '__ZNSt3__111__sort_implB8ue170006INS_17_ClassicAlgPolicyENS_11__wrap_iterIPNS_4pairINS_12basic_stringIcNS_11char_traitsIcEENS_9allocatorIcEEEEjEEEEZ4mainE3$_0EEvT0_SE_RT1_', symObjAddr: 0x411C4, symBinAddr: 0x100044538, symSize: 0x4D0 }
  - { offsetInCU: 0x24237, offset: 0x24237, size: 0x8, addend: 0x0, symName: __ZNSt3__123__debug_randomize_rangeB8ue170006INS_17_ClassicAlgPolicyENS_11__wrap_iterIPNS_4pairINS_12basic_stringIcNS_11char_traitsIcEENS_9allocatorIcEEEEjEEEESC_EEvT0_T1_, symObjAddr: 0x41694, symBinAddr: 0x100044A08, symSize: 0x264 }
  - { offsetInCU: 0x24290, offset: 0x24290, size: 0x8, addend: 0x0, symName: '__ZNSt3__115__sort_dispatchB8ue170006INS_17_ClassicAlgPolicyEPNS_4pairINS_12basic_stringIcNS_11char_traitsIcEENS_9allocatorIcEEEEjEEZ4mainE3$_0EEvT0_SC_RT1_', symObjAddr: 0x418F8, symBinAddr: 0x100044C6C, symSize: 0x64 }
  - { offsetInCU: 0x2430E, offset: 0x2430E, size: 0x8, addend: 0x0, symName: __ZNSt3__113__unwrap_iterB8ue170006INS_11__wrap_iterIPNS_4pairINS_12basic_stringIcNS_11char_traitsIcEENS_9allocatorIcEEEEjEEEENS_18__unwrap_iter_implISB_Lb1EEELi0EEEDTclsrT0_8__unwrapclsr3stdE7declvalIT_EEEESF_, symObjAddr: 0x4195C, symBinAddr: 0x100044CD0, symSize: 0x274 }
  - { offsetInCU: 0x24357, offset: 0x24357, size: 0x8, addend: 0x0, symName: '__ZNSt3__135__check_strict_weak_ordering_sortedB8ue170006IPNS_4pairINS_12basic_stringIcNS_11char_traitsIcEENS_9allocatorIcEEEEjEEZ4mainE3$_0EEvT_SB_RT0_', symObjAddr: 0x41BD0, symBinAddr: 0x100044F44, symSize: 0x18 }
  - { offsetInCU: 0x243AD, offset: 0x243AD, size: 0x8, addend: 0x0, symName: __ZNSt3__17__log2iB8ue170006IlEET_S1_, symObjAddr: 0x41BE8, symBinAddr: 0x100044F5C, symSize: 0x54 }
  - { offsetInCU: 0x243E5, offset: 0x243E5, size: 0x8, addend: 0x0, symName: __ZNSt3__112__libcpp_clzB8ue170006Em, symObjAddr: 0x42E6C, symBinAddr: 0x1000461E0, symSize: 0x1C }
  - { offsetInCU: 0x244FB, offset: 0x244FB, size: 0x8, addend: 0x0, symName: '__ZNSt3__124__sort3_maybe_branchlessB8ue170006INS_17_ClassicAlgPolicyERZ4mainE3$_0PNS_4pairINS_12basic_stringIcNS_11char_traitsIcEENS_9allocatorIcEEEEjEEEENS_9enable_ifIXntsr21__use_branchless_sortIT0_T1_EE5valueEvE4typeESF_SF_SF_SE_', symObjAddr: 0x4304C, symBinAddr: 0x1000463C0, symSize: 0x3C }
  - { offsetInCU: 0x2456C, offset: 0x2456C, size: 0x8, addend: 0x0, symName: '__ZNSt3__124__sort4_maybe_branchlessB8ue170006INS_17_ClassicAlgPolicyERZ4mainE3$_0PNS_4pairINS_12basic_stringIcNS_11char_traitsIcEENS_9allocatorIcEEEEjEEEENS_9enable_ifIXntsr21__use_branchless_sortIT0_T1_EE5valueEvE4typeESF_SF_SF_SF_SE_', symObjAddr: 0x43088, symBinAddr: 0x1000463FC, symSize: 0x44 }
  - { offsetInCU: 0x245EB, offset: 0x245EB, size: 0x8, addend: 0x0, symName: '__ZNSt3__124__sort5_maybe_branchlessB8ue170006INS_17_ClassicAlgPolicyERZ4mainE3$_0PNS_4pairINS_12basic_stringIcNS_11char_traitsIcEENS_9allocatorIcEEEEjEEEENS_9enable_ifIXntsr21__use_branchless_sortIT0_T1_EE5valueEvE4typeESF_SF_SF_SF_SF_SE_', symObjAddr: 0x430CC, symBinAddr: 0x100046440, symSize: 0x4C }
  - { offsetInCU: 0x24678, offset: 0x24678, size: 0x8, addend: 0x0, symName: '__ZNSt3__116__insertion_sortB8ue170006INS_17_ClassicAlgPolicyERZ4mainE3$_0PNS_4pairINS_12basic_stringIcNS_11char_traitsIcEENS_9allocatorIcEEEEjEEEEvT1_SD_T0_', symObjAddr: 0x43118, symBinAddr: 0x10004648C, symSize: 0x64C }
  - { offsetInCU: 0x2473C, offset: 0x2473C, size: 0x8, addend: 0x0, symName: '__ZNSt3__114__partial_sortB8ue170006INS_17_ClassicAlgPolicyERZ4mainE3$_0PNS_4pairINS_12basic_stringIcNS_11char_traitsIcEENS_9allocatorIcEEEEjEESC_EET1_SD_SD_T2_RT0_', symObjAddr: 0x43D84, symBinAddr: 0x1000470F8, symSize: 0x94 }
  - { offsetInCU: 0x247C4, offset: 0x247C4, size: 0x8, addend: 0x0, symName: '__ZNSt3__17__sort3B8ue170006INS_17_ClassicAlgPolicyERZ4mainE3$_0PNS_4pairINS_12basic_stringIcNS_11char_traitsIcEENS_9allocatorIcEEEEjEEEEjT1_SD_SD_T0_', symObjAddr: 0x43E18, symBinAddr: 0x10004718C, symSize: 0x66C }
  - { offsetInCU: 0x24851, offset: 0x24851, size: 0x8, addend: 0x0, symName: __ZNSt3__19iter_swapB8ue170006IPNS_4pairINS_12basic_stringIcNS_11char_traitsIcEENS_9allocatorIcEEEEjEES9_EEvT_T0_, symObjAddr: 0x47888, symBinAddr: 0x10004ABFC, symSize: 0x2C }
  - { offsetInCU: 0x24899, offset: 0x24899, size: 0x8, addend: 0x0, symName: __ZNSt3__14swapB8ue170006INS_12basic_stringIcNS_11char_traitsIcEENS_9allocatorIcEEEEjEENS_9enable_ifIXaasr14__is_swappableIT_EE5valuesr14__is_swappableIT0_EE5valueEvE4typeERNS_4pairIS8_S9_EESE_, symObjAddr: 0x478B4, symBinAddr: 0x10004AC28, symSize: 0x2C }
  - { offsetInCU: 0x248E8, offset: 0x248E8, size: 0x8, addend: 0x0, symName: __ZNSt3__14swapB8ue170006IcNS_11char_traitsIcEENS_9allocatorIcEEEEvRNS_12basic_stringIT_T0_T1_EESA_, symObjAddr: 0x47924, symBinAddr: 0x10004AC98, symSize: 0x2C }
  - { offsetInCU: 0x2493C, offset: 0x2493C, size: 0x8, addend: 0x0, symName: __ZNSt3__14swapB8ue170006IjEENS_9enable_ifIXaasr21is_move_constructibleIT_EE5valuesr18is_move_assignableIS2_EE5valueEvE4typeERS2_S5_, symObjAddr: 0x47950, symBinAddr: 0x10004ACC4, symSize: 0x1D4 }
  - { offsetInCU: 0x2498D, offset: 0x2498D, size: 0x8, addend: 0x0, symName: __ZNSt3__14swapB8ue170006INS_12basic_stringIcNS_11char_traitsIcEENS_9allocatorIcEEE5__repEEENS_9enable_ifIXaasr21is_move_constructibleIT_EE5valuesr18is_move_assignableIS9_EE5valueEvE4typeERS9_SC_, symObjAddr: 0x47B88, symBinAddr: 0x10004AEFC, symSize: 0x234 }
  - { offsetInCU: 0x249E4, offset: 0x249E4, size: 0x8, addend: 0x0, symName: __ZNSt3__116__swap_allocatorB8ue170006INS_9allocatorIcEEEEvRT_S4_, symObjAddr: 0x47DBC, symBinAddr: 0x10004B130, symSize: 0x2C }
  - { offsetInCU: 0x24A24, offset: 0x24A24, size: 0x8, addend: 0x0, symName: __ZNSt3__116__swap_allocatorB8ue170006INS_9allocatorIcEEEEvRT_S4_NS_17integral_constantIbLb0EEE, symObjAddr: 0x47DE8, symBinAddr: 0x10004B15C, symSize: 0x14 }
  - { offsetInCU: 0x24A68, offset: 0x24A68, size: 0x8, addend: 0x0, symName: '__ZNSt3__17__sort4B8ue170006INS_17_ClassicAlgPolicyERZ4mainE3$_0PNS_4pairINS_12basic_stringIcNS_11char_traitsIcEENS_9allocatorIcEEEEjEEEEvT1_SD_SD_SD_T0_', symObjAddr: 0x47DFC, symBinAddr: 0x10004B170, symSize: 0x5D4 }
  - { offsetInCU: 0x24AF5, offset: 0x24AF5, size: 0x8, addend: 0x0, symName: '__ZNSt3__17__sort5B8ue170006INS_17_ClassicAlgPolicyERZ4mainE3$_0PNS_4pairINS_12basic_stringIcNS_11char_traitsIcEENS_9allocatorIcEEEEjEEEEvT1_SD_SD_SD_SD_T0_', symObjAddr: 0x483D0, symBinAddr: 0x10004B744, symSize: 0x714 }
  - { offsetInCU: 0x24BBA, offset: 0x24BBA, size: 0x8, addend: 0x0, symName: __ZNSt3__123__debug_randomize_rangeB8ue170006INS_17_ClassicAlgPolicyEPNS_4pairINS_12basic_stringIcNS_11char_traitsIcEENS_9allocatorIcEEEEjEESA_EEvT0_T1_, symObjAddr: 0x48DD0, symBinAddr: 0x10004C144, symSize: 0x14 }
  - { offsetInCU: 0x24C0B, offset: 0x24C0B, size: 0x8, addend: 0x0, symName: '__ZNSt3__119__partial_sort_implB8ue170006INS_17_ClassicAlgPolicyERZ4mainE3$_0PNS_4pairINS_12basic_stringIcNS_11char_traitsIcEENS_9allocatorIcEEEEjEESC_EET1_SD_SD_T2_OT0_', symObjAddr: 0x48DE4, symBinAddr: 0x10004C158, symSize: 0x59C }
  - { offsetInCU: 0x24CAD, offset: 0x24CAD, size: 0x8, addend: 0x0, symName: '__ZNSt3__111__make_heapB8ue170006INS_17_ClassicAlgPolicyERZ4mainE3$_0PNS_4pairINS_12basic_stringIcNS_11char_traitsIcEENS_9allocatorIcEEEEjEEEEvT1_SD_OT0_', symObjAddr: 0x49380, symBinAddr: 0x10004C6F4, symSize: 0xBC }
  - { offsetInCU: 0x24D4F, offset: 0x24D4F, size: 0x8, addend: 0x0, symName: '__ZNSt3__111__sort_heapB8ue170006INS_17_ClassicAlgPolicyERZ4mainE3$_0PNS_4pairINS_12basic_stringIcNS_11char_traitsIcEENS_9allocatorIcEEEEjEEEEvT1_SD_OT0_', symObjAddr: 0x49CB4, symBinAddr: 0x10004D028, symSize: 0xAC }
  - { offsetInCU: 0x24DF1, offset: 0x24DF1, size: 0x8, addend: 0x0, symName: '__ZNSt3__110__pop_heapB8ue170006INS_17_ClassicAlgPolicyEZ4mainE3$_0PNS_4pairINS_12basic_stringIcNS_11char_traitsIcEENS_9allocatorIcEEEEjEEEEvT1_SC_RT0_NS_15iterator_traitsISC_E15difference_typeE', symObjAddr: 0x49D60, symBinAddr: 0x10004D0D4, symSize: 0x558 }
  - { offsetInCU: 0x24EA9, offset: 0x24EA9, size: 0x8, addend: 0x0, symName: '__ZNSt3__19__sift_upB8ue170006INS_17_ClassicAlgPolicyERZ4mainE3$_0PNS_4pairINS_12basic_stringIcNS_11char_traitsIcEENS_9allocatorIcEEEEjEEEEvT1_SD_OT0_NS_15iterator_traitsISD_E15difference_typeE', symObjAddr: 0x4A684, symBinAddr: 0x10004D9F8, symSize: 0x63C }
  - { offsetInCU: 0x24F58, offset: 0x24F58, size: 0x8, addend: 0x0, symName: '__ZNSt3__122__populate_left_bitsetB8ue170006IRZ4mainE3$_0PNS_4pairINS_12basic_stringIcNS_11char_traitsIcEENS_9allocatorIcEEEEjEESA_EEvT0_T_RT1_Ry', symObjAddr: 0x4ACC0, symBinAddr: 0x10004E034, symSize: 0xF8 }
  - { offsetInCU: 0x25013, offset: 0x25013, size: 0x8, addend: 0x0, symName: '__ZNSt3__123__populate_right_bitsetB8ue170006IRZ4mainE3$_0PNS_4pairINS_12basic_stringIcNS_11char_traitsIcEENS_9allocatorIcEEEEjEESA_EEvT0_T_RT1_Ry', symObjAddr: 0x4ADB8, symBinAddr: 0x10004E12C, symSize: 0xF4 }
  - { offsetInCU: 0x250CE, offset: 0x250CE, size: 0x8, addend: 0x0, symName: __ZNSt3__117__swap_bitmap_posB8ue170006INS_17_ClassicAlgPolicyEPNS_4pairINS_12basic_stringIcNS_11char_traitsIcEENS_9allocatorIcEEEEjEEEEvT0_SB_RySC_, symObjAddr: 0x4AEAC, symBinAddr: 0x10004E220, symSize: 0x518 }
  - { offsetInCU: 0x25175, offset: 0x25175, size: 0x8, addend: 0x0, symName: '__ZNSt3__133__bitset_partition_partial_blocksB8ue170006INS_17_ClassicAlgPolicyERZ4mainE3$_0PNS_4pairINS_12basic_stringIcNS_11char_traitsIcEENS_9allocatorIcEEEEjEESB_EEvRT1_SE_T0_RT2_RySI_', symObjAddr: 0x4B3C4, symBinAddr: 0x10004E738, symSize: 0x6AC }
  - { offsetInCU: 0x252FE, offset: 0x252FE, size: 0x8, addend: 0x0, symName: __ZNSt3__19make_pairB8ue170006IRPNS_4pairINS_12basic_stringIcNS_11char_traitsIcEENS_9allocatorIcEEEEjEERbEENS1_INS_18__unwrap_ref_decayIT_E4typeENSC_IT0_E4typeEEEOSD_OSG_, symObjAddr: 0x4C228, symBinAddr: 0x10004F59C, symSize: 0x20C }
  - { offsetInCU: 0x25350, offset: 0x25350, size: 0x8, addend: 0x0, symName: __ZNSt3__112__libcpp_ctzB8ue170006Ey, symObjAddr: 0x4C434, symBinAddr: 0x10004F7A8, symSize: 0x20 }
  - { offsetInCU: 0x2537D, offset: 0x2537D, size: 0x8, addend: 0x0, symName: __ZNSt3__113__libcpp_blsrB8ue170006Ey, symObjAddr: 0x4C454, symBinAddr: 0x10004F7C8, symSize: 0x2C }
  - { offsetInCU: 0x253AA, offset: 0x253AA, size: 0x8, addend: 0x0, symName: __ZNSt3__112__libcpp_clzB8ue170006Ey, symObjAddr: 0x4C530, symBinAddr: 0x10004F8A4, symSize: 0x1C }
  - { offsetInCU: 0x254FD, offset: 0x254FD, size: 0x8, addend: 0x0, symName: __ZNSt3__112__to_addressB8ue170006INS_11__wrap_iterIPNS_4pairINS_12basic_stringIcNS_11char_traitsIcEENS_9allocatorIcEEEEjEEEEvEEu7__decayIDTclsr19__to_address_helperIT_EE6__callclsr3stdE7declvalIRKSC_EEEEESE_, symObjAddr: 0x4C900, symBinAddr: 0x10004FC74, symSize: 0x24 }
  - { offsetInCU: 0x2559B, offset: 0x2559B, size: 0x8, addend: 0x0, symName: __ZNSt3__116__pad_and_outputB8ue170006IcNS_11char_traitsIcEEEENS_19ostreambuf_iteratorIT_T0_EES6_PKS4_S8_S8_RNS_8ios_baseES4_, symObjAddr: 0x4EB40, symBinAddr: 0x100051EB4, symSize: 0x760 }
  - { offsetInCU: 0x25679, offset: 0x25679, size: 0x8, addend: 0x0, symName: __ZNSt3__112__to_addressB8ue170006IcEEPT_S2_, symObjAddr: 0x4F9DC, symBinAddr: 0x100052D50, symSize: 0x14 }
  - { offsetInCU: 0x256AE, offset: 0x256AE, size: 0x8, addend: 0x0, symName: __ZNSt3__19use_facetB8ue170006INS_5ctypeIcEEEERKT_RKNS_6localeE, symObjAddr: 0x4FE58, symBinAddr: 0x1000531CC, symSize: 0x2C }
  - { offsetInCU: 0x25B7B, offset: 0x25B7B, size: 0x8, addend: 0x0, symName: __ZNSt3__1lsB8ue170006INS_11char_traitsIcEEEERNS_13basic_ostreamIcT_EES6_c, symObjAddr: 0x5692C, symBinAddr: 0x100059CA0, symSize: 0x220 }
  - { offsetInCU: 0x25BC7, offset: 0x25BC7, size: 0x8, addend: 0x0, symName: __ZNSt3__127__throw_bad_optional_accessB8ue170006Ev, symObjAddr: 0x56FF0, symBinAddr: 0x10005A364, symSize: 0x4C }
  - { offsetInCU: 0x25BE1, offset: 0x25BE1, size: 0x8, addend: 0x0, symName: __ZNSt3__110to_addressB8ue170006IcEEDaPT_, symObjAddr: 0x5C52C, symBinAddr: 0x10005F8A0, symSize: 0x24 }
  - { offsetInCU: 0x25C17, offset: 0x25C17, size: 0x8, addend: 0x0, symName: __ZNSt3__120__throw_out_of_rangeB8ue170006EPKc, symObjAddr: 0x5F940, symBinAddr: 0x100062CB4, symSize: 0x68 }
  - { offsetInCU: 0x25C41, offset: 0x25C41, size: 0x8, addend: 0x0, symName: __ZNSt3__1lsB8ue170006IcNS_11char_traitsIcEEEERNS_13basic_ostreamIT_T0_EES7_NS_17basic_string_viewIS4_S5_EE, symObjAddr: 0x687CC, symBinAddr: 0x10006BB40, symSize: 0x230 }
  - { offsetInCU: 0x25C95, offset: 0x25C95, size: 0x8, addend: 0x0, symName: __ZNSt3__17getlineB8ue170006IcNS_11char_traitsIcEENS_9allocatorIcEEEERNS_13basic_istreamIT_T0_EES9_RNS_12basic_stringIS6_S7_T1_EES6_, symObjAddr: 0x6F888, symBinAddr: 0x100072BFC, symSize: 0x688 }
  - { offsetInCU: 0x25D99, offset: 0x25D99, size: 0x8, addend: 0x0, symName: __ZNSt3__110destroy_atB8ue170006INS_4pairIKNS_12basic_stringIcNS_11char_traitsIcEENS_9allocatorIcEEEEjEELi0EEEvPT_, symObjAddr: 0x71BE4, symBinAddr: 0x100074F58, symSize: 0x24 }
  - { offsetInCU: 0x25DD0, offset: 0x25DD0, size: 0x8, addend: 0x0, symName: __ZNSt3__112__destroy_atB8ue170006INS_4pairIKNS_12basic_stringIcNS_11char_traitsIcEENS_9allocatorIcEEEEjEELi0EEEvPT_, symObjAddr: 0x71C08, symBinAddr: 0x100074F7C, symSize: 0x24 }
  - { offsetInCU: 0x25E07, offset: 0x25E07, size: 0x8, addend: 0x0, symName: __ZNSt3__17launderB8ue170006INS_4pairIKNS_12basic_stringIcNS_11char_traitsIcEENS_9allocatorIcEEEEjEEEEPT_SB_, symObjAddr: 0x71CA8, symBinAddr: 0x10007501C, symSize: 0x24 }
  - { offsetInCU: 0x25E3F, offset: 0x25E3F, size: 0x8, addend: 0x0, symName: __ZNSt3__19__launderB8ue170006INS_4pairIKNS_12basic_stringIcNS_11char_traitsIcEENS_9allocatorIcEEEEjEEEEPT_SB_, symObjAddr: 0x71CCC, symBinAddr: 0x100075040, symSize: 0x14 }
  - { offsetInCU: 0x25EAE, offset: 0x25EAE, size: 0x8, addend: 0x0, symName: __ZNSt3__116forward_as_tupleB8ue170006IJRKNS_12basic_stringIcNS_11char_traitsIcEENS_9allocatorIcEEEEEEENS_5tupleIJDpOT_EEESC_, symObjAddr: 0x72EE8, symBinAddr: 0x10007625C, symSize: 0x1F8 }
  - { offsetInCU: 0x25EE9, offset: 0x25EE9, size: 0x8, addend: 0x0, symName: __ZNSt3__116forward_as_tupleB8ue170006IJEEENS_5tupleIJDpOT_EEES4_, symObjAddr: 0x730E0, symBinAddr: 0x100076454, symSize: 0x4 }
  - { offsetInCU: 0x25F0F, offset: 0x25F0F, size: 0x8, addend: 0x0, symName: __ZNSt3__116__constrain_hashB8ue170006Emm, symObjAddr: 0x731CC, symBinAddr: 0x100076540, symSize: 0x98 }
  - { offsetInCU: 0x25F4A, offset: 0x25F4A, size: 0x8, addend: 0x0, symName: __ZNSt3__116__is_hash_power2B8ue170006Em, symObjAddr: 0x73854, symBinAddr: 0x100076BC8, symSize: 0x50 }
  - { offsetInCU: 0x25F76, offset: 0x25F76, size: 0x8, addend: 0x0, symName: __ZNSt3__116__do_string_hashB8ue170006IPKcEEmT_S3_, symObjAddr: 0x73BB4, symBinAddr: 0x100076F28, symSize: 0x1EC }
  - { offsetInCU: 0x25FBE, offset: 0x25FBE, size: 0x8, addend: 0x0, symName: __ZNSt3__110__loadwordB8ue170006ImEET_PKv, symObjAddr: 0x75264, symBinAddr: 0x1000785D8, symSize: 0x214 }
  - { offsetInCU: 0x26006, offset: 0x26006, size: 0x8, addend: 0x0, symName: __ZNSt3__14swapB8ue170006ImEENS_9enable_ifIXaasr21is_move_constructibleIT_EE5valuesr18is_move_assignableIS2_EE5valueEvE4typeERS2_S5_, symObjAddr: 0x75900, symBinAddr: 0x100078C74, symSize: 0x134 }
  - { offsetInCU: 0x26057, offset: 0x26057, size: 0x8, addend: 0x0, symName: __ZNSt3__110__loadwordB8ue170006IjEET_PKv, symObjAddr: 0x75A88, symBinAddr: 0x100078DFC, symSize: 0x240 }
  - { offsetInCU: 0x2609F, offset: 0x2609F, size: 0x8, addend: 0x0, symName: __ZNSt3__17launderB8ue170006IKNS_4pairIKNS_12basic_stringIcNS_11char_traitsIcEENS_9allocatorIcEEEEjEEEEPT_SC_, symObjAddr: 0x763A0, symBinAddr: 0x100079714, symSize: 0x24 }
  - { offsetInCU: 0x260D7, offset: 0x260D7, size: 0x8, addend: 0x0, symName: __ZNSt3__19__launderB8ue170006IKNS_4pairIKNS_12basic_stringIcNS_11char_traitsIcEENS_9allocatorIcEEEEjEEEEPT_SC_, symObjAddr: 0x763C4, symBinAddr: 0x100079738, symSize: 0x14 }
  - { offsetInCU: 0x26153, offset: 0x26153, size: 0x8, addend: 0x0, symName: __ZNSt3__112construct_atB8ue170006INS_4pairIKNS_12basic_stringIcNS_11char_traitsIcEENS_9allocatorIcEEEEjEEJRKNS_21piecewise_construct_tENS_5tupleIJRS8_EEENSD_IJEEEEPS9_EEPT_SJ_DpOT0_, symObjAddr: 0x769EC, symBinAddr: 0x100079D60, symSize: 0x21C }
  - { offsetInCU: 0x261FC, offset: 0x261FC, size: 0x8, addend: 0x0, symName: __ZNSt3__13getB8ue170006ILm0EJRKNS_12basic_stringIcNS_11char_traitsIcEENS_9allocatorIcEEEEEEERNS_13tuple_elementIXT_ENS_5tupleIJDpT0_EEEE4typeERSD_, symObjAddr: 0x76F2C, symBinAddr: 0x10007A2A0, symSize: 0x24 }
  - { offsetInCU: 0x2623F, offset: 0x2623F, size: 0x8, addend: 0x0, symName: __ZNSt3__116__next_hash_pow2B8ue170006Em, symObjAddr: 0x77D88, symBinAddr: 0x10007B0FC, symSize: 0x6C }
  - { offsetInCU: 0x262E1, offset: 0x262E1, size: 0x8, addend: 0x0, symName: __ZNSt3__1eqB8ue170006ERKNS_15__hash_iteratorIPNS_11__hash_nodeINS_17__hash_value_typeINS_12basic_stringIcNS_11char_traitsIcEENS_9allocatorIcEEEEjEEPvEEEESF_, symObjAddr: 0x78DFC, symBinAddr: 0x10007C170, symSize: 0xB8 }
  - { offsetInCU: 0x263A2, offset: 0x263A2, size: 0x8, addend: 0x0, symName: __ZNSt3__110destroy_atB8ue170006INS_4pairIKNS_12basic_stringIcNS_11char_traitsIcEENS_9allocatorIcEEEE4DataEELi0EEEvPT_, symObjAddr: 0x8A050, symBinAddr: 0x10008D3C4, symSize: 0x24 }
  - { offsetInCU: 0x263D9, offset: 0x263D9, size: 0x8, addend: 0x0, symName: __ZNSt3__112__destroy_atB8ue170006INS_4pairIKNS_12basic_stringIcNS_11char_traitsIcEENS_9allocatorIcEEEE4DataEELi0EEEvPT_, symObjAddr: 0x8A074, symBinAddr: 0x10008D3E8, symSize: 0x24 }
  - { offsetInCU: 0x26410, offset: 0x26410, size: 0x8, addend: 0x0, symName: __ZNSt3__17launderB8ue170006INS_4pairIKNS_12basic_stringIcNS_11char_traitsIcEENS_9allocatorIcEEEE4DataEEEEPT_SC_, symObjAddr: 0x8A120, symBinAddr: 0x10008D494, symSize: 0x24 }
  - { offsetInCU: 0x26448, offset: 0x26448, size: 0x8, addend: 0x0, symName: __ZNSt3__19__launderB8ue170006INS_4pairIKNS_12basic_stringIcNS_11char_traitsIcEENS_9allocatorIcEEEE4DataEEEEPT_SC_, symObjAddr: 0x8A144, symBinAddr: 0x10008D4B8, symSize: 0x14 }
  - { offsetInCU: 0x264B2, offset: 0x264B2, size: 0x8, addend: 0x0, symName: __ZNSt3__1eqB8ue170006ERKNS_21__hash_const_iteratorIPNS_11__hash_nodeINS_12basic_stringIcNS_11char_traitsIcEENS_9allocatorIcEEEEPvEEEESD_, symObjAddr: 0x8B884, symBinAddr: 0x10008EBF8, symSize: 0xB8 }
  - { offsetInCU: 0x26513, offset: 0x26513, size: 0x8, addend: 0x0, symName: __ZNSt3__17launderB8ue170006IKNS_4pairIKNS_12basic_stringIcNS_11char_traitsIcEENS_9allocatorIcEEEE4DataEEEEPT_SD_, symObjAddr: 0x8D40C, symBinAddr: 0x100090780, symSize: 0x24 }
  - { offsetInCU: 0x2654B, offset: 0x2654B, size: 0x8, addend: 0x0, symName: __ZNSt3__19__launderB8ue170006IKNS_4pairIKNS_12basic_stringIcNS_11char_traitsIcEENS_9allocatorIcEEEE4DataEEEEPT_SD_, symObjAddr: 0x8D430, symBinAddr: 0x1000907A4, symSize: 0x14 }
  - { offsetInCU: 0x265C7, offset: 0x265C7, size: 0x8, addend: 0x0, symName: __ZNSt3__112construct_atB8ue170006INS_4pairIKNS_12basic_stringIcNS_11char_traitsIcEENS_9allocatorIcEEEE4DataEEJRS8_S9_EPSA_EEPT_SE_DpOT0_, symObjAddr: 0x8DA50, symBinAddr: 0x100090DC4, symSize: 0x44 }
  - { offsetInCU: 0x26670, offset: 0x26670, size: 0x8, addend: 0x0, symName: __ZNSt3__1ltB8ue170006ENS_15strong_orderingENS_20_CmpUnspecifiedParamE, symObjAddr: 0x90F6C, symBinAddr: 0x1000942E0, symSize: 0x274 }
  - { offsetInCU: 0x266AF, offset: 0x266AF, size: 0x8, addend: 0x0, symName: __ZNSt3__1ssB8ue170006IcNS_11char_traitsIcEENS_9allocatorIcEEEEDaRKNS_12basic_stringIT_T0_T1_EESC_, symObjAddr: 0x911E0, symBinAddr: 0x100094554, symSize: 0x3AC }
  - { offsetInCU: 0x26725, offset: 0x26725, size: 0x8, addend: 0x0, symName: __ZNSt3__1ssB8ue170006IcNS_11char_traitsIcEEEEDaNS_17basic_string_viewIT_T0_EES7_, symObjAddr: 0x915C0, symBinAddr: 0x100094934, symSize: 0x3E8 }
  - { offsetInCU: 0x2679A, offset: 0x2679A, size: 0x8, addend: 0x0, symName: __ZNSt3__127__tree_balance_after_insertB8ue170006IPNS_16__tree_node_baseIPvEEEEvT_S5_, symObjAddr: 0x920AC, symBinAddr: 0x100095420, symSize: 0x960 }
  - { offsetInCU: 0x2680E, offset: 0x2680E, size: 0x8, addend: 0x0, symName: __ZNSt3__120__tree_is_left_childB8ue170006IPNS_16__tree_node_baseIPvEEEEbT_, symObjAddr: 0x92A98, symBinAddr: 0x100095E0C, symSize: 0xB8 }
  - { offsetInCU: 0x26843, offset: 0x26843, size: 0x8, addend: 0x0, symName: __ZNSt3__118__tree_left_rotateB8ue170006IPNS_16__tree_node_baseIPvEEEEvT_, symObjAddr: 0x92B50, symBinAddr: 0x100095EC4, symSize: 0x374 }
  - { offsetInCU: 0x26885, offset: 0x26885, size: 0x8, addend: 0x0, symName: __ZNSt3__119__tree_right_rotateB8ue170006IPNS_16__tree_node_baseIPvEEEEvT_, symObjAddr: 0x92EC4, symBinAddr: 0x100096238, symSize: 0x354 }
  - { offsetInCU: 0x268C7, offset: 0x268C7, size: 0x8, addend: 0x0, symName: __ZNSt3__1gtB8ue170006ENS_15strong_orderingENS_20_CmpUnspecifiedParamE, symObjAddr: 0x97AFC, symBinAddr: 0x10009AE70, symSize: 0x274 }
  - { offsetInCU: 0x26906, offset: 0x26906, size: 0x8, addend: 0x0, symName: __ZNSt3__1eqB8ue170006ERKNS_15__hash_iteratorIPNS_11__hash_nodeINS_17__hash_value_typeINS_12basic_stringIcNS_11char_traitsIcEENS_9allocatorIcEEEE4DataEEPvEEEESG_, symObjAddr: 0x98B54, symBinAddr: 0x10009BEC8, symSize: 0xB8 }
  - { offsetInCU: 0x26943, offset: 0x26943, size: 0x8, addend: 0x0, symName: __ZNSt3__1neB8ue170006ERKNS_15__tree_iteratorINS_12__value_typeINS_12basic_stringIcNS_11char_traitsIcEENS_9allocatorIcEEEE4DataEEPNS_11__tree_nodeIS9_PvEElEESG_, symObjAddr: 0x9976C, symBinAddr: 0x10009CAE0, symSize: 0x34 }
  - { offsetInCU: 0x26980, offset: 0x26980, size: 0x8, addend: 0x0, symName: __ZNSt3__1eqB8ue170006ERKNS_15__tree_iteratorINS_12__value_typeINS_12basic_stringIcNS_11char_traitsIcEENS_9allocatorIcEEEE4DataEEPNS_11__tree_nodeIS9_PvEElEESG_, symObjAddr: 0x99A70, symBinAddr: 0x10009CDE4, symSize: 0xB8 }
  - { offsetInCU: 0x269BD, offset: 0x269BD, size: 0x8, addend: 0x0, symName: __ZNSt3__113__tree_removeB8ue170006IPNS_16__tree_node_baseIPvEEEEvT_S5_, symObjAddr: 0x9C2A0, symBinAddr: 0x10009F614, symSize: 0x1ED4 }
  - { offsetInCU: 0x26A3B, offset: 0x26A3B, size: 0x8, addend: 0x0, symName: __ZNSt3__116__tree_next_iterB8ue170006IPNS_15__tree_end_nodeIPNS_16__tree_node_baseIPvEEEES5_EET_T0_, symObjAddr: 0x9E174, symBinAddr: 0x1000A14E8, symSize: 0x134 }
  - { offsetInCU: 0x26A79, offset: 0x26A79, size: 0x8, addend: 0x0, symName: __ZNSt3__110__tree_minB8ue170006IPNS_16__tree_node_baseIPvEEEET_S5_, symObjAddr: 0x9E2A8, symBinAddr: 0x1000A161C, symSize: 0xC4 }
  - { offsetInCU: 0x26AAE, offset: 0x26AAE, size: 0x8, addend: 0x0, symName: __ZNSt3__111__tree_nextB8ue170006IPNS_16__tree_node_baseIPvEEEET_S5_, symObjAddr: 0x9E36C, symBinAddr: 0x1000A16E0, symSize: 0xFC }
  - { offsetInCU: 0x2723C, offset: 0x2723C, size: 0x8, addend: 0x0, symName: __ZSt28__throw_bad_array_new_lengthB8ue170006v, symObjAddr: 0x37738, symBinAddr: 0x10003AAAC, symSize: 0x38 }
  - { offsetInCU: 0x276E3, offset: 0x276E3, size: 0x8, addend: 0x0, symName: __ZN9SplayTreeIcPN14FlashRadixTreeINSt3__112basic_stringIcNS1_11char_traitsIcEENS1_9allocatorIcEEEEiL9MatchMode1EE18FlashRadixTreeNodeEE7_insertEcSB_PNSC_5splayE, symObjAddr: 0x53388, symBinAddr: 0x1000566FC, symSize: 0x3BC }
  - { offsetInCU: 0x27708, offset: 0x27708, size: 0x8, addend: 0x0, symName: __ZZN9SplayTreeIcPN14FlashRadixTreeINSt3__112basic_stringIcNS1_11char_traitsIcEENS1_9allocatorIcEEEEiL9MatchMode1EE18FlashRadixTreeNodeEE7_insertEcSB_PNSC_5splayEE6p_node, symObjAddr: 0xA6340, symBinAddr: 0x1000CC000, symSize: 0x0 }
  - { offsetInCU: 0x27773, offset: 0x27773, size: 0x8, addend: 0x0, symName: _.str.125, symObjAddr: 0xA5F60, symBinAddr: 0x1000AA580, symSize: 0x0 }
  - { offsetInCU: 0x27785, offset: 0x27785, size: 0x8, addend: 0x0, symName: _.str.126, symObjAddr: 0xA5F80, symBinAddr: 0x1000AA5A0, symSize: 0x0 }
  - { offsetInCU: 0x27797, offset: 0x27797, size: 0x8, addend: 0x0, symName: _.str.127, symObjAddr: 0xA5FA0, symBinAddr: 0x1000AA5C0, symSize: 0x0 }
  - { offsetInCU: 0x277A9, offset: 0x277A9, size: 0x8, addend: 0x0, symName: _.str.128, symObjAddr: 0xA5FC0, symBinAddr: 0x1000AA5E0, symSize: 0x0 }
  - { offsetInCU: 0x277BB, offset: 0x277BB, size: 0x8, addend: 0x0, symName: _.str.129, symObjAddr: 0xA5FE0, symBinAddr: 0x1000AA600, symSize: 0x0 }
  - { offsetInCU: 0x277CD, offset: 0x277CD, size: 0x8, addend: 0x0, symName: _.str.130, symObjAddr: 0xA6000, symBinAddr: 0x1000AA620, symSize: 0x0 }
  - { offsetInCU: 0x277DF, offset: 0x277DF, size: 0x8, addend: 0x0, symName: _.str.131, symObjAddr: 0xA6020, symBinAddr: 0x1000AA640, symSize: 0x0 }
  - { offsetInCU: 0x277F1, offset: 0x277F1, size: 0x8, addend: 0x0, symName: _.str.132, symObjAddr: 0xA6040, symBinAddr: 0x1000AA660, symSize: 0x0 }
  - { offsetInCU: 0x27803, offset: 0x27803, size: 0x8, addend: 0x0, symName: _.str.133, symObjAddr: 0xA6060, symBinAddr: 0x1000AA680, symSize: 0x0 }
  - { offsetInCU: 0x27815, offset: 0x27815, size: 0x8, addend: 0x0, symName: _.str.134, symObjAddr: 0xA6080, symBinAddr: 0x1000AA6A0, symSize: 0x0 }
  - { offsetInCU: 0x27827, offset: 0x27827, size: 0x8, addend: 0x0, symName: _.str.135, symObjAddr: 0xA60A0, symBinAddr: 0x1000AA6C0, symSize: 0x0 }
  - { offsetInCU: 0x27839, offset: 0x27839, size: 0x8, addend: 0x0, symName: _.str.136, symObjAddr: 0xA60C0, symBinAddr: 0x1000AA6E0, symSize: 0x0 }
  - { offsetInCU: 0x2784B, offset: 0x2784B, size: 0x8, addend: 0x0, symName: _.str.137, symObjAddr: 0xA60E0, symBinAddr: 0x1000AA700, symSize: 0x0 }
  - { offsetInCU: 0x2785D, offset: 0x2785D, size: 0x8, addend: 0x0, symName: _.str.138, symObjAddr: 0xA6100, symBinAddr: 0x1000AA720, symSize: 0x0 }
  - { offsetInCU: 0x2786F, offset: 0x2786F, size: 0x8, addend: 0x0, symName: _.str.139, symObjAddr: 0xA6120, symBinAddr: 0x1000AA740, symSize: 0x0 }
  - { offsetInCU: 0x27881, offset: 0x27881, size: 0x8, addend: 0x0, symName: _.str.140, symObjAddr: 0xA6140, symBinAddr: 0x1000AA760, symSize: 0x0 }
  - { offsetInCU: 0x288FF, offset: 0x288FF, size: 0x8, addend: 0x0, symName: __ZN9SplayTreeIcPN14FlashRadixTreeINSt3__117basic_string_viewIcNS1_11char_traitsIcEEEEiL9MatchMode1EE18FlashRadixTreeNodeEE7_insertEcS9_PNSA_5splayE, symObjAddr: 0x65C20, symBinAddr: 0x100068F94, symSize: 0x3BC }
  - { offsetInCU: 0x28924, offset: 0x28924, size: 0x8, addend: 0x0, symName: __ZZN9SplayTreeIcPN14FlashRadixTreeINSt3__117basic_string_viewIcNS1_11char_traitsIcEEEEiL9MatchMode1EE18FlashRadixTreeNodeEE7_insertEcS9_PNSA_5splayEE6p_node, symObjAddr: 0xA6348, symBinAddr: 0x1000CC008, symSize: 0x0 }
  - { offsetInCU: 0x29971, offset: 0x29971, size: 0x8, addend: 0x0, symName: __ZN9SplayTreeIcPN14FlashRadixTreeINSt3__112basic_stringIcNS1_11char_traitsIcEENS1_9allocatorIcEEEEiL9MatchMode0EE18FlashRadixTreeNodeEE7_insertEcSB_PNSC_5splayE, symObjAddr: 0x6DD94, symBinAddr: 0x100071108, symSize: 0x3BC }
  - { offsetInCU: 0x29996, offset: 0x29996, size: 0x8, addend: 0x0, symName: __ZZN9SplayTreeIcPN14FlashRadixTreeINSt3__112basic_stringIcNS1_11char_traitsIcEENS1_9allocatorIcEEEEiL9MatchMode0EE18FlashRadixTreeNodeEE7_insertEcSB_PNSC_5splayEE6p_node, symObjAddr: 0xA6350, symBinAddr: 0x1000CC010, symSize: 0x0 }
  - { offsetInCU: 0x2AA9F, offset: 0x2AA9F, size: 0x8, addend: 0x0, symName: __ZN9SplayTreeIcPN14FlashRadixTreeINSt3__112basic_stringIcNS1_11char_traitsIcEENS1_9allocatorIcEEEE4DataL9MatchMode0EE18FlashRadixTreeNodeEE7_insertEcSC_PNSD_5splayE, symObjAddr: 0x94390, symBinAddr: 0x100097704, symSize: 0x3BC }
  - { offsetInCU: 0x2AAC4, offset: 0x2AAC4, size: 0x8, addend: 0x0, symName: __ZZN9SplayTreeIcPN14FlashRadixTreeINSt3__112basic_stringIcNS1_11char_traitsIcEENS1_9allocatorIcEEEE4DataL9MatchMode0EE18FlashRadixTreeNodeEE7_insertEcSC_PNSD_5splayEE6p_node, symObjAddr: 0xA6358, symBinAddr: 0x1000CC018, symSize: 0x0 }
  - { offsetInCU: 0x2BB11, offset: 0x2BB11, size: 0x8, addend: 0x0, symName: __ZN9SplayTreeIcPN14FlashRadixTreeINSt3__112basic_stringIcNS1_11char_traitsIcEENS1_9allocatorIcEEEE4DataL9MatchMode1EE18FlashRadixTreeNodeEE7_insertEcSC_PNSD_5splayE, symObjAddr: 0x955D4, symBinAddr: 0x100098948, symSize: 0x3BC }
  - { offsetInCU: 0x2BB36, offset: 0x2BB36, size: 0x8, addend: 0x0, symName: __ZZN9SplayTreeIcPN14FlashRadixTreeINSt3__112basic_stringIcNS1_11char_traitsIcEENS1_9allocatorIcEEEE4DataL9MatchMode1EE18FlashRadixTreeNodeEE7_insertEcSC_PNSD_5splayEE6p_node, symObjAddr: 0xA6360, symBinAddr: 0x1000CC020, symSize: 0x0 }
  - { offsetInCU: 0x2C375, offset: 0x2C375, size: 0x8, addend: 0x0, symName: __ZN9SplayTreeINSt3__112basic_stringIcNS0_11char_traitsIcEENS0_9allocatorIcEEEE4DataE7_insertES6_S7_PNS8_5splayE, symObjAddr: 0x96328, symBinAddr: 0x10009969C, symSize: 0x5EC }
  - { offsetInCU: 0x2C39A, offset: 0x2C39A, size: 0x8, addend: 0x0, symName: __ZZN9SplayTreeINSt3__112basic_stringIcNS0_11char_traitsIcEENS0_9allocatorIcEEEE4DataE7_insertES6_S7_PNS8_5splayEE6p_node, symObjAddr: 0xA6368, symBinAddr: 0x1000CC028, symSize: 0x0 }
  - { offsetInCU: 0x2CD07, offset: 0x2CD07, size: 0x8, addend: 0x0, symName: __ZNSt3__16vectorINS_12basic_stringIcNS_11char_traitsIcEENS_9allocatorIcEEEENS4_IS6_EEE26__swap_out_circular_bufferERNS_14__split_bufferIS6_RS7_EE, symObjAddr: 0x36128, symBinAddr: 0x10003949C, symSize: 0x56C }
  - { offsetInCU: 0x304ED, offset: 0x304ED, size: 0x8, addend: 0x0, symName: __Z8RunTestsv, symObjAddr: 0x0, symBinAddr: 0x100003374, symSize: 0x11074 }
  - { offsetInCU: 0x3099B, offset: 0x3099B, size: 0x8, addend: 0x0, symName: __ZN14FlashRadixTreeINSt3__112basic_stringIcNS0_11char_traitsIcEENS0_9allocatorIcEEEEiL9MatchMode1EEC1Ev, symObjAddr: 0x110BC, symBinAddr: 0x100014430, symSize: 0x2C }
  - { offsetInCU: 0x309C5, offset: 0x309C5, size: 0x8, addend: 0x0, symName: __ZN14FlashRadixTreeINSt3__112basic_stringIcNS0_11char_traitsIcEENS0_9allocatorIcEEEEiL9MatchMode1EE6insertERKS6_Oi, symObjAddr: 0x110E8, symBinAddr: 0x10001445C, symSize: 0x1044 }
  - { offsetInCU: 0x30B53, offset: 0x30B53, size: 0x8, addend: 0x0, symName: __ZNSt3__112basic_stringIcNS_11char_traitsIcEENS_9allocatorIcEEEC1B8ue170006ILi0EEEPKc, symObjAddr: 0x1212C, symBinAddr: 0x1000154A0, symSize: 0x34 }
  - { offsetInCU: 0x30C20, offset: 0x30C20, size: 0x8, addend: 0x0, symName: __ZN24FlashRadixTreeSerializerINSt3__112basic_stringIcNS0_11char_traitsIcEENS0_9allocatorIcEEEEiL9MatchMode1EE9serializeERK14FlashRadixTreeIS6_iLS7_1EE, symObjAddr: 0x12160, symBinAddr: 0x1000154D4, symSize: 0x48 }
  - { offsetInCU: 0x30C55, offset: 0x30C55, size: 0x8, addend: 0x0, symName: __ZNSt3__113basic_ostreamIcNS_11char_traitsIcEEElsB8ue170006EPFRS3_S4_E, symObjAddr: 0x123DC, symBinAddr: 0x100015750, symSize: 0x2C }
  - { offsetInCU: 0x30C89, offset: 0x30C89, size: 0x8, addend: 0x0, symName: __ZNK14FlashRadixTreeINSt3__112basic_stringIcNS0_11char_traitsIcEENS0_9allocatorIcEEEEiL9MatchMode1EE5printEv, symObjAddr: 0x12528, symBinAddr: 0x10001589C, symSize: 0x298 }
  - { offsetInCU: 0x30CB0, offset: 0x30CB0, size: 0x8, addend: 0x0, symName: __ZN14FlashRadixTreeINSt3__112basic_stringIcNS0_11char_traitsIcEENS0_9allocatorIcEEEEiL9MatchMode1EE23XFlashRadixTreeIteratorILNS8_17IteratorDirectionE0EEaSERKSB_, symObjAddr: 0x127C0, symBinAddr: 0x100015B34, symSize: 0x268 }
  - { offsetInCU: 0x30CE4, offset: 0x30CE4, size: 0x8, addend: 0x0, symName: __ZNSt3__112basic_stringIcNS_11char_traitsIcEENS_9allocatorIcEEEaSB8ue170006EOS5_, symObjAddr: 0x12A28, symBinAddr: 0x100015D9C, symSize: 0x34 }
  - { offsetInCU: 0x30D19, offset: 0x30D19, size: 0x8, addend: 0x0, symName: __ZNSt3__112basic_stringIcNS_11char_traitsIcEENS_9allocatorIcEEEaSB8ue170006EPKc, symObjAddr: 0x12A5C, symBinAddr: 0x100015DD0, symSize: 0x2C }
  - { offsetInCU: 0x30D4E, offset: 0x30D4E, size: 0x8, addend: 0x0, symName: __ZNK14FlashRadixTreeINSt3__112basic_stringIcNS0_11char_traitsIcEENS0_9allocatorIcEEEEiL9MatchMode1EE4findERKS6_, symObjAddr: 0x12A88, symBinAddr: 0x100015DFC, symSize: 0x6C4 }
  - { offsetInCU: 0x30DE9, offset: 0x30DE9, size: 0x8, addend: 0x0, symName: __ZNK14FlashRadixTreeINSt3__112basic_stringIcNS0_11char_traitsIcEENS0_9allocatorIcEEEEiL9MatchMode1EE23XFlashRadixTreeIteratorILNS8_17IteratorDirectionE0EEeqERKSB_, symObjAddr: 0x1314C, symBinAddr: 0x1000164C0, symSize: 0x300 }
  - { offsetInCU: 0x30E1D, offset: 0x30E1D, size: 0x8, addend: 0x0, symName: __ZNK14FlashRadixTreeINSt3__112basic_stringIcNS0_11char_traitsIcEENS0_9allocatorIcEEEEiL9MatchMode1EE3endEv, symObjAddr: 0x1344C, symBinAddr: 0x1000167C0, symSize: 0x18 }
  - { offsetInCU: 0x30E43, offset: 0x30E43, size: 0x8, addend: 0x0, symName: __ZN14FlashRadixTreeINSt3__112basic_stringIcNS0_11char_traitsIcEENS0_9allocatorIcEEEEiL9MatchMode1EE23XFlashRadixTreeIteratorILNS8_17IteratorDirectionE0EEptEv, symObjAddr: 0x13464, symBinAddr: 0x1000167D8, symSize: 0x60 }
  - { offsetInCU: 0x30E69, offset: 0x30E69, size: 0x8, addend: 0x0, symName: __ZNK14FlashRadixTreeINSt3__112basic_stringIcNS0_11char_traitsIcEENS0_9allocatorIcEEEEiL9MatchMode1EE18FlashRadixTreeNode10getFullKeyEv, symObjAddr: 0x134C4, symBinAddr: 0x100016838, symSize: 0x208 }
  - { offsetInCU: 0x30F7C, offset: 0x30F7C, size: 0x8, addend: 0x0, symName: __ZNSt3__118basic_stringstreamIcNS_11char_traitsIcEENS_9allocatorIcEEEC1B8ue170006Ev, symObjAddr: 0x139B8, symBinAddr: 0x100016D2C, symSize: 0x240 }
  - { offsetInCU: 0x30FA6, offset: 0x30FA6, size: 0x8, addend: 0x0, symName: __ZNK14FlashRadixTreeINSt3__112basic_stringIcNS0_11char_traitsIcEENS0_9allocatorIcEEEEiL9MatchMode1EE5beginEv, symObjAddr: 0x13BF8, symBinAddr: 0x100016F6C, symSize: 0x80 }
  - { offsetInCU: 0x30FDB, offset: 0x30FDB, size: 0x8, addend: 0x0, symName: __ZN14FlashRadixTreeINSt3__112basic_stringIcNS0_11char_traitsIcEENS0_9allocatorIcEEEEiL9MatchMode1EE23XFlashRadixTreeIteratorILNS8_17IteratorDirectionE0EEC1ERKSB_, symObjAddr: 0x13C78, symBinAddr: 0x100016FEC, symSize: 0x34 }
  - { offsetInCU: 0x31013, offset: 0x31013, size: 0x8, addend: 0x0, symName: __ZNK14FlashRadixTreeINSt3__112basic_stringIcNS0_11char_traitsIcEENS0_9allocatorIcEEEEiL9MatchMode1EE23XFlashRadixTreeIteratorILNS8_17IteratorDirectionE0EEneERKSB_, symObjAddr: 0x13CAC, symBinAddr: 0x100017020, symSize: 0x34 }
  - { offsetInCU: 0x31047, offset: 0x31047, size: 0x8, addend: 0x0, symName: __ZN14FlashRadixTreeINSt3__112basic_stringIcNS0_11char_traitsIcEENS0_9allocatorIcEEEEiL9MatchMode1EE23XFlashRadixTreeIteratorILNS8_17IteratorDirectionE0EEdeEv, symObjAddr: 0x13CE0, symBinAddr: 0x100017054, symSize: 0x60 }
  - { offsetInCU: 0x3106D, offset: 0x3106D, size: 0x8, addend: 0x0, symName: __ZN14FlashRadixTreeINSt3__112basic_stringIcNS0_11char_traitsIcEENS0_9allocatorIcEEEEiL9MatchMode1EE23XFlashRadixTreeIteratorILNS8_17IteratorDirectionE0EEppEv, symObjAddr: 0x13D40, symBinAddr: 0x1000170B4, symSize: 0x2CC }
  - { offsetInCU: 0x31093, offset: 0x31093, size: 0x8, addend: 0x0, symName: __ZNKRSt3__118basic_stringstreamIcNS_11char_traitsIcEENS_9allocatorIcEEE3strB8ue170006Ev, symObjAddr: 0x1400C, symBinAddr: 0x100017380, symSize: 0x30 }
  - { offsetInCU: 0x310B9, offset: 0x310B9, size: 0x8, addend: 0x0, symName: __ZNSt3__118basic_stringstreamIcNS_11char_traitsIcEENS_9allocatorIcEEE3strB8ue170006EONS_12basic_stringIcS2_S4_EE, symObjAddr: 0x1403C, symBinAddr: 0x1000173B0, symSize: 0x30 }
  - { offsetInCU: 0x310EE, offset: 0x310EE, size: 0x8, addend: 0x0, symName: __ZNK14FlashRadixTreeINSt3__112basic_stringIcNS0_11char_traitsIcEENS0_9allocatorIcEEEEiL9MatchMode1EE6rbeginEv, symObjAddr: 0x1406C, symBinAddr: 0x1000173E0, symSize: 0x80 }
  - { offsetInCU: 0x31123, offset: 0x31123, size: 0x8, addend: 0x0, symName: __ZNK14FlashRadixTreeINSt3__112basic_stringIcNS0_11char_traitsIcEENS0_9allocatorIcEEEEiL9MatchMode1EE23XFlashRadixTreeIteratorILNS8_17IteratorDirectionE1EEneERKSB_, symObjAddr: 0x140EC, symBinAddr: 0x100017460, symSize: 0x34 }
  - { offsetInCU: 0x31157, offset: 0x31157, size: 0x8, addend: 0x0, symName: __ZNK14FlashRadixTreeINSt3__112basic_stringIcNS0_11char_traitsIcEENS0_9allocatorIcEEEEiL9MatchMode1EE4rendEv, symObjAddr: 0x14120, symBinAddr: 0x100017494, symSize: 0x18 }
  - { offsetInCU: 0x3117D, offset: 0x3117D, size: 0x8, addend: 0x0, symName: __ZN14FlashRadixTreeINSt3__112basic_stringIcNS0_11char_traitsIcEENS0_9allocatorIcEEEEiL9MatchMode1EE23XFlashRadixTreeIteratorILNS8_17IteratorDirectionE1EEptEv, symObjAddr: 0x14138, symBinAddr: 0x1000174AC, symSize: 0x60 }
  - { offsetInCU: 0x311A3, offset: 0x311A3, size: 0x8, addend: 0x0, symName: __ZN14FlashRadixTreeINSt3__112basic_stringIcNS0_11char_traitsIcEENS0_9allocatorIcEEEEiL9MatchMode1EE23XFlashRadixTreeIteratorILNS8_17IteratorDirectionE1EEppEv, symObjAddr: 0x14198, symBinAddr: 0x10001750C, symSize: 0x2CC }
  - { offsetInCU: 0x311C9, offset: 0x311C9, size: 0x8, addend: 0x0, symName: __ZN14FlashRadixTreeINSt3__112basic_stringIcNS0_11char_traitsIcEENS0_9allocatorIcEEEEiL9MatchMode1EE5eraseERKS6_, symObjAddr: 0x14464, symBinAddr: 0x1000177D8, symSize: 0x30 }
  - { offsetInCU: 0x311FE, offset: 0x311FE, size: 0x8, addend: 0x0, symName: __ZN14FlashRadixTreeINSt3__112basic_stringIcNS0_11char_traitsIcEENS0_9allocatorIcEEEEiL9MatchMode1EE5clearEv, symObjAddr: 0x14494, symBinAddr: 0x100017808, symSize: 0x100 }
  - { offsetInCU: 0x31224, offset: 0x31224, size: 0x8, addend: 0x0, symName: __ZN14FlashRadixTreeINSt3__117basic_string_viewIcNS0_11char_traitsIcEEEEiL9MatchMode1EEC1Ev, symObjAddr: 0x14594, symBinAddr: 0x100017908, symSize: 0x2C }
  - { offsetInCU: 0x3124E, offset: 0x3124E, size: 0x8, addend: 0x0, symName: __ZN14FlashRadixTreeINSt3__117basic_string_viewIcNS0_11char_traitsIcEEEEiL9MatchMode1EE6insertERKS4_Oi, symObjAddr: 0x145C0, symBinAddr: 0x100017934, symSize: 0x1084 }
  - { offsetInCU: 0x313D7, offset: 0x313D7, size: 0x8, addend: 0x0, symName: __ZNKSt3__112basic_stringIcNS_11char_traitsIcEENS_9allocatorIcEEEcvNS_17basic_string_viewIcS2_EEB8ue170006Ev, symObjAddr: 0x15644, symBinAddr: 0x1000189B8, symSize: 0x228 }
  - { offsetInCU: 0x313FE, offset: 0x313FE, size: 0x8, addend: 0x0, symName: __ZN14FlashRadixTreeINSt3__117basic_string_viewIcNS0_11char_traitsIcEEEEiL9MatchMode1EE23XFlashRadixTreeIteratorILNS6_17IteratorDirectionE0EEaSERKS9_, symObjAddr: 0x1586C, symBinAddr: 0x100018BE0, symSize: 0x268 }
  - { offsetInCU: 0x31432, offset: 0x31432, size: 0x8, addend: 0x0, symName: __ZN14FlashRadixTreeINSt3__117basic_string_viewIcNS0_11char_traitsIcEEEEiL9MatchMode1EE5eraseERKS4_, symObjAddr: 0x15AD4, symBinAddr: 0x100018E48, symSize: 0x30 }
  - { offsetInCU: 0x31467, offset: 0x31467, size: 0x8, addend: 0x0, symName: __ZNSt3__117basic_string_viewIcNS_11char_traitsIcEEEC1B8ue170006EPKc, symObjAddr: 0x15B04, symBinAddr: 0x100018E78, symSize: 0x34 }
  - { offsetInCU: 0x3152E, offset: 0x3152E, size: 0x8, addend: 0x0, symName: __ZN24FlashRadixTreeSerializerINSt3__117basic_string_viewIcNS0_11char_traitsIcEEEEiL9MatchMode1EE9serializeERK14FlashRadixTreeIS4_iLS5_1EE, symObjAddr: 0x15B38, symBinAddr: 0x100018EAC, symSize: 0x48 }
  - { offsetInCU: 0x31563, offset: 0x31563, size: 0x8, addend: 0x0, symName: __ZN14FlashRadixTreeINSt3__112basic_stringIcNS0_11char_traitsIcEENS0_9allocatorIcEEEEiL9MatchMode0EEC1Ev, symObjAddr: 0x15B80, symBinAddr: 0x100018EF4, symSize: 0x2C }
  - { offsetInCU: 0x3158D, offset: 0x3158D, size: 0x8, addend: 0x0, symName: __ZN14FlashRadixTreeINSt3__112basic_stringIcNS0_11char_traitsIcEENS0_9allocatorIcEEEEiL9MatchMode0EE6insertERKS6_Oi, symObjAddr: 0x15BAC, symBinAddr: 0x100018F20, symSize: 0x1044 }
  - { offsetInCU: 0x31716, offset: 0x31716, size: 0x8, addend: 0x0, symName: __ZN14FlashRadixTreeINSt3__112basic_stringIcNS0_11char_traitsIcEENS0_9allocatorIcEEEEiL9MatchMode0EE23XFlashRadixTreeIteratorILNS8_17IteratorDirectionE0EEaSERKSB_, symObjAddr: 0x16BF0, symBinAddr: 0x100019F64, symSize: 0x268 }
  - { offsetInCU: 0x317D8, offset: 0x317D8, size: 0x8, addend: 0x0, symName: __ZN24FlashRadixTreeSerializerINSt3__112basic_stringIcNS0_11char_traitsIcEENS0_9allocatorIcEEEEiL9MatchMode0EE9serializeERK14FlashRadixTreeIS6_iLS7_0EE, symObjAddr: 0x16E58, symBinAddr: 0x10001A1CC, symSize: 0x48 }
  - { offsetInCU: 0x3180D, offset: 0x3180D, size: 0x8, addend: 0x0, symName: __ZNK14FlashRadixTreeINSt3__112basic_stringIcNS0_11char_traitsIcEENS0_9allocatorIcEEEEiL9MatchMode0EE4findERKS6_, symObjAddr: 0x16EA0, symBinAddr: 0x10001A214, symSize: 0x81C }
  - { offsetInCU: 0x318A8, offset: 0x318A8, size: 0x8, addend: 0x0, symName: __ZNK14FlashRadixTreeINSt3__112basic_stringIcNS0_11char_traitsIcEENS0_9allocatorIcEEEEiL9MatchMode0EE23XFlashRadixTreeIteratorILNS8_17IteratorDirectionE0EEeqERKSB_, symObjAddr: 0x176BC, symBinAddr: 0x10001AA30, symSize: 0x300 }
  - { offsetInCU: 0x318DC, offset: 0x318DC, size: 0x8, addend: 0x0, symName: __ZNK14FlashRadixTreeINSt3__112basic_stringIcNS0_11char_traitsIcEENS0_9allocatorIcEEEEiL9MatchMode0EE3endEv, symObjAddr: 0x179BC, symBinAddr: 0x10001AD30, symSize: 0x18 }
  - { offsetInCU: 0x31902, offset: 0x31902, size: 0x8, addend: 0x0, symName: __ZN14FlashRadixTreeINSt3__112basic_stringIcNS0_11char_traitsIcEENS0_9allocatorIcEEEEiL9MatchMode0EE23XFlashRadixTreeIteratorILNS8_17IteratorDirectionE0EEptEv, symObjAddr: 0x179D4, symBinAddr: 0x10001AD48, symSize: 0x60 }
  - { offsetInCU: 0x31928, offset: 0x31928, size: 0x8, addend: 0x0, symName: __ZN14FlashRadixTreeINSt3__112basic_stringIcNS0_11char_traitsIcEENS0_9allocatorIcEEEEiL9MatchMode0EED1Ev, symObjAddr: 0x17A34, symBinAddr: 0x10001ADA8, symSize: 0x2C }
  - { offsetInCU: 0x31952, offset: 0x31952, size: 0x8, addend: 0x0, symName: __ZN14FlashRadixTreeINSt3__117basic_string_viewIcNS0_11char_traitsIcEEEEiL9MatchMode1EED1Ev, symObjAddr: 0x17A60, symBinAddr: 0x10001ADD4, symSize: 0x2C }
  - { offsetInCU: 0x31981, offset: 0x31981, size: 0x8, addend: 0x0, symName: __ZNSt3__118basic_stringstreamIcNS_11char_traitsIcEENS_9allocatorIcEEED1Ev, symObjAddr: 0x17A8C, symBinAddr: 0x10001AE00, symSize: 0x40 }
  - { offsetInCU: 0x319AE, offset: 0x319AE, size: 0x8, addend: 0x0, symName: __ZN14FlashRadixTreeINSt3__112basic_stringIcNS0_11char_traitsIcEENS0_9allocatorIcEEEEiL9MatchMode1EED1Ev, symObjAddr: 0x17ACC, symBinAddr: 0x10001AE40, symSize: 0x2C }
  - { offsetInCU: 0x319D8, offset: 0x319D8, size: 0x8, addend: 0x0, symName: __Z15configure_rdtscv, symObjAddr: 0x17AF8, symBinAddr: 0x10001AE6C, symSize: 0xD8 }
  - { offsetInCU: 0x319F1, offset: 0x319F1, size: 0x8, addend: 0x0, symName: __Z10init_rdtscv, symObjAddr: 0x17BD0, symBinAddr: 0x10001AF44, symSize: 0x5A4 }
  - { offsetInCU: 0x31A19, offset: 0x31A19, size: 0x8, addend: 0x0, symName: __Z26setup_performance_countersv, symObjAddr: 0x18174, symBinAddr: 0x10001B4E8, symSize: 0x5C }
  - { offsetInCU: 0x31B68, offset: 0x31B68, size: 0x8, addend: 0x0, symName: __ZN20performance_countersC1Ed, symObjAddr: 0x18514, symBinAddr: 0x10001B888, symSize: 0x34 }
  - { offsetInCU: 0x31BA0, offset: 0x31BA0, size: 0x8, addend: 0x0, symName: __ZN20performance_countersC1Eyyyy, symObjAddr: 0x18548, symBinAddr: 0x10001B8BC, symSize: 0x4C }
  - { offsetInCU: 0x31C01, offset: 0x31C01, size: 0x8, addend: 0x0, symName: __Z12printResultsNSt3__112basic_stringIcNS_11char_traitsIcEENS_9allocatorIcEEEE20performance_countersS6_S6_, symObjAddr: 0x18594, symBinAddr: 0x10001B908, symSize: 0x908 }
  - { offsetInCU: 0x31C63, offset: 0x31C63, size: 0x8, addend: 0x0, symName: __ZNKSt3__112basic_stringIcNS_11char_traitsIcEENS_9allocatorIcEEE5c_strB8ue170006Ev, symObjAddr: 0x18E9C, symBinAddr: 0x10001C210, symSize: 0x24 }
  - { offsetInCU: 0x31C89, offset: 0x31C89, size: 0x8, addend: 0x0, symName: _main, symObjAddr: 0x18EC0, symBinAddr: 0x10001C234, symSize: 0xF0C8 }
  - { offsetInCU: 0x32BAE, offset: 0x32BAE, size: 0x8, addend: 0x0, symName: __ZNSt3__16vectorINS_12basic_stringIcNS_11char_traitsIcEENS_9allocatorIcEEEENS4_IS6_EEEC1B8ue170006Ev, symObjAddr: 0x27F88, symBinAddr: 0x10002B2FC, symSize: 0x2C }
  - { offsetInCU: 0x32C79, offset: 0x32C79, size: 0x8, addend: 0x0, symName: __ZNSt3__114basic_ifstreamIcNS_11char_traitsIcEEEC1Ev, symObjAddr: 0x27FB4, symBinAddr: 0x10002B328, symSize: 0x1BC }
  - { offsetInCU: 0x32CA5, offset: 0x32CA5, size: 0x8, addend: 0x0, symName: __ZNSt3__112basic_stringIcNS_11char_traitsIcEENS_9allocatorIcEEEC1B8ue170006Ev, symObjAddr: 0x28170, symBinAddr: 0x10002B4E4, symSize: 0x2C }
  - { offsetInCU: 0x32CCF, offset: 0x32CCF, size: 0x8, addend: 0x0, symName: __ZNKSt3__19basic_iosIcNS_11char_traitsIcEEEcvbB8ue170006Ev, symObjAddr: 0x28274, symBinAddr: 0x10002B5E8, symSize: 0x2C }
  - { offsetInCU: 0x32CF5, offset: 0x32CF5, size: 0x8, addend: 0x0, symName: __ZNSt3__112basic_stringIcNS_11char_traitsIcEENS_9allocatorIcEEE5beginB8ue170006Ev, symObjAddr: 0x282A0, symBinAddr: 0x10002B614, symSize: 0x258 }
  - { offsetInCU: 0x32D1C, offset: 0x32D1C, size: 0x8, addend: 0x0, symName: __ZNSt3__112basic_stringIcNS_11char_traitsIcEENS_9allocatorIcEEE3endB8ue170006Ev, symObjAddr: 0x284F8, symBinAddr: 0x10002B86C, symSize: 0x25C }
  - { offsetInCU: 0x32D43, offset: 0x32D43, size: 0x8, addend: 0x0, symName: __ZNKSt3__111__wrap_iterIPcEdeB8ue170006Ev, symObjAddr: 0x28788, symBinAddr: 0x10002BAFC, symSize: 0x60 }
  - { offsetInCU: 0x32D69, offset: 0x32D69, size: 0x8, addend: 0x0, symName: __ZNSt3__111__wrap_iterIPcEppB8ue170006Ev, symObjAddr: 0x287E8, symBinAddr: 0x10002BB5C, symSize: 0x68 }
  - { offsetInCU: 0x32D8F, offset: 0x32D8F, size: 0x8, addend: 0x0, symName: __ZNSt3__16vectorINS_12basic_stringIcNS_11char_traitsIcEENS_9allocatorIcEEEENS4_IS6_EEE9push_backB8ue170006ERKS6_, symObjAddr: 0x28850, symBinAddr: 0x10002BBC4, symSize: 0xE0 }
  - { offsetInCU: 0x32DC6, offset: 0x32DC6, size: 0x8, addend: 0x0, symName: __ZNSt3__114basic_ifstreamIcNS_11char_traitsIcEEE5closeEv, symObjAddr: 0x28930, symBinAddr: 0x10002BCA4, symSize: 0xD4 }
  - { offsetInCU: 0x32ED4, offset: 0x32ED4, size: 0x8, addend: 0x0, symName: __ZNSt3__113unordered_mapINS_12basic_stringIcNS_11char_traitsIcEENS_9allocatorIcEEEEjNS_4hashIS6_EENS_8equal_toIS6_EENS4_INS_4pairIKS6_jEEEEEC1B8ue170006Ev, symObjAddr: 0x28A04, symBinAddr: 0x10002BD78, symSize: 0x2C }
  - { offsetInCU: 0x32EFE, offset: 0x32EFE, size: 0x8, addend: 0x0, symName: __ZNSt3__16vectorINS_12basic_stringIcNS_11char_traitsIcEENS_9allocatorIcEEEENS4_IS6_EEE5beginB8ue170006Ev, symObjAddr: 0x28A30, symBinAddr: 0x10002BDA4, symSize: 0x268 }
  - { offsetInCU: 0x32F27, offset: 0x32F27, size: 0x8, addend: 0x0, symName: __ZNSt3__16vectorINS_12basic_stringIcNS_11char_traitsIcEENS_9allocatorIcEEEENS4_IS6_EEE3endB8ue170006Ev, symObjAddr: 0x28C98, symBinAddr: 0x10002C00C, symSize: 0x26C }
  - { offsetInCU: 0x32F50, offset: 0x32F50, size: 0x8, addend: 0x0, symName: __ZNKSt3__111__wrap_iterIPNS_12basic_stringIcNS_11char_traitsIcEENS_9allocatorIcEEEEEdeB8ue170006Ev, symObjAddr: 0x28F38, symBinAddr: 0x10002C2AC, symSize: 0x60 }
  - { offsetInCU: 0x32F76, offset: 0x32F76, size: 0x8, addend: 0x0, symName: __ZNSt3__113unordered_mapINS_12basic_stringIcNS_11char_traitsIcEENS_9allocatorIcEEEEjNS_4hashIS6_EENS_8equal_toIS6_EENS4_INS_4pairIKS6_jEEEEEixERSC_, symObjAddr: 0x28F98, symBinAddr: 0x10002C30C, symSize: 0x314 }
  - { offsetInCU: 0x32FAF, offset: 0x32FAF, size: 0x8, addend: 0x0, symName: __ZNSt3__111__wrap_iterIPNS_12basic_stringIcNS_11char_traitsIcEENS_9allocatorIcEEEEEppB8ue170006Ev, symObjAddr: 0x292AC, symBinAddr: 0x10002C620, symSize: 0x68 }
  - { offsetInCU: 0x32FD5, offset: 0x32FD5, size: 0x8, addend: 0x0, symName: __ZNSt3__113unordered_mapINS_12basic_stringIcNS_11char_traitsIcEENS_9allocatorIcEEEEjNS_4hashIS6_EENS_8equal_toIS6_EENS4_INS_4pairIKS6_jEEEEE5beginB8ue170006Ev, symObjAddr: 0x29314, symBinAddr: 0x10002C688, symSize: 0x2B4 }
  - { offsetInCU: 0x32FFC, offset: 0x32FFC, size: 0x8, addend: 0x0, symName: __ZNSt3__113unordered_mapINS_12basic_stringIcNS_11char_traitsIcEENS_9allocatorIcEEEEjNS_4hashIS6_EENS_8equal_toIS6_EENS4_INS_4pairIKS6_jEEEEE3endB8ue170006Ev, symObjAddr: 0x295C8, symBinAddr: 0x10002C93C, symSize: 0x2B4 }
  - { offsetInCU: 0x33023, offset: 0x33023, size: 0x8, addend: 0x0, symName: __ZNSt3__16vectorINS_4pairINS_12basic_stringIcNS_11char_traitsIcEENS_9allocatorIcEEEEjEENS5_IS8_EEEC1INS_19__hash_map_iteratorINS_15__hash_iteratorIPNS_11__hash_nodeINS_17__hash_value_typeIS7_jEEPvEEEEEELi0EEET_SM_, symObjAddr: 0x2987C, symBinAddr: 0x10002CBF0, symSize: 0x2FC }
  - { offsetInCU: 0x33085, offset: 0x33085, size: 0x8, addend: 0x0, symName: __ZNSt3__16vectorINS_4pairINS_12basic_stringIcNS_11char_traitsIcEENS_9allocatorIcEEEEjEENS5_IS8_EEE5beginB8ue170006Ev, symObjAddr: 0x29EE4, symBinAddr: 0x10002D258, symSize: 0x268 }
  - { offsetInCU: 0x330AE, offset: 0x330AE, size: 0x8, addend: 0x0, symName: __ZNSt3__16vectorINS_4pairINS_12basic_stringIcNS_11char_traitsIcEENS_9allocatorIcEEEEjEENS5_IS8_EEE3endB8ue170006Ev, symObjAddr: 0x2A14C, symBinAddr: 0x10002D4C0, symSize: 0x26C }
  - { offsetInCU: 0x330D7, offset: 0x330D7, size: 0x8, addend: 0x0, symName: __ZNKSt3__16vectorINS_4pairINS_12basic_stringIcNS_11char_traitsIcEENS_9allocatorIcEEEEjEENS5_IS8_EEE4sizeB8ue170006Ev, symObjAddr: 0x2A3B8, symBinAddr: 0x10002D72C, symSize: 0xB0 }
  - { offsetInCU: 0x330FD, offset: 0x330FD, size: 0x8, addend: 0x0, symName: __ZNSt3__113unordered_mapINS_12basic_stringIcNS_11char_traitsIcEENS_9allocatorIcEEEEjNS_4hashIS6_EENS_8equal_toIS6_EENS4_INS_4pairIKS6_jEEEEE5eraseB8ue170006ERSC_, symObjAddr: 0x2A468, symBinAddr: 0x10002D7DC, symSize: 0x2C }
  - { offsetInCU: 0x33132, offset: 0x33132, size: 0x8, addend: 0x0, symName: __ZNSt3__16vectorINS_4pairINS_12basic_stringIcNS_11char_traitsIcEENS_9allocatorIcEEEEjEENS5_IS8_EEEixB8ue170006Em, symObjAddr: 0x2A494, symBinAddr: 0x10002D808, symSize: 0x6C }
  - { offsetInCU: 0x33298, offset: 0x33298, size: 0x8, addend: 0x0, symName: __ZNSt3__113unordered_setINS_12basic_stringIcNS_11char_traitsIcEENS_9allocatorIcEEEENS_4hashIS6_EENS_8equal_toIS6_EENS4_IS6_EEEC1B8ue170006Ev, symObjAddr: 0x2A500, symBinAddr: 0x10002D874, symSize: 0x2C }
  - { offsetInCU: 0x332C2, offset: 0x332C2, size: 0x8, addend: 0x0, symName: __ZNKSt3__119__hash_map_iteratorINS_15__hash_iteratorIPNS_11__hash_nodeINS_17__hash_value_typeINS_12basic_stringIcNS_11char_traitsIcEENS_9allocatorIcEEEEjEEPvEEEEEdeB8ue170006Ev, symObjAddr: 0x2A55C, symBinAddr: 0x10002D8D0, symSize: 0x28 }
  - { offsetInCU: 0x332E8, offset: 0x332E8, size: 0x8, addend: 0x0, symName: __ZNSt3__113unordered_setINS_12basic_stringIcNS_11char_traitsIcEENS_9allocatorIcEEEENS_4hashIS6_EENS_8equal_toIS6_EENS4_IS6_EEE6insertB8ue170006ERKS6_, symObjAddr: 0x2A584, symBinAddr: 0x10002D8F8, symSize: 0x2A8 }
  - { offsetInCU: 0x3331F, offset: 0x3331F, size: 0x8, addend: 0x0, symName: __ZNSt3__119__hash_map_iteratorINS_15__hash_iteratorIPNS_11__hash_nodeINS_17__hash_value_typeINS_12basic_stringIcNS_11char_traitsIcEENS_9allocatorIcEEEEjEEPvEEEEEppB8ue170006Ev, symObjAddr: 0x2A82C, symBinAddr: 0x10002DBA0, symSize: 0x2C }
  - { offsetInCU: 0x33345, offset: 0x33345, size: 0x8, addend: 0x0, symName: __ZNSt3__113unordered_setINS_12basic_stringIcNS_11char_traitsIcEENS_9allocatorIcEEEENS_4hashIS6_EENS_8equal_toIS6_EENS4_IS6_EEEC1INS_11__wrap_iterIPS6_EEEET_SH_, symObjAddr: 0x2A858, symBinAddr: 0x10002DBCC, symSize: 0x2FC }
  - { offsetInCU: 0x333A1, offset: 0x333A1, size: 0x8, addend: 0x0, symName: __ZNSt3__16vectorINS_12basic_stringIcNS_11char_traitsIcEENS_9allocatorIcEEEENS4_IS6_EEEixB8ue170006Em, symObjAddr: 0x2AB54, symBinAddr: 0x10002DEC8, symSize: 0x74 }
  - { offsetInCU: 0x333D8, offset: 0x333D8, size: 0x8, addend: 0x0, symName: __ZNKSt3__112basic_stringIcNS_11char_traitsIcEENS_9allocatorIcEEE4sizeB8ue170006Ev, symObjAddr: 0x2ABC8, symBinAddr: 0x10002DF3C, symSize: 0x54 }
  - { offsetInCU: 0x333FE, offset: 0x333FE, size: 0x8, addend: 0x0, symName: __ZN14FlashRadixTreeINSt3__112basic_stringIcNS0_11char_traitsIcEENS0_9allocatorIcEEEE4DataL9MatchMode0EEC1Ev, symObjAddr: 0x2AC1C, symBinAddr: 0x10002DF90, symSize: 0x2C }
  - { offsetInCU: 0x33428, offset: 0x33428, size: 0x8, addend: 0x0, symName: __ZN14FlashRadixTreeINSt3__112basic_stringIcNS0_11char_traitsIcEENS0_9allocatorIcEEEE4DataL9MatchMode1EEC1Ev, symObjAddr: 0x2AC48, symBinAddr: 0x10002DFBC, symSize: 0x2C }
  - { offsetInCU: 0x33524, offset: 0x33524, size: 0x8, addend: 0x0, symName: __ZNSt3__113unordered_mapINS_12basic_stringIcNS_11char_traitsIcEENS_9allocatorIcEEEE4DataNS_4hashIS6_EENS_8equal_toIS6_EENS4_INS_4pairIKS6_S7_EEEEEC1B8ue170006Ev, symObjAddr: 0x2AC74, symBinAddr: 0x10002DFE8, symSize: 0x2C }
  - { offsetInCU: 0x3354E, offset: 0x3354E, size: 0x8, addend: 0x0, symName: __ZNSt3__13mapINS_12basic_stringIcNS_11char_traitsIcEENS_9allocatorIcEEEE4DataNS_4lessIS6_EENS4_INS_4pairIKS6_S7_EEEEEC1B8ue170006Ev, symObjAddr: 0x2ACA0, symBinAddr: 0x10002E014, symSize: 0x2C }
  - { offsetInCU: 0x33578, offset: 0x33578, size: 0x8, addend: 0x0, symName: __ZN9SplayTreeINSt3__112basic_stringIcNS0_11char_traitsIcEENS0_9allocatorIcEEEE4DataEC1Ev, symObjAddr: 0x2ACCC, symBinAddr: 0x10002E040, symSize: 0x2C }
  - { offsetInCU: 0x335A2, offset: 0x335A2, size: 0x8, addend: 0x0, symName: __ZNSt3__113unordered_setINS_12basic_stringIcNS_11char_traitsIcEENS_9allocatorIcEEEENS_4hashIS6_EENS_8equal_toIS6_EENS4_IS6_EEE5beginB8ue170006Ev, symObjAddr: 0x2ACF8, symBinAddr: 0x10002E06C, symSize: 0x288 }
  - { offsetInCU: 0x335C9, offset: 0x335C9, size: 0x8, addend: 0x0, symName: __ZNSt3__113unordered_setINS_12basic_stringIcNS_11char_traitsIcEENS_9allocatorIcEEEENS_4hashIS6_EENS_8equal_toIS6_EENS4_IS6_EEE3endB8ue170006Ev, symObjAddr: 0x2AF80, symBinAddr: 0x10002E2F4, symSize: 0x288 }
  - { offsetInCU: 0x335F0, offset: 0x335F0, size: 0x8, addend: 0x0, symName: __ZNKSt3__121__hash_const_iteratorIPNS_11__hash_nodeINS_12basic_stringIcNS_11char_traitsIcEENS_9allocatorIcEEEEPvEEEdeB8ue170006Ev, symObjAddr: 0x2B23C, symBinAddr: 0x10002E5B0, symSize: 0x68 }
  - { offsetInCU: 0x33616, offset: 0x33616, size: 0x8, addend: 0x0, symName: __ZNSt3__113unordered_mapINS_12basic_stringIcNS_11char_traitsIcEENS_9allocatorIcEEEE4DataNS_4hashIS6_EENS_8equal_toIS6_EENS4_INS_4pairIKS6_S7_EEEEE7emplaceB8ue170006IJRSD_S7_EEENSC_INS_19__hash_map_iteratorINS_15__hash_iteratorIPNS_11__hash_nodeINS_17__hash_value_typeIS6_S7_EEPvEEEEEEbEEDpOT_, symObjAddr: 0x2B2A4, symBinAddr: 0x10002E618, symSize: 0x2B0 }
  - { offsetInCU: 0x33672, offset: 0x33672, size: 0x8, addend: 0x0, symName: __ZN4DataC1Ev, symObjAddr: 0x2B554, symBinAddr: 0x10002E8C8, symSize: 0x2C }
  - { offsetInCU: 0x3369E, offset: 0x3369E, size: 0x8, addend: 0x0, symName: __ZN4DataD1Ev, symObjAddr: 0x2B580, symBinAddr: 0x10002E8F4, symSize: 0x2C }
  - { offsetInCU: 0x336C9, offset: 0x336C9, size: 0x8, addend: 0x0, symName: __ZmiRK20performance_countersS1_, symObjAddr: 0x2B5AC, symBinAddr: 0x10002E920, symSize: 0x4FC }
  - { offsetInCU: 0x33706, offset: 0x33706, size: 0x8, addend: 0x0, symName: __ZN20performance_counters3minERKS_, symObjAddr: 0x2BAA8, symBinAddr: 0x10002EE1C, symSize: 0x5C8 }
  - { offsetInCU: 0x3373A, offset: 0x3373A, size: 0x8, addend: 0x0, symName: __ZN20performance_counters3maxERKS_, symObjAddr: 0x2C070, symBinAddr: 0x10002F3E4, symSize: 0x5C8 }
  - { offsetInCU: 0x3376E, offset: 0x3376E, size: 0x8, addend: 0x0, symName: __ZN20performance_counterspLERKS_, symObjAddr: 0x2C638, symBinAddr: 0x10002F9AC, symSize: 0x25C }
  - { offsetInCU: 0x337A2, offset: 0x337A2, size: 0x8, addend: 0x0, symName: __ZNSt3__121__hash_const_iteratorIPNS_11__hash_nodeINS_12basic_stringIcNS_11char_traitsIcEENS_9allocatorIcEEEEPvEEEppB8ue170006Ev, symObjAddr: 0x2C894, symBinAddr: 0x10002FC08, symSize: 0xDC }
  - { offsetInCU: 0x337C8, offset: 0x337C8, size: 0x8, addend: 0x0, symName: __ZNKSt3__113unordered_setINS_12basic_stringIcNS_11char_traitsIcEENS_9allocatorIcEEEENS_4hashIS6_EENS_8equal_toIS6_EENS4_IS6_EEE4sizeB8ue170006Ev, symObjAddr: 0x2C970, symBinAddr: 0x10002FCE4, symSize: 0x24 }
  - { offsetInCU: 0x337EE, offset: 0x337EE, size: 0x8, addend: 0x0, symName: __ZN20performance_countersdVEd, symObjAddr: 0x2C994, symBinAddr: 0x10002FD08, symSize: 0x160 }
  - { offsetInCU: 0x33822, offset: 0x33822, size: 0x8, addend: 0x0, symName: __ZNSt3__13mapINS_12basic_stringIcNS_11char_traitsIcEENS_9allocatorIcEEEE4DataNS_4lessIS6_EENS4_INS_4pairIKS6_S7_EEEEE7emplaceB8ue170006IJRSB_S7_EEENSA_INS_14__map_iteratorINS_15__tree_iteratorINS_12__value_typeIS6_S7_EEPNS_11__tree_nodeISK_PvEElEEEEbEEDpOT_, symObjAddr: 0x2CAF4, symBinAddr: 0x10002FE68, symSize: 0x2B0 }
  - { offsetInCU: 0x33879, offset: 0x33879, size: 0x8, addend: 0x0, symName: __ZN14FlashRadixTreeINSt3__112basic_stringIcNS0_11char_traitsIcEENS0_9allocatorIcEEEE4DataL9MatchMode0EE6insertERKS6_OS7_, symObjAddr: 0x2CDA4, symBinAddr: 0x100030118, symSize: 0xEC8 }
  - { offsetInCU: 0x33A02, offset: 0x33A02, size: 0x8, addend: 0x0, symName: __ZN14FlashRadixTreeINSt3__112basic_stringIcNS0_11char_traitsIcEENS0_9allocatorIcEEEE4DataL9MatchMode1EE6insertERKS6_OS7_, symObjAddr: 0x2DC6C, symBinAddr: 0x100030FE0, symSize: 0xEC8 }
  - { offsetInCU: 0x33B8B, offset: 0x33B8B, size: 0x8, addend: 0x0, symName: __ZN9SplayTreeINSt3__112basic_stringIcNS0_11char_traitsIcEENS0_9allocatorIcEEEE4DataE6insertES6_S7_, symObjAddr: 0x2EB34, symBinAddr: 0x100031EA8, symSize: 0x388 }
  - { offsetInCU: 0x33BD2, offset: 0x33BD2, size: 0x8, addend: 0x0, symName: __ZNSt3__113unordered_mapINS_12basic_stringIcNS_11char_traitsIcEENS_9allocatorIcEEEE4DataNS_4hashIS6_EENS_8equal_toIS6_EENS4_INS_4pairIKS6_S7_EEEEE4findB8ue170006ERSD_, symObjAddr: 0x2EEBC, symBinAddr: 0x100032230, symSize: 0x2BC }
  - { offsetInCU: 0x33C09, offset: 0x33C09, size: 0x8, addend: 0x0, symName: __ZNSt3__113unordered_mapINS_12basic_stringIcNS_11char_traitsIcEENS_9allocatorIcEEEE4DataNS_4hashIS6_EENS_8equal_toIS6_EENS4_INS_4pairIKS6_S7_EEEEE3endB8ue170006Ev, symObjAddr: 0x2F1A8, symBinAddr: 0x10003251C, symSize: 0x2B4 }
  - { offsetInCU: 0x33C30, offset: 0x33C30, size: 0x8, addend: 0x0, symName: __ZNSt3__113unordered_setINS_12basic_stringIcNS_11char_traitsIcEENS_9allocatorIcEEEENS_4hashIS6_EENS_8equal_toIS6_EENS4_IS6_EEE4findB8ue170006ERKS6_, symObjAddr: 0x2F45C, symBinAddr: 0x1000327D0, symSize: 0x290 }
  - { offsetInCU: 0x33C67, offset: 0x33C67, size: 0x8, addend: 0x0, symName: __ZNKSt3__16vectorINS_12basic_stringIcNS_11char_traitsIcEENS_9allocatorIcEEEENS4_IS6_EEE4sizeB8ue170006Ev, symObjAddr: 0x2F6EC, symBinAddr: 0x100032A60, symSize: 0xB0 }
  - { offsetInCU: 0x33C8D, offset: 0x33C8D, size: 0x8, addend: 0x0, symName: __ZNSt3__13mapINS_12basic_stringIcNS_11char_traitsIcEENS_9allocatorIcEEEE4DataNS_4lessIS6_EENS4_INS_4pairIKS6_S7_EEEEE4findB8ue170006ERSB_, symObjAddr: 0x2F79C, symBinAddr: 0x100032B10, symSize: 0x2BC }
  - { offsetInCU: 0x33CC4, offset: 0x33CC4, size: 0x8, addend: 0x0, symName: __ZNSt3__13mapINS_12basic_stringIcNS_11char_traitsIcEENS_9allocatorIcEEEE4DataNS_4lessIS6_EENS4_INS_4pairIKS6_S7_EEEEE3endB8ue170006Ev, symObjAddr: 0x2FA88, symBinAddr: 0x100032DFC, symSize: 0x2B4 }
  - { offsetInCU: 0x33CEB, offset: 0x33CEB, size: 0x8, addend: 0x0, symName: __ZNK14FlashRadixTreeINSt3__112basic_stringIcNS0_11char_traitsIcEENS0_9allocatorIcEEEE4DataL9MatchMode0EE4findERKS6_, symObjAddr: 0x2FD3C, symBinAddr: 0x1000330B0, symSize: 0x81C }
  - { offsetInCU: 0x33D86, offset: 0x33D86, size: 0x8, addend: 0x0, symName: __ZNK14FlashRadixTreeINSt3__112basic_stringIcNS0_11char_traitsIcEENS0_9allocatorIcEEEE4DataL9MatchMode0EE23XFlashRadixTreeIteratorILNS9_17IteratorDirectionE0EEeqERKSC_, symObjAddr: 0x30558, symBinAddr: 0x1000338CC, symSize: 0x300 }
  - { offsetInCU: 0x33DBA, offset: 0x33DBA, size: 0x8, addend: 0x0, symName: __ZNK14FlashRadixTreeINSt3__112basic_stringIcNS0_11char_traitsIcEENS0_9allocatorIcEEEE4DataL9MatchMode0EE3endEv, symObjAddr: 0x30858, symBinAddr: 0x100033BCC, symSize: 0x18 }
  - { offsetInCU: 0x33DE0, offset: 0x33DE0, size: 0x8, addend: 0x0, symName: __ZNK14FlashRadixTreeINSt3__112basic_stringIcNS0_11char_traitsIcEENS0_9allocatorIcEEEE4DataL9MatchMode1EE4findERKS6_, symObjAddr: 0x30870, symBinAddr: 0x100033BE4, symSize: 0x6C4 }
  - { offsetInCU: 0x33E7B, offset: 0x33E7B, size: 0x8, addend: 0x0, symName: __ZNK14FlashRadixTreeINSt3__112basic_stringIcNS0_11char_traitsIcEENS0_9allocatorIcEEEE4DataL9MatchMode1EE23XFlashRadixTreeIteratorILNS9_17IteratorDirectionE0EEeqERKSC_, symObjAddr: 0x30F34, symBinAddr: 0x1000342A8, symSize: 0x300 }
  - { offsetInCU: 0x33EAF, offset: 0x33EAF, size: 0x8, addend: 0x0, symName: __ZNK14FlashRadixTreeINSt3__112basic_stringIcNS0_11char_traitsIcEENS0_9allocatorIcEEEE4DataL9MatchMode1EE3endEv, symObjAddr: 0x31234, symBinAddr: 0x1000345A8, symSize: 0x18 }
  - { offsetInCU: 0x33ED5, offset: 0x33ED5, size: 0x8, addend: 0x0, symName: __ZNK9SplayTreeINSt3__112basic_stringIcNS0_11char_traitsIcEENS0_9allocatorIcEEEE4DataE4findES6_, symObjAddr: 0x3124C, symBinAddr: 0x1000345C0, symSize: 0x3C0 }
  - { offsetInCU: 0x33F0D, offset: 0x33F0D, size: 0x8, addend: 0x0, symName: __ZNK9SplayTreeINSt3__112basic_stringIcNS0_11char_traitsIcEENS0_9allocatorIcEEEE4DataE9XiteratorILNS8_17IteratorDirectionE0EEeqERKSB_, symObjAddr: 0x3160C, symBinAddr: 0x100034980, symSize: 0x310 }
  - { offsetInCU: 0x33F41, offset: 0x33F41, size: 0x8, addend: 0x0, symName: __ZNK9SplayTreeINSt3__112basic_stringIcNS0_11char_traitsIcEENS0_9allocatorIcEEEE4DataE3endEv, symObjAddr: 0x3191C, symBinAddr: 0x100034C90, symSize: 0x18 }
  - { offsetInCU: 0x33F67, offset: 0x33F67, size: 0x8, addend: 0x0, symName: __ZNSt3__113unordered_mapINS_12basic_stringIcNS_11char_traitsIcEENS_9allocatorIcEEEE4DataNS_4hashIS6_EENS_8equal_toIS6_EENS4_INS_4pairIKS6_S7_EEEEE5eraseB8ue170006ERSD_, symObjAddr: 0x31934, symBinAddr: 0x100034CA8, symSize: 0x2C }
  - { offsetInCU: 0x33F9C, offset: 0x33F9C, size: 0x8, addend: 0x0, symName: __ZNSt3__13mapINS_12basic_stringIcNS_11char_traitsIcEENS_9allocatorIcEEEE4DataNS_4lessIS6_EENS4_INS_4pairIKS6_S7_EEEEE5eraseB8ue170006ERSB_, symObjAddr: 0x31960, symBinAddr: 0x100034CD4, symSize: 0x2C }
  - { offsetInCU: 0x33FD1, offset: 0x33FD1, size: 0x8, addend: 0x0, symName: __ZN14FlashRadixTreeINSt3__112basic_stringIcNS0_11char_traitsIcEENS0_9allocatorIcEEEE4DataL9MatchMode0EE5eraseERKS6_, symObjAddr: 0x3198C, symBinAddr: 0x100034D00, symSize: 0x30 }
  - { offsetInCU: 0x34006, offset: 0x34006, size: 0x8, addend: 0x0, symName: __ZN14FlashRadixTreeINSt3__112basic_stringIcNS0_11char_traitsIcEENS0_9allocatorIcEEEE4DataL9MatchMode1EE5eraseERKS6_, symObjAddr: 0x319BC, symBinAddr: 0x100034D30, symSize: 0x30 }
  - { offsetInCU: 0x3403B, offset: 0x3403B, size: 0x8, addend: 0x0, symName: __ZN9SplayTreeINSt3__112basic_stringIcNS0_11char_traitsIcEENS0_9allocatorIcEEEE4DataE5eraseES6_, symObjAddr: 0x319EC, symBinAddr: 0x100034D60, symSize: 0x334 }
  - { offsetInCU: 0x34073, offset: 0x34073, size: 0x8, addend: 0x0, symName: __ZN9SplayTreeINSt3__112basic_stringIcNS0_11char_traitsIcEENS0_9allocatorIcEEEE4DataED1Ev, symObjAddr: 0x31D20, symBinAddr: 0x100035094, symSize: 0x2C }
  - { offsetInCU: 0x3409D, offset: 0x3409D, size: 0x8, addend: 0x0, symName: __ZNSt3__13mapINS_12basic_stringIcNS_11char_traitsIcEENS_9allocatorIcEEEE4DataNS_4lessIS6_EENS4_INS_4pairIKS6_S7_EEEEED1B8ue170006Ev, symObjAddr: 0x31D4C, symBinAddr: 0x1000350C0, symSize: 0x2C }
  - { offsetInCU: 0x340C7, offset: 0x340C7, size: 0x8, addend: 0x0, symName: __ZNSt3__113unordered_mapINS_12basic_stringIcNS_11char_traitsIcEENS_9allocatorIcEEEE4DataNS_4hashIS6_EENS_8equal_toIS6_EENS4_INS_4pairIKS6_S7_EEEEED1B8ue170006Ev, symObjAddr: 0x31D78, symBinAddr: 0x1000350EC, symSize: 0x2C }
  - { offsetInCU: 0x340F1, offset: 0x340F1, size: 0x8, addend: 0x0, symName: __ZN14FlashRadixTreeINSt3__112basic_stringIcNS0_11char_traitsIcEENS0_9allocatorIcEEEE4DataL9MatchMode1EED1Ev, symObjAddr: 0x31DA4, symBinAddr: 0x100035118, symSize: 0x2C }
  - { offsetInCU: 0x3411B, offset: 0x3411B, size: 0x8, addend: 0x0, symName: __ZN14FlashRadixTreeINSt3__112basic_stringIcNS0_11char_traitsIcEENS0_9allocatorIcEEEE4DataL9MatchMode0EED1Ev, symObjAddr: 0x31DD0, symBinAddr: 0x100035144, symSize: 0x2C }
  - { offsetInCU: 0x34145, offset: 0x34145, size: 0x8, addend: 0x0, symName: __ZNSt3__113unordered_setINS_12basic_stringIcNS_11char_traitsIcEENS_9allocatorIcEEEENS_4hashIS6_EENS_8equal_toIS6_EENS4_IS6_EEED1B8ue170006Ev, symObjAddr: 0x31DFC, symBinAddr: 0x100035170, symSize: 0x2C }
  - { offsetInCU: 0x3416F, offset: 0x3416F, size: 0x8, addend: 0x0, symName: __ZNSt3__16vectorINS_4pairINS_12basic_stringIcNS_11char_traitsIcEENS_9allocatorIcEEEEjEENS5_IS8_EEED1B8ue170006Ev, symObjAddr: 0x31E28, symBinAddr: 0x10003519C, symSize: 0x2C }
  - { offsetInCU: 0x34199, offset: 0x34199, size: 0x8, addend: 0x0, symName: __ZNSt3__113unordered_mapINS_12basic_stringIcNS_11char_traitsIcEENS_9allocatorIcEEEEjNS_4hashIS6_EENS_8equal_toIS6_EENS4_INS_4pairIKS6_jEEEEED1B8ue170006Ev, symObjAddr: 0x31E54, symBinAddr: 0x1000351C8, symSize: 0x2C }
  - { offsetInCU: 0x341C8, offset: 0x341C8, size: 0x8, addend: 0x0, symName: __ZNSt3__114basic_ifstreamIcNS_11char_traitsIcEEED1Ev, symObjAddr: 0x31E80, symBinAddr: 0x1000351F4, symSize: 0x40 }
  - { offsetInCU: 0x341F5, offset: 0x341F5, size: 0x8, addend: 0x0, symName: __ZNSt3__16vectorINS_12basic_stringIcNS_11char_traitsIcEENS_9allocatorIcEEEENS4_IS6_EEED1B8ue170006Ev, symObjAddr: 0x31EC0, symBinAddr: 0x100035234, symSize: 0x2C }
  - { offsetInCU: 0x3421F, offset: 0x3421F, size: 0x8, addend: 0x0, symName: __ZNSt3__112basic_stringIcNS_11char_traitsIcEENS_9allocatorIcEEEC2B8ue170006ILi0EEEPKc, symObjAddr: 0x31EEC, symBinAddr: 0x100035260, symSize: 0x210 }
  - { offsetInCU: 0x34266, offset: 0x34266, size: 0x8, addend: 0x0, symName: __ZNSt3__117__compressed_pairINS_12basic_stringIcNS_11char_traitsIcEENS_9allocatorIcEEE5__repES5_EC1B8ue170006INS_18__default_init_tagESA_EEOT_OT0_, symObjAddr: 0x320FC, symBinAddr: 0x100035470, symSize: 0x3C }
  - { offsetInCU: 0x342BE, offset: 0x342BE, size: 0x8, addend: 0x0, symName: __ZNSt3__111char_traitsIcE6lengthB8ue170006EPKc, symObjAddr: 0x32138, symBinAddr: 0x1000354AC, symSize: 0x40 }
  - { offsetInCU: 0x342E1, offset: 0x342E1, size: 0x8, addend: 0x0, symName: __ZNSt3__117__compressed_pairINS_12basic_stringIcNS_11char_traitsIcEENS_9allocatorIcEEE5__repES5_EC2B8ue170006INS_18__default_init_tagESA_EEOT_OT0_, symObjAddr: 0x32178, symBinAddr: 0x1000354EC, symSize: 0x3C }
  - { offsetInCU: 0x34339, offset: 0x34339, size: 0x8, addend: 0x0, symName: __ZNSt3__122__compressed_pair_elemINS_12basic_stringIcNS_11char_traitsIcEENS_9allocatorIcEEE5__repELi0ELb0EEC2B8ue170006ENS_18__default_init_tagE, symObjAddr: 0x321B4, symBinAddr: 0x100035528, symSize: 0x14 }
  - { offsetInCU: 0x3436E, offset: 0x3436E, size: 0x8, addend: 0x0, symName: __ZNSt3__122__compressed_pair_elemINS_9allocatorIcEELi1ELb1EEC2B8ue170006ENS_18__default_init_tagE, symObjAddr: 0x321C8, symBinAddr: 0x10003553C, symSize: 0x2C }
  - { offsetInCU: 0x343A3, offset: 0x343A3, size: 0x8, addend: 0x0, symName: __ZNSt3__19allocatorIcEC2B8ue170006Ev, symObjAddr: 0x321F4, symBinAddr: 0x100035568, symSize: 0x2C }
  - { offsetInCU: 0x343CD, offset: 0x343CD, size: 0x8, addend: 0x0, symName: __ZNSt3__116__non_trivial_ifILb1ENS_9allocatorIcEEEC2B8ue170006Ev, symObjAddr: 0x32220, symBinAddr: 0x100035594, symSize: 0x14 }
  - { offsetInCU: 0x343F7, offset: 0x343F7, size: 0x8, addend: 0x0, symName: __ZNKSt3__112basic_stringIcNS_11char_traitsIcEENS_9allocatorIcEEE4dataB8ue170006Ev, symObjAddr: 0x32264, symBinAddr: 0x1000355D8, symSize: 0x28 }
  - { offsetInCU: 0x3441D, offset: 0x3441D, size: 0x8, addend: 0x0, symName: __ZNKSt3__112basic_stringIcNS_11char_traitsIcEENS_9allocatorIcEEE9__is_longB8ue170006Ev, symObjAddr: 0x3228C, symBinAddr: 0x100035600, symSize: 0xA4 }
  - { offsetInCU: 0x34443, offset: 0x34443, size: 0x8, addend: 0x0, symName: __ZNSt3__111char_traitsIcE7compareB8ue170006EPKcS3_m, symObjAddr: 0x32330, symBinAddr: 0x1000356A4, symSize: 0x34 }
  - { offsetInCU: 0x34482, offset: 0x34482, size: 0x8, addend: 0x0, symName: __ZNKSt3__112basic_stringIcNS_11char_traitsIcEENS_9allocatorIcEEE13__get_pointerB8ue170006Ev, symObjAddr: 0x32378, symBinAddr: 0x1000356EC, symSize: 0x54 }
  - { offsetInCU: 0x344A8, offset: 0x344A8, size: 0x8, addend: 0x0, symName: __ZNKSt3__112basic_stringIcNS_11char_traitsIcEENS_9allocatorIcEEE18__get_long_pointerB8ue170006Ev, symObjAddr: 0x323CC, symBinAddr: 0x100035740, symSize: 0x6C }
  - { offsetInCU: 0x344CE, offset: 0x344CE, size: 0x8, addend: 0x0, symName: __ZNKSt3__112basic_stringIcNS_11char_traitsIcEENS_9allocatorIcEEE19__get_short_pointerB8ue170006Ev, symObjAddr: 0x32438, symBinAddr: 0x1000357AC, symSize: 0x28 }
  - { offsetInCU: 0x344F4, offset: 0x344F4, size: 0x8, addend: 0x0, symName: __ZNKSt3__117__compressed_pairINS_12basic_stringIcNS_11char_traitsIcEENS_9allocatorIcEEE5__repES5_E5firstB8ue170006Ev, symObjAddr: 0x32460, symBinAddr: 0x1000357D4, symSize: 0x24 }
  - { offsetInCU: 0x3451A, offset: 0x3451A, size: 0x8, addend: 0x0, symName: __ZNKSt3__122__compressed_pair_elemINS_12basic_stringIcNS_11char_traitsIcEENS_9allocatorIcEEE5__repELi0ELb0EE5__getB8ue170006Ev, symObjAddr: 0x32484, symBinAddr: 0x1000357F8, symSize: 0x14 }
  - { offsetInCU: 0x34540, offset: 0x34540, size: 0x8, addend: 0x0, symName: __ZNSt3__114pointer_traitsIPKcE10pointer_toB8ue170006ERS1_, symObjAddr: 0x32498, symBinAddr: 0x10003580C, symSize: 0x14 }
  - { offsetInCU: 0x34563, offset: 0x34563, size: 0x8, addend: 0x0, symName: __ZNSt3__112basic_stringIcNS_11char_traitsIcEENS_9allocatorIcEEE13__move_assignB8ue170006ERS5_NS_17integral_constantIbLb1EEE, symObjAddr: 0x324AC, symBinAddr: 0x100035820, symSize: 0x2D0 }
  - { offsetInCU: 0x345A9, offset: 0x345A9, size: 0x8, addend: 0x0, symName: __ZNSt3__116allocator_traitsINS_9allocatorIcEEE10deallocateB8ue170006ERS2_Pcm, symObjAddr: 0x3277C, symBinAddr: 0x100035AF0, symSize: 0x34 }
  - { offsetInCU: 0x345EB, offset: 0x345EB, size: 0x8, addend: 0x0, symName: __ZNSt3__112basic_stringIcNS_11char_traitsIcEENS_9allocatorIcEEE7__allocB8ue170006Ev, symObjAddr: 0x327B0, symBinAddr: 0x100035B24, symSize: 0x24 }
  - { offsetInCU: 0x34611, offset: 0x34611, size: 0x8, addend: 0x0, symName: __ZNSt3__112basic_stringIcNS_11char_traitsIcEENS_9allocatorIcEEE18__get_long_pointerB8ue170006Ev, symObjAddr: 0x327D4, symBinAddr: 0x100035B48, symSize: 0x6C }
  - { offsetInCU: 0x34637, offset: 0x34637, size: 0x8, addend: 0x0, symName: __ZNKSt3__112basic_stringIcNS_11char_traitsIcEENS_9allocatorIcEEE14__get_long_capB8ue170006Ev, symObjAddr: 0x32840, symBinAddr: 0x100035BB4, symSize: 0x78 }
  - { offsetInCU: 0x3465D, offset: 0x3465D, size: 0x8, addend: 0x0, symName: __ZNSt3__112basic_stringIcNS_11char_traitsIcEENS_9allocatorIcEEE19__move_assign_allocB8ue170006ERS5_, symObjAddr: 0x328B8, symBinAddr: 0x100035C2C, symSize: 0x2C }
  - { offsetInCU: 0x34692, offset: 0x34692, size: 0x8, addend: 0x0, symName: __ZNSt3__117__compressed_pairINS_12basic_stringIcNS_11char_traitsIcEENS_9allocatorIcEEE5__repES5_E5firstB8ue170006Ev, symObjAddr: 0x328E4, symBinAddr: 0x100035C58, symSize: 0x24 }
  - { offsetInCU: 0x346B8, offset: 0x346B8, size: 0x8, addend: 0x0, symName: __ZNSt3__112basic_stringIcNS_11char_traitsIcEENS_9allocatorIcEEE16__set_short_sizeB8ue170006Em, symObjAddr: 0x32908, symBinAddr: 0x100035C7C, symSize: 0x130 }
  - { offsetInCU: 0x346ED, offset: 0x346ED, size: 0x8, addend: 0x0, symName: __ZNSt3__111char_traitsIcE6assignB8ue170006ERcRKc, symObjAddr: 0x32A38, symBinAddr: 0x100035DAC, symSize: 0xF4 }
  - { offsetInCU: 0x3471E, offset: 0x3471E, size: 0x8, addend: 0x0, symName: __ZNSt3__112basic_stringIcNS_11char_traitsIcEENS_9allocatorIcEEE19__get_short_pointerB8ue170006Ev, symObjAddr: 0x32B2C, symBinAddr: 0x100035EA0, symSize: 0x28 }
  - { offsetInCU: 0x34744, offset: 0x34744, size: 0x8, addend: 0x0, symName: __ZNSt3__19allocatorIcE10deallocateB8ue170006EPcm, symObjAddr: 0x32B54, symBinAddr: 0x100035EC8, symSize: 0x4C }
  - { offsetInCU: 0x34786, offset: 0x34786, size: 0x8, addend: 0x0, symName: __ZNSt3__117__compressed_pairINS_12basic_stringIcNS_11char_traitsIcEENS_9allocatorIcEEE5__repES5_E6secondB8ue170006Ev, symObjAddr: 0x32CC8, symBinAddr: 0x10003603C, symSize: 0x24 }
  - { offsetInCU: 0x347AC, offset: 0x347AC, size: 0x8, addend: 0x0, symName: __ZNSt3__122__compressed_pair_elemINS_9allocatorIcEELi1ELb1EE5__getB8ue170006Ev, symObjAddr: 0x32CEC, symBinAddr: 0x100036060, symSize: 0x14 }
  - { offsetInCU: 0x347D2, offset: 0x347D2, size: 0x8, addend: 0x0, symName: __ZNSt3__112basic_stringIcNS_11char_traitsIcEENS_9allocatorIcEEE19__move_assign_allocB8ue170006ERS5_NS_17integral_constantIbLb1EEE, symObjAddr: 0x32D00, symBinAddr: 0x100036074, symSize: 0x38 }
  - { offsetInCU: 0x34813, offset: 0x34813, size: 0x8, addend: 0x0, symName: __ZNSt3__122__compressed_pair_elemINS_12basic_stringIcNS_11char_traitsIcEENS_9allocatorIcEEE5__repELi0ELb0EE5__getB8ue170006Ev, symObjAddr: 0x32D38, symBinAddr: 0x1000360AC, symSize: 0x14 }
  - { offsetInCU: 0x34839, offset: 0x34839, size: 0x8, addend: 0x0, symName: __ZNSt3__114pointer_traitsIPcE10pointer_toB8ue170006ERc, symObjAddr: 0x32D4C, symBinAddr: 0x1000360C0, symSize: 0x14 }
  - { offsetInCU: 0x3485C, offset: 0x3485C, size: 0x8, addend: 0x0, symName: __ZNKSt3__117basic_string_viewIcNS_11char_traitsIcEEE4sizeB8ue170006Ev, symObjAddr: 0x330A8, symBinAddr: 0x10003641C, symSize: 0x64 }
  - { offsetInCU: 0x34882, offset: 0x34882, size: 0x8, addend: 0x0, symName: __ZNKSt3__117basic_string_viewIcNS_11char_traitsIcEEE7compareES3_, symObjAddr: 0x3310C, symBinAddr: 0x100036480, symSize: 0x434 }
  - { offsetInCU: 0x348DC, offset: 0x348DC, size: 0x8, addend: 0x0, symName: __ZNKSt3__117basic_string_viewIcNS_11char_traitsIcEEE4dataB8ue170006Ev, symObjAddr: 0x3356C, symBinAddr: 0x1000368E0, symSize: 0x60 }
  - { offsetInCU: 0x3490C, offset: 0x3490C, size: 0x8, addend: 0x0, symName: __ZNKSt3__16__lessIvvEclB8ue170006ImmEEbRKT_RKT0_, symObjAddr: 0x337B4, symBinAddr: 0x100036B28, symSize: 0xBC }
  - { offsetInCU: 0x34960, offset: 0x34960, size: 0x8, addend: 0x0, symName: __ZNSt3__117basic_string_viewIcNS_11char_traitsIcEEEC1B8ue170006EPKcm, symObjAddr: 0x33870, symBinAddr: 0x100036BE4, symSize: 0x3C }
  - { offsetInCU: 0x349A8, offset: 0x349A8, size: 0x8, addend: 0x0, symName: __ZNSt3__117basic_string_viewIcNS_11char_traitsIcEEEC2B8ue170006EPKcm, symObjAddr: 0x338AC, symBinAddr: 0x100036C20, symSize: 0xBC }
  - { offsetInCU: 0x349F0, offset: 0x349F0, size: 0x8, addend: 0x0, symName: __ZNSt3__117basic_string_viewIcNS_11char_traitsIcEEEC2B8ue170006EPKc, symObjAddr: 0x33968, symBinAddr: 0x100036CDC, symSize: 0xC4 }
  - { offsetInCU: 0x34A29, offset: 0x34A29, size: 0x8, addend: 0x0, symName: __ZNSt3__118basic_stringstreamIcNS_11char_traitsIcEENS_9allocatorIcEEED2Ev, symObjAddr: 0x33A50, symBinAddr: 0x100036DC4, symSize: 0x214 }
  - { offsetInCU: 0x34A63, offset: 0x34A63, size: 0x8, addend: 0x0, symName: __ZThn16_NSt3__118basic_stringstreamIcNS_11char_traitsIcEENS_9allocatorIcEEED1Ev, symObjAddr: 0x33C64, symBinAddr: 0x100036FD8, symSize: 0x1C }
  - { offsetInCU: 0x34A7A, offset: 0x34A7A, size: 0x8, addend: 0x0, symName: __ZTv0_n24_NSt3__118basic_stringstreamIcNS_11char_traitsIcEENS_9allocatorIcEEED1Ev, symObjAddr: 0x33C80, symBinAddr: 0x100036FF4, symSize: 0xB0 }
  - { offsetInCU: 0x34A96, offset: 0x34A96, size: 0x8, addend: 0x0, symName: __ZNSt3__115basic_stringbufIcNS_11char_traitsIcEENS_9allocatorIcEEED1Ev, symObjAddr: 0x33D30, symBinAddr: 0x1000370A4, symSize: 0x2C }
  - { offsetInCU: 0x34AC3, offset: 0x34AC3, size: 0x8, addend: 0x0, symName: __ZNSt3__115basic_stringbufIcNS_11char_traitsIcEENS_9allocatorIcEEED2Ev, symObjAddr: 0x33D5C, symBinAddr: 0x1000370D0, symSize: 0x88 }
  - { offsetInCU: 0x34AF0, offset: 0x34AF0, size: 0x8, addend: 0x0, symName: __ZN20performance_countersC2Ed, symObjAddr: 0x33DE4, symBinAddr: 0x100037158, symSize: 0x140 }
  - { offsetInCU: 0x34B28, offset: 0x34B28, size: 0x8, addend: 0x0, symName: __ZN20performance_countersC2Eyyyy, symObjAddr: 0x33F24, symBinAddr: 0x100037298, symSize: 0x15C }
  - { offsetInCU: 0x34B8A, offset: 0x34B8A, size: 0x8, addend: 0x0, symName: __ZNSt3__16vectorINS_12basic_stringIcNS_11char_traitsIcEENS_9allocatorIcEEEENS4_IS6_EEEC2B8ue170006Ev, symObjAddr: 0x34080, symBinAddr: 0x1000373F4, symSize: 0x2E8 }
  - { offsetInCU: 0x34BBB, offset: 0x34BBB, size: 0x8, addend: 0x0, symName: __ZNSt3__117__compressed_pairIPNS_12basic_stringIcNS_11char_traitsIcEENS_9allocatorIcEEEENS4_IS6_EEEC1B8ue170006IDnNS_18__default_init_tagEEEOT_OT0_, symObjAddr: 0x34368, symBinAddr: 0x1000376DC, symSize: 0x3C }
  - { offsetInCU: 0x34C13, offset: 0x34C13, size: 0x8, addend: 0x0, symName: __ZNSt3__117__compressed_pairIPNS_12basic_stringIcNS_11char_traitsIcEENS_9allocatorIcEEEENS4_IS6_EEEC2B8ue170006IDnNS_18__default_init_tagEEEOT_OT0_, symObjAddr: 0x343A4, symBinAddr: 0x100037718, symSize: 0x40 }
  - { offsetInCU: 0x34C6B, offset: 0x34C6B, size: 0x8, addend: 0x0, symName: __ZNSt3__122__compressed_pair_elemIPNS_12basic_stringIcNS_11char_traitsIcEENS_9allocatorIcEEEELi0ELb0EEC2B8ue170006IDnvEEOT_, symObjAddr: 0x343E4, symBinAddr: 0x100037758, symSize: 0x64 }
  - { offsetInCU: 0x34CAD, offset: 0x34CAD, size: 0x8, addend: 0x0, symName: __ZNSt3__122__compressed_pair_elemINS_9allocatorINS_12basic_stringIcNS_11char_traitsIcEENS1_IcEEEEEELi1ELb1EEC2B8ue170006ENS_18__default_init_tagE, symObjAddr: 0x34448, symBinAddr: 0x1000377BC, symSize: 0x2C }
  - { offsetInCU: 0x34CE2, offset: 0x34CE2, size: 0x8, addend: 0x0, symName: __ZNSt3__19allocatorINS_12basic_stringIcNS_11char_traitsIcEENS0_IcEEEEEC2B8ue170006Ev, symObjAddr: 0x34474, symBinAddr: 0x1000377E8, symSize: 0x2C }
  - { offsetInCU: 0x34D0C, offset: 0x34D0C, size: 0x8, addend: 0x0, symName: __ZNSt3__116__non_trivial_ifILb1ENS_9allocatorINS_12basic_stringIcNS_11char_traitsIcEENS1_IcEEEEEEEC2B8ue170006Ev, symObjAddr: 0x344A0, symBinAddr: 0x100037814, symSize: 0x14 }
  - { offsetInCU: 0x34D36, offset: 0x34D36, size: 0x8, addend: 0x0, symName: __ZNSt3__112basic_stringIcNS_11char_traitsIcEENS_9allocatorIcEEEC2B8ue170006Ev, symObjAddr: 0x344B4, symBinAddr: 0x100037828, symSize: 0x20C }
  - { offsetInCU: 0x34D61, offset: 0x34D61, size: 0x8, addend: 0x0, symName: __ZNSt3__112basic_stringIcNS_11char_traitsIcEENS_9allocatorIcEEE14__default_initB8ue170006Ev, symObjAddr: 0x346C0, symBinAddr: 0x100037A34, symSize: 0x22C }
  - { offsetInCU: 0x34D88, offset: 0x34D88, size: 0x8, addend: 0x0, symName: __ZNSt3__112basic_stringIcNS_11char_traitsIcEENS_9allocatorIcEEE15__make_iteratorB8ue170006EPc, symObjAddr: 0x348EC, symBinAddr: 0x100037C60, symSize: 0x1FC }
  - { offsetInCU: 0x34DBF, offset: 0x34DBF, size: 0x8, addend: 0x0, symName: __ZNSt3__112basic_stringIcNS_11char_traitsIcEENS_9allocatorIcEEE13__get_pointerB8ue170006Ev, symObjAddr: 0x34AE8, symBinAddr: 0x100037E5C, symSize: 0x54 }
  - { offsetInCU: 0x34DE5, offset: 0x34DE5, size: 0x8, addend: 0x0, symName: __ZNSt3__111__wrap_iterIPcEC1B8ue170006ES1_, symObjAddr: 0x34B3C, symBinAddr: 0x100037EB0, symSize: 0x34 }
  - { offsetInCU: 0x34E1D, offset: 0x34E1D, size: 0x8, addend: 0x0, symName: __ZNSt3__111__wrap_iterIPcEC2B8ue170006ES1_, symObjAddr: 0x34B70, symBinAddr: 0x100037EE4, symSize: 0x70 }
  - { offsetInCU: 0x34E55, offset: 0x34E55, size: 0x8, addend: 0x0, symName: __ZNKSt3__111__wrap_iterIPcE4baseB8ue170006Ev, symObjAddr: 0x34C28, symBinAddr: 0x100037F9C, symSize: 0x60 }
  - { offsetInCU: 0x34E7B, offset: 0x34E7B, size: 0x8, addend: 0x0, symName: __ZNSt3__16vectorINS_12basic_stringIcNS_11char_traitsIcEENS_9allocatorIcEEEENS4_IS6_EEE9__end_capB8ue170006Ev, symObjAddr: 0x34C88, symBinAddr: 0x100037FFC, symSize: 0x28 }
  - { offsetInCU: 0x34EA1, offset: 0x34EA1, size: 0x8, addend: 0x0, symName: __ZNSt3__16vectorINS_12basic_stringIcNS_11char_traitsIcEENS_9allocatorIcEEEENS4_IS6_EEE22__construct_one_at_endB8ue170006IJRKS6_EEEvDpOT_, symObjAddr: 0x34CB0, symBinAddr: 0x100038024, symSize: 0x36C }
  - { offsetInCU: 0x34EF6, offset: 0x34EF6, size: 0x8, addend: 0x0, symName: __ZNSt3__16vectorINS_12basic_stringIcNS_11char_traitsIcEENS_9allocatorIcEEEENS4_IS6_EEE21__push_back_slow_pathIRKS6_EEvOT_, symObjAddr: 0x3501C, symBinAddr: 0x100038390, symSize: 0x3C0 }
  - { offsetInCU: 0x34F5B, offset: 0x34F5B, size: 0x8, addend: 0x0, symName: __ZNSt3__117__compressed_pairIPNS_12basic_stringIcNS_11char_traitsIcEENS_9allocatorIcEEEENS4_IS6_EEE5firstB8ue170006Ev, symObjAddr: 0x353DC, symBinAddr: 0x100038750, symSize: 0x24 }
  - { offsetInCU: 0x34F81, offset: 0x34F81, size: 0x8, addend: 0x0, symName: __ZNSt3__122__compressed_pair_elemIPNS_12basic_stringIcNS_11char_traitsIcEENS_9allocatorIcEEEELi0ELb0EE5__getB8ue170006Ev, symObjAddr: 0x35400, symBinAddr: 0x100038774, symSize: 0x14 }
  - { offsetInCU: 0x34FC2, offset: 0x34FC2, size: 0x8, addend: 0x0, symName: __ZNSt3__16vectorINS_12basic_stringIcNS_11char_traitsIcEENS_9allocatorIcEEEENS4_IS6_EEE21_ConstructTransactionC1B8ue170006ERS8_m, symObjAddr: 0x35414, symBinAddr: 0x100038788, symSize: 0x3C }
  - { offsetInCU: 0x3500A, offset: 0x3500A, size: 0x8, addend: 0x0, symName: __ZNSt3__116allocator_traitsINS_9allocatorINS_12basic_stringIcNS_11char_traitsIcEENS1_IcEEEEEEE9constructB8ue170006IS6_JRKS6_EvvEEvRS7_PT_DpOT0_, symObjAddr: 0x35450, symBinAddr: 0x1000387C4, symSize: 0x30 }
  - { offsetInCU: 0x3505F, offset: 0x3505F, size: 0x8, addend: 0x0, symName: __ZNSt3__16vectorINS_12basic_stringIcNS_11char_traitsIcEENS_9allocatorIcEEEENS4_IS6_EEE7__allocB8ue170006Ev, symObjAddr: 0x35480, symBinAddr: 0x1000387F4, symSize: 0x28 }
  - { offsetInCU: 0x35085, offset: 0x35085, size: 0x8, addend: 0x0, symName: __ZNSt3__16vectorINS_12basic_stringIcNS_11char_traitsIcEENS_9allocatorIcEEEENS4_IS6_EEE21_ConstructTransactionD1B8ue170006Ev, symObjAddr: 0x354BC, symBinAddr: 0x100038830, symSize: 0x2C }
  - { offsetInCU: 0x350AF, offset: 0x350AF, size: 0x8, addend: 0x0, symName: __ZNSt3__16vectorINS_12basic_stringIcNS_11char_traitsIcEENS_9allocatorIcEEEENS4_IS6_EEE21_ConstructTransactionC2B8ue170006ERS8_m, symObjAddr: 0x354E8, symBinAddr: 0x10003885C, symSize: 0x1D8 }
  - { offsetInCU: 0x350F7, offset: 0x350F7, size: 0x8, addend: 0x0, symName: __ZNKSt3__16vectorINS_12basic_stringIcNS_11char_traitsIcEENS_9allocatorIcEEEENS4_IS6_EEE19__annotate_increaseB8ue170006Em, symObjAddr: 0x356C0, symBinAddr: 0x100038A34, symSize: 0xF8 }
  - { offsetInCU: 0x3512C, offset: 0x3512C, size: 0x8, addend: 0x0, symName: __ZNKSt3__16vectorINS_12basic_stringIcNS_11char_traitsIcEENS_9allocatorIcEEEENS4_IS6_EEE31__annotate_contiguous_containerEPKvSA_SA_SA_, symObjAddr: 0x357B8, symBinAddr: 0x100038B2C, symSize: 0x58 }
  - { offsetInCU: 0x3518E, offset: 0x3518E, size: 0x8, addend: 0x0, symName: __ZNKSt3__16vectorINS_12basic_stringIcNS_11char_traitsIcEENS_9allocatorIcEEEENS4_IS6_EEE4dataB8ue170006Ev, symObjAddr: 0x35810, symBinAddr: 0x100038B84, symSize: 0x64 }
  - { offsetInCU: 0x351B4, offset: 0x351B4, size: 0x8, addend: 0x0, symName: __ZNKSt3__16vectorINS_12basic_stringIcNS_11char_traitsIcEENS_9allocatorIcEEEENS4_IS6_EEE8capacityB8ue170006Ev, symObjAddr: 0x35874, symBinAddr: 0x100038BE8, symSize: 0xBC }
  - { offsetInCU: 0x351DA, offset: 0x351DA, size: 0x8, addend: 0x0, symName: __ZNKSt3__16vectorINS_12basic_stringIcNS_11char_traitsIcEENS_9allocatorIcEEEENS4_IS6_EEE9__end_capB8ue170006Ev, symObjAddr: 0x35930, symBinAddr: 0x100038CA4, symSize: 0x28 }
  - { offsetInCU: 0x35200, offset: 0x35200, size: 0x8, addend: 0x0, symName: __ZNKSt3__117__compressed_pairIPNS_12basic_stringIcNS_11char_traitsIcEENS_9allocatorIcEEEENS4_IS6_EEE5firstB8ue170006Ev, symObjAddr: 0x35958, symBinAddr: 0x100038CCC, symSize: 0x24 }
  - { offsetInCU: 0x35226, offset: 0x35226, size: 0x8, addend: 0x0, symName: __ZNKSt3__122__compressed_pair_elemIPNS_12basic_stringIcNS_11char_traitsIcEENS_9allocatorIcEEEELi0ELb0EE5__getB8ue170006Ev, symObjAddr: 0x3597C, symBinAddr: 0x100038CF0, symSize: 0x14 }
  - { offsetInCU: 0x3524C, offset: 0x3524C, size: 0x8, addend: 0x0, symName: __ZNSt3__117__compressed_pairIPNS_12basic_stringIcNS_11char_traitsIcEENS_9allocatorIcEEEENS4_IS6_EEE6secondB8ue170006Ev, symObjAddr: 0x359CC, symBinAddr: 0x100038D40, symSize: 0x24 }
  - { offsetInCU: 0x35272, offset: 0x35272, size: 0x8, addend: 0x0, symName: __ZNSt3__122__compressed_pair_elemINS_9allocatorINS_12basic_stringIcNS_11char_traitsIcEENS1_IcEEEEEELi1ELb1EE5__getB8ue170006Ev, symObjAddr: 0x359F0, symBinAddr: 0x100038D64, symSize: 0x14 }
  - { offsetInCU: 0x35298, offset: 0x35298, size: 0x8, addend: 0x0, symName: __ZNSt3__16vectorINS_12basic_stringIcNS_11char_traitsIcEENS_9allocatorIcEEEENS4_IS6_EEE21_ConstructTransactionD2B8ue170006Ev, symObjAddr: 0x35A04, symBinAddr: 0x100038D78, symSize: 0x278 }
  - { offsetInCU: 0x352C2, offset: 0x352C2, size: 0x8, addend: 0x0, symName: __ZNKSt3__16vectorINS_12basic_stringIcNS_11char_traitsIcEENS_9allocatorIcEEEENS4_IS6_EEE17__annotate_shrinkB8ue170006Em, symObjAddr: 0x35C7C, symBinAddr: 0x100038FF0, symSize: 0xE4 }
  - { offsetInCU: 0x352F7, offset: 0x352F7, size: 0x8, addend: 0x0, symName: __ZNKSt3__16vectorINS_12basic_stringIcNS_11char_traitsIcEENS_9allocatorIcEEEENS4_IS6_EEE11__recommendB8ue170006Em, symObjAddr: 0x35D60, symBinAddr: 0x1000390D4, symSize: 0x384 }
  - { offsetInCU: 0x35353, offset: 0x35353, size: 0x8, addend: 0x0, symName: __ZNSt3__114__split_bufferINS_12basic_stringIcNS_11char_traitsIcEENS_9allocatorIcEEEERNS4_IS6_EEEC1EmmS8_, symObjAddr: 0x360E4, symBinAddr: 0x100039458, symSize: 0x44 }
  - { offsetInCU: 0x353A9, offset: 0x353A9, size: 0x8, addend: 0x0, symName: __ZNSt3__114__split_bufferINS_12basic_stringIcNS_11char_traitsIcEENS_9allocatorIcEEEERNS4_IS6_EEED1Ev, symObjAddr: 0x36694, symBinAddr: 0x100039A08, symSize: 0x2C }
  - { offsetInCU: 0x353D5, offset: 0x353D5, size: 0x8, addend: 0x0, symName: __ZNKSt3__16vectorINS_12basic_stringIcNS_11char_traitsIcEENS_9allocatorIcEEEENS4_IS6_EEE8max_sizeEv, symObjAddr: 0x366C0, symBinAddr: 0x100039A34, symSize: 0x2FC }
  - { offsetInCU: 0x353FE, offset: 0x353FE, size: 0x8, addend: 0x0, symName: __ZNKSt3__16vectorINS_12basic_stringIcNS_11char_traitsIcEENS_9allocatorIcEEEENS4_IS6_EEE20__throw_length_errorB8ue170006Ev, symObjAddr: 0x369BC, symBinAddr: 0x100039D30, symSize: 0x20 }
  - { offsetInCU: 0x3542F, offset: 0x3542F, size: 0x8, addend: 0x0, symName: __ZNSt3__116allocator_traitsINS_9allocatorINS_12basic_stringIcNS_11char_traitsIcEENS1_IcEEEEEEE8max_sizeB8ue170006IS7_vvEEmRKS7_, symObjAddr: 0x36A08, symBinAddr: 0x100039D7C, symSize: 0x28 }
  - { offsetInCU: 0x3545B, offset: 0x3545B, size: 0x8, addend: 0x0, symName: __ZNKSt3__16vectorINS_12basic_stringIcNS_11char_traitsIcEENS_9allocatorIcEEEENS4_IS6_EEE7__allocB8ue170006Ev, symObjAddr: 0x36A30, symBinAddr: 0x100039DA4, symSize: 0x28 }
  - { offsetInCU: 0x35481, offset: 0x35481, size: 0x8, addend: 0x0, symName: __ZNSt3__114numeric_limitsIlE3maxB8ue170006Ev, symObjAddr: 0x36A58, symBinAddr: 0x100039DCC, symSize: 0x14 }
  - { offsetInCU: 0x35495, offset: 0x35495, size: 0x8, addend: 0x0, symName: __ZNSt3__114numeric_limitsImE3maxB8ue170006Ev, symObjAddr: 0x36A6C, symBinAddr: 0x100039DE0, symSize: 0x14 }
  - { offsetInCU: 0x354A9, offset: 0x354A9, size: 0x8, addend: 0x0, symName: __ZNSt3__123__libcpp_numeric_limitsImLb1EE3maxB8ue170006Ev, symObjAddr: 0x36A80, symBinAddr: 0x100039DF4, symSize: 0x8 }
  - { offsetInCU: 0x354BD, offset: 0x354BD, size: 0x8, addend: 0x0, symName: __ZNKSt3__117__compressed_pairIPNS_12basic_stringIcNS_11char_traitsIcEENS_9allocatorIcEEEENS4_IS6_EEE6secondB8ue170006Ev, symObjAddr: 0x36A88, symBinAddr: 0x100039DFC, symSize: 0x24 }
  - { offsetInCU: 0x354E3, offset: 0x354E3, size: 0x8, addend: 0x0, symName: __ZNKSt3__122__compressed_pair_elemINS_9allocatorINS_12basic_stringIcNS_11char_traitsIcEENS1_IcEEEEEELi1ELb1EE5__getB8ue170006Ev, symObjAddr: 0x36AAC, symBinAddr: 0x100039E20, symSize: 0x14 }
  - { offsetInCU: 0x35509, offset: 0x35509, size: 0x8, addend: 0x0, symName: __ZNSt3__123__libcpp_numeric_limitsIlLb1EE3maxB8ue170006Ev, symObjAddr: 0x36AC0, symBinAddr: 0x100039E34, symSize: 0x8 }
  - { offsetInCU: 0x3551D, offset: 0x3551D, size: 0x8, addend: 0x0, symName: __ZNSt12length_errorC1B8ue170006EPKc, symObjAddr: 0x36B30, symBinAddr: 0x100039EA4, symSize: 0x34 }
  - { offsetInCU: 0x35555, offset: 0x35555, size: 0x8, addend: 0x0, symName: __ZNSt12length_errorC2B8ue170006EPKc, symObjAddr: 0x36B64, symBinAddr: 0x100039ED8, symSize: 0x8C }
  - { offsetInCU: 0x3558D, offset: 0x3558D, size: 0x8, addend: 0x0, symName: __ZNSt3__114__split_bufferINS_12basic_stringIcNS_11char_traitsIcEENS_9allocatorIcEEEERNS4_IS6_EEEC2EmmS8_, symObjAddr: 0x36DD8, symBinAddr: 0x10003A14C, symSize: 0x530 }
  - { offsetInCU: 0x35608, offset: 0x35608, size: 0x8, addend: 0x0, symName: __ZNSt3__117__compressed_pairIPNS_12basic_stringIcNS_11char_traitsIcEENS_9allocatorIcEEEERNS4_IS6_EEEC1B8ue170006IDnS9_EEOT_OT0_, symObjAddr: 0x37308, symBinAddr: 0x10003A67C, symSize: 0x3C }
  - { offsetInCU: 0x35660, offset: 0x35660, size: 0x8, addend: 0x0, symName: __ZNSt3__114__split_bufferINS_12basic_stringIcNS_11char_traitsIcEENS_9allocatorIcEEEERNS4_IS6_EEE7__allocB8ue170006Ev, symObjAddr: 0x375D0, symBinAddr: 0x10003A944, symSize: 0x28 }
  - { offsetInCU: 0x35686, offset: 0x35686, size: 0x8, addend: 0x0, symName: __ZNSt3__114__split_bufferINS_12basic_stringIcNS_11char_traitsIcEENS_9allocatorIcEEEERNS4_IS6_EEE9__end_capB8ue170006Ev, symObjAddr: 0x375F8, symBinAddr: 0x10003A96C, symSize: 0x28 }
  - { offsetInCU: 0x356AC, offset: 0x356AC, size: 0x8, addend: 0x0, symName: __ZNSt3__117__compressed_pairIPNS_12basic_stringIcNS_11char_traitsIcEENS_9allocatorIcEEEERNS4_IS6_EEEC2B8ue170006IDnS9_EEOT_OT0_, symObjAddr: 0x37620, symBinAddr: 0x10003A994, symSize: 0x48 }
  - { offsetInCU: 0x35704, offset: 0x35704, size: 0x8, addend: 0x0, symName: __ZNSt3__122__compressed_pair_elemIRNS_9allocatorINS_12basic_stringIcNS_11char_traitsIcEENS1_IcEEEEEELi1ELb0EEC2B8ue170006IS8_vEEOT_, symObjAddr: 0x37668, symBinAddr: 0x10003A9DC, symSize: 0x70 }
  - { offsetInCU: 0x35746, offset: 0x35746, size: 0x8, addend: 0x0, symName: __ZNSt3__19allocatorINS_12basic_stringIcNS_11char_traitsIcEENS0_IcEEEEE8allocateB8ue170006Em, symObjAddr: 0x376D8, symBinAddr: 0x10003AA4C, symSize: 0x60 }
  - { offsetInCU: 0x3577A, offset: 0x3577A, size: 0x8, addend: 0x0, symName: __ZNSt3__117__compressed_pairIPNS_12basic_stringIcNS_11char_traitsIcEENS_9allocatorIcEEEERNS4_IS6_EEE6secondB8ue170006Ev, symObjAddr: 0x37820, symBinAddr: 0x10003AB94, symSize: 0x28 }
  - { offsetInCU: 0x357A0, offset: 0x357A0, size: 0x8, addend: 0x0, symName: __ZNSt3__122__compressed_pair_elemIRNS_9allocatorINS_12basic_stringIcNS_11char_traitsIcEENS1_IcEEEEEELi1ELb0EE5__getB8ue170006Ev, symObjAddr: 0x37848, symBinAddr: 0x10003ABBC, symSize: 0x60 }
  - { offsetInCU: 0x357C6, offset: 0x357C6, size: 0x8, addend: 0x0, symName: __ZNSt3__117__compressed_pairIPNS_12basic_stringIcNS_11char_traitsIcEENS_9allocatorIcEEEERNS4_IS6_EEE5firstB8ue170006Ev, symObjAddr: 0x378A8, symBinAddr: 0x10003AC1C, symSize: 0x24 }
  - { offsetInCU: 0x357EC, offset: 0x357EC, size: 0x8, addend: 0x0, symName: __ZNKSt3__16vectorINS_12basic_stringIcNS_11char_traitsIcEENS_9allocatorIcEEEENS4_IS6_EEE17__annotate_deleteB8ue170006Ev, symObjAddr: 0x378CC, symBinAddr: 0x10003AC40, symSize: 0xE8 }
  - { offsetInCU: 0x35812, offset: 0x35812, size: 0x8, addend: 0x0, symName: __ZNSt3__116reverse_iteratorIPNS_12basic_stringIcNS_11char_traitsIcEENS_9allocatorIcEEEEEC1B8ue170006ES7_, symObjAddr: 0x37EF8, symBinAddr: 0x10003B26C, symSize: 0x34 }
  - { offsetInCU: 0x3584A, offset: 0x3584A, size: 0x8, addend: 0x0, symName: __ZNKSt3__116reverse_iteratorIPNS_12basic_stringIcNS_11char_traitsIcEENS_9allocatorIcEEEEE4baseB8ue170006Ev, symObjAddr: 0x37F2C, symBinAddr: 0x10003B2A0, symSize: 0x64 }
  - { offsetInCU: 0x35870, offset: 0x35870, size: 0x8, addend: 0x0, symName: __ZNKSt3__16vectorINS_12basic_stringIcNS_11char_traitsIcEENS_9allocatorIcEEEENS4_IS6_EEE14__annotate_newB8ue170006Em, symObjAddr: 0x380C4, symBinAddr: 0x10003B438, symSize: 0xDC }
  - { offsetInCU: 0x358A5, offset: 0x358A5, size: 0x8, addend: 0x0, symName: __ZNSt3__129_AllocatorDestroyRangeReverseINS_9allocatorINS_12basic_stringIcNS_11char_traitsIcEENS1_IcEEEEEENS_16reverse_iteratorIPS6_EEEC1B8ue170006ERS7_RSA_SD_, symObjAddr: 0x38398, symBinAddr: 0x10003B70C, symSize: 0x44 }
  - { offsetInCU: 0x35902, offset: 0x35902, size: 0x8, addend: 0x0, symName: __ZNSt3__116allocator_traitsINS_9allocatorINS_12basic_stringIcNS_11char_traitsIcEENS1_IcEEEEEEE9constructB8ue170006IS6_JS6_EvvEEvRS7_PT_DpOT0_, symObjAddr: 0x38424, symBinAddr: 0x10003B798, symSize: 0x30 }
  - { offsetInCU: 0x35957, offset: 0x35957, size: 0x8, addend: 0x0, symName: __ZNKSt3__116reverse_iteratorIPNS_12basic_stringIcNS_11char_traitsIcEENS_9allocatorIcEEEEEdeB8ue170006Ev, symObjAddr: 0x38478, symBinAddr: 0x10003B7EC, symSize: 0x74 }
  - { offsetInCU: 0x3598B, offset: 0x3598B, size: 0x8, addend: 0x0, symName: __ZNSt3__116reverse_iteratorIPNS_12basic_stringIcNS_11char_traitsIcEENS_9allocatorIcEEEEEppB8ue170006Ev, symObjAddr: 0x384EC, symBinAddr: 0x10003B860, symSize: 0x6C }
  - { offsetInCU: 0x359B1, offset: 0x359B1, size: 0x8, addend: 0x0, symName: __ZNSt3__128__exception_guard_exceptionsINS_29_AllocatorDestroyRangeReverseINS_9allocatorINS_12basic_stringIcNS_11char_traitsIcEENS2_IcEEEEEENS_16reverse_iteratorIPS7_EEEEE10__completeB8ue170006Ev, symObjAddr: 0x38558, symBinAddr: 0x10003B8CC, symSize: 0x8C }
  - { offsetInCU: 0x359D7, offset: 0x359D7, size: 0x8, addend: 0x0, symName: __ZNSt3__128__exception_guard_exceptionsINS_29_AllocatorDestroyRangeReverseINS_9allocatorINS_12basic_stringIcNS_11char_traitsIcEENS2_IcEEEEEENS_16reverse_iteratorIPS7_EEEEED1B8ue170006Ev, symObjAddr: 0x385E4, symBinAddr: 0x10003B958, symSize: 0x2C }
  - { offsetInCU: 0x35A01, offset: 0x35A01, size: 0x8, addend: 0x0, symName: __ZNSt3__128__exception_guard_exceptionsINS_29_AllocatorDestroyRangeReverseINS_9allocatorINS_12basic_stringIcNS_11char_traitsIcEENS2_IcEEEEEENS_16reverse_iteratorIPS7_EEEEEC1B8ue170006ESC_, symObjAddr: 0x38610, symBinAddr: 0x10003B984, symSize: 0x34 }
  - { offsetInCU: 0x35A3A, offset: 0x35A3A, size: 0x8, addend: 0x0, symName: __ZNSt3__128__exception_guard_exceptionsINS_29_AllocatorDestroyRangeReverseINS_9allocatorINS_12basic_stringIcNS_11char_traitsIcEENS2_IcEEEEEENS_16reverse_iteratorIPS7_EEEEEC2B8ue170006ESC_, symObjAddr: 0x38644, symBinAddr: 0x10003B9B8, symSize: 0xA4 }
  - { offsetInCU: 0x35A73, offset: 0x35A73, size: 0x8, addend: 0x0, symName: __ZNSt3__129_AllocatorDestroyRangeReverseINS_9allocatorINS_12basic_stringIcNS_11char_traitsIcEENS1_IcEEEEEENS_16reverse_iteratorIPS6_EEEC2B8ue170006ERS7_RSA_SD_, symObjAddr: 0x386E8, symBinAddr: 0x10003BA5C, symSize: 0x104 }
  - { offsetInCU: 0x35ACA, offset: 0x35ACA, size: 0x8, addend: 0x0, symName: __ZNSt3__112basic_stringIcNS_11char_traitsIcEENS_9allocatorIcEEEC1B8ue170006EOS5_, symObjAddr: 0x38828, symBinAddr: 0x10003BB9C, symSize: 0x34 }
  - { offsetInCU: 0x35B03, offset: 0x35B03, size: 0x8, addend: 0x0, symName: __ZNSt3__112basic_stringIcNS_11char_traitsIcEENS_9allocatorIcEEEC2B8ue170006EOS5_, symObjAddr: 0x3885C, symBinAddr: 0x10003BBD0, symSize: 0x40 }
  - { offsetInCU: 0x35B42, offset: 0x35B42, size: 0x8, addend: 0x0, symName: __ZNSt3__119__to_address_helperINS_16reverse_iteratorIPNS_12basic_stringIcNS_11char_traitsIcEENS_9allocatorIcEEEEEEvE6__callB8ue170006ERKS9_, symObjAddr: 0x3889C, symBinAddr: 0x10003BC10, symSize: 0x44 }
  - { offsetInCU: 0x35B65, offset: 0x35B65, size: 0x8, addend: 0x0, symName: __ZNKSt3__116reverse_iteratorIPNS_12basic_stringIcNS_11char_traitsIcEENS_9allocatorIcEEEEEptB8ue170006Ev, symObjAddr: 0x388E0, symBinAddr: 0x10003BC54, symSize: 0x6C }
  - { offsetInCU: 0x35B8B, offset: 0x35B8B, size: 0x8, addend: 0x0, symName: __ZNSt3__128__exception_guard_exceptionsINS_29_AllocatorDestroyRangeReverseINS_9allocatorINS_12basic_stringIcNS_11char_traitsIcEENS2_IcEEEEEENS_16reverse_iteratorIPS7_EEEEED2B8ue170006Ev, symObjAddr: 0x38C58, symBinAddr: 0x10003BFCC, symSize: 0xBC }
  - { offsetInCU: 0x35BB5, offset: 0x35BB5, size: 0x8, addend: 0x0, symName: __ZNKSt3__129_AllocatorDestroyRangeReverseINS_9allocatorINS_12basic_stringIcNS_11char_traitsIcEENS1_IcEEEEEENS_16reverse_iteratorIPS6_EEEclB8ue170006Ev, symObjAddr: 0x38D14, symBinAddr: 0x10003C088, symSize: 0x3A8 }
  - { offsetInCU: 0x35BDC, offset: 0x35BDC, size: 0x8, addend: 0x0, symName: __ZNSt3__116reverse_iteratorINS0_IPNS_12basic_stringIcNS_11char_traitsIcEENS_9allocatorIcEEEEEEEC1B8ue170006ES8_, symObjAddr: 0x3912C, symBinAddr: 0x10003C4A0, symSize: 0x248 }
  - { offsetInCU: 0x35C19, offset: 0x35C19, size: 0x8, addend: 0x0, symName: __ZNSt3__116allocator_traitsINS_9allocatorINS_12basic_stringIcNS_11char_traitsIcEENS1_IcEEEEEEE7destroyB8ue170006IS6_vvEEvRS7_PT_, symObjAddr: 0x39640, symBinAddr: 0x10003C9B4, symSize: 0x28 }
  - { offsetInCU: 0x35C54, offset: 0x35C54, size: 0x8, addend: 0x0, symName: __ZNSt3__116reverse_iteratorINS0_IPNS_12basic_stringIcNS_11char_traitsIcEENS_9allocatorIcEEEEEEEppB8ue170006Ev, symObjAddr: 0x3968C, symBinAddr: 0x10003CA00, symSize: 0x30 }
  - { offsetInCU: 0x35C7A, offset: 0x35C7A, size: 0x8, addend: 0x0, symName: __ZNKSt3__116reverse_iteratorINS0_IPNS_12basic_stringIcNS_11char_traitsIcEENS_9allocatorIcEEEEEEE4baseB8ue170006Ev, symObjAddr: 0x396BC, symBinAddr: 0x10003CA30, symSize: 0x20C }
  - { offsetInCU: 0x35CA7, offset: 0x35CA7, size: 0x8, addend: 0x0, symName: __ZNSt3__119__to_address_helperINS_16reverse_iteratorINS1_IPNS_12basic_stringIcNS_11char_traitsIcEENS_9allocatorIcEEEEEEEEvE6__callB8ue170006ERKSA_, symObjAddr: 0x39910, symBinAddr: 0x10003CC84, symSize: 0x44 }
  - { offsetInCU: 0x35CCA, offset: 0x35CCA, size: 0x8, addend: 0x0, symName: __ZNKSt3__116reverse_iteratorINS0_IPNS_12basic_stringIcNS_11char_traitsIcEENS_9allocatorIcEEEEEEEptB8ue170006Ev, symObjAddr: 0x39954, symBinAddr: 0x10003CCC8, symSize: 0x2A0 }
  - { offsetInCU: 0x35CF1, offset: 0x35CF1, size: 0x8, addend: 0x0, symName: __ZNSt3__116reverse_iteratorIPNS_12basic_stringIcNS_11char_traitsIcEENS_9allocatorIcEEEEEpLB8ue170006El, symObjAddr: 0x39EEC, symBinAddr: 0x10003D260, symSize: 0x84 }
  - { offsetInCU: 0x35D25, offset: 0x35D25, size: 0x8, addend: 0x0, symName: __ZNSt3__116reverse_iteratorIPNS_12basic_stringIcNS_11char_traitsIcEENS_9allocatorIcEEEEEmmB8ue170006Ev, symObjAddr: 0x39F70, symBinAddr: 0x10003D2E4, symSize: 0x6C }
  - { offsetInCU: 0x35D4B, offset: 0x35D4B, size: 0x8, addend: 0x0, symName: __ZNSt3__116reverse_iteratorINS0_IPNS_12basic_stringIcNS_11char_traitsIcEENS_9allocatorIcEEEEEEEC2B8ue170006ES8_, symObjAddr: 0x39FDC, symBinAddr: 0x10003D350, symSize: 0x22C }
  - { offsetInCU: 0x35D88, offset: 0x35D88, size: 0x8, addend: 0x0, symName: __ZNSt3__116reverse_iteratorIPNS_12basic_stringIcNS_11char_traitsIcEENS_9allocatorIcEEEEEC2B8ue170006ES7_, symObjAddr: 0x3A208, symBinAddr: 0x10003D57C, symSize: 0xB8 }
  - { offsetInCU: 0x35DC0, offset: 0x35DC0, size: 0x8, addend: 0x0, symName: __ZNSt3__114__split_bufferINS_12basic_stringIcNS_11char_traitsIcEENS_9allocatorIcEEEERNS4_IS6_EEED2Ev, symObjAddr: 0x3A2C0, symBinAddr: 0x10003D634, symSize: 0x104 }
  - { offsetInCU: 0x35DEC, offset: 0x35DEC, size: 0x8, addend: 0x0, symName: __ZNSt3__114__split_bufferINS_12basic_stringIcNS_11char_traitsIcEENS_9allocatorIcEEEERNS4_IS6_EEE5clearB8ue170006Ev, symObjAddr: 0x3A3C4, symBinAddr: 0x10003D738, symSize: 0x68 }
  - { offsetInCU: 0x35E12, offset: 0x35E12, size: 0x8, addend: 0x0, symName: __ZNSt3__116allocator_traitsINS_9allocatorINS_12basic_stringIcNS_11char_traitsIcEENS1_IcEEEEEEE10deallocateB8ue170006ERS7_PS6_m, symObjAddr: 0x3A42C, symBinAddr: 0x10003D7A0, symSize: 0x34 }
  - { offsetInCU: 0x35E54, offset: 0x35E54, size: 0x8, addend: 0x0, symName: __ZNKSt3__114__split_bufferINS_12basic_stringIcNS_11char_traitsIcEENS_9allocatorIcEEEERNS4_IS6_EEE8capacityB8ue170006Ev, symObjAddr: 0x3A460, symBinAddr: 0x10003D7D4, symSize: 0xBC }
  - { offsetInCU: 0x35E7A, offset: 0x35E7A, size: 0x8, addend: 0x0, symName: __ZNSt3__114__split_bufferINS_12basic_stringIcNS_11char_traitsIcEENS_9allocatorIcEEEERNS4_IS6_EEE17__destruct_at_endB8ue170006EPS6_, symObjAddr: 0x3A51C, symBinAddr: 0x10003D890, symSize: 0x2C }
  - { offsetInCU: 0x35EAE, offset: 0x35EAE, size: 0x8, addend: 0x0, symName: __ZNSt3__114__split_bufferINS_12basic_stringIcNS_11char_traitsIcEENS_9allocatorIcEEEERNS4_IS6_EEE17__destruct_at_endB8ue170006EPS6_NS_17integral_constantIbLb0EEE, symObjAddr: 0x3A548, symBinAddr: 0x10003D8BC, symSize: 0x10C }
  - { offsetInCU: 0x35EEF, offset: 0x35EEF, size: 0x8, addend: 0x0, symName: __ZNSt3__19allocatorINS_12basic_stringIcNS_11char_traitsIcEENS0_IcEEEEE10deallocateB8ue170006EPS5_m, symObjAddr: 0x3A654, symBinAddr: 0x10003D9C8, symSize: 0x50 }
  - { offsetInCU: 0x35F31, offset: 0x35F31, size: 0x8, addend: 0x0, symName: __ZNKSt3__114__split_bufferINS_12basic_stringIcNS_11char_traitsIcEENS_9allocatorIcEEEERNS4_IS6_EEE9__end_capB8ue170006Ev, symObjAddr: 0x3A6A4, symBinAddr: 0x10003DA18, symSize: 0x28 }
  - { offsetInCU: 0x35F57, offset: 0x35F57, size: 0x8, addend: 0x0, symName: __ZNKSt3__117__compressed_pairIPNS_12basic_stringIcNS_11char_traitsIcEENS_9allocatorIcEEEERNS4_IS6_EEE5firstB8ue170006Ev, symObjAddr: 0x3A6CC, symBinAddr: 0x10003DA40, symSize: 0x24 }
  - { offsetInCU: 0x35F7D, offset: 0x35F7D, size: 0x8, addend: 0x0, symName: __ZNSt3__16vectorINS_12basic_stringIcNS_11char_traitsIcEENS_9allocatorIcEEEENS4_IS6_EEE11__make_iterB8ue170006EPS6_, symObjAddr: 0x3A6F0, symBinAddr: 0x10003DA64, symSize: 0x1FC }
  - { offsetInCU: 0x35FB4, offset: 0x35FB4, size: 0x8, addend: 0x0, symName: __ZNSt3__111__wrap_iterIPNS_12basic_stringIcNS_11char_traitsIcEENS_9allocatorIcEEEEEC1B8ue170006ES7_, symObjAddr: 0x3A8EC, symBinAddr: 0x10003DC60, symSize: 0x34 }
  - { offsetInCU: 0x35FEC, offset: 0x35FEC, size: 0x8, addend: 0x0, symName: __ZNSt3__111__wrap_iterIPNS_12basic_stringIcNS_11char_traitsIcEENS_9allocatorIcEEEEEC2B8ue170006ES7_, symObjAddr: 0x3A920, symBinAddr: 0x10003DC94, symSize: 0x70 }
  - { offsetInCU: 0x36024, offset: 0x36024, size: 0x8, addend: 0x0, symName: __ZNKSt3__111__wrap_iterIPNS_12basic_stringIcNS_11char_traitsIcEENS_9allocatorIcEEEEE4baseB8ue170006Ev, symObjAddr: 0x3A9D8, symBinAddr: 0x10003DD4C, symSize: 0x60 }
  - { offsetInCU: 0x3604A, offset: 0x3604A, size: 0x8, addend: 0x0, symName: __ZNSt3__16vectorINS_4pairINS_12basic_stringIcNS_11char_traitsIcEENS_9allocatorIcEEEEjEENS5_IS8_EEEC2INS_19__hash_map_iteratorINS_15__hash_iteratorIPNS_11__hash_nodeINS_17__hash_value_typeIS7_jEEPvEEEEEELi0EEET_SM_, symObjAddr: 0x3AA38, symBinAddr: 0x10003DDAC, symSize: 0x538 }
  - { offsetInCU: 0x360CA, offset: 0x360CA, size: 0x8, addend: 0x0, symName: __ZNSt3__117__compressed_pairIPNS_4pairINS_12basic_stringIcNS_11char_traitsIcEENS_9allocatorIcEEEEjEENS5_IS8_EEEC1B8ue170006IDnNS_18__default_init_tagEEEOT_OT0_, symObjAddr: 0x3AF70, symBinAddr: 0x10003E2E4, symSize: 0x3C }
  - { offsetInCU: 0x36122, offset: 0x36122, size: 0x8, addend: 0x0, symName: __ZNSt3__16vectorINS_4pairINS_12basic_stringIcNS_11char_traitsIcEENS_9allocatorIcEEEEjEENS5_IS8_EEE16__init_with_sizeB8ue170006INS_19__hash_map_iteratorINS_15__hash_iteratorIPNS_11__hash_nodeINS_17__hash_value_typeIS7_jEEPvEEEEEESL_EEvT_T0_m, symObjAddr: 0x3B2FC, symBinAddr: 0x10003E670, symSize: 0x514 }
  - { offsetInCU: 0x361A4, offset: 0x361A4, size: 0x8, addend: 0x0, symName: __ZNSt3__117__compressed_pairIPNS_4pairINS_12basic_stringIcNS_11char_traitsIcEENS_9allocatorIcEEEEjEENS5_IS8_EEEC2B8ue170006IDnNS_18__default_init_tagEEEOT_OT0_, symObjAddr: 0x3B810, symBinAddr: 0x10003EB84, symSize: 0x40 }
  - { offsetInCU: 0x361FC, offset: 0x361FC, size: 0x8, addend: 0x0, symName: __ZNSt3__122__compressed_pair_elemIPNS_4pairINS_12basic_stringIcNS_11char_traitsIcEENS_9allocatorIcEEEEjEELi0ELb0EEC2B8ue170006IDnvEEOT_, symObjAddr: 0x3B850, symBinAddr: 0x10003EBC4, symSize: 0x64 }
  - { offsetInCU: 0x3623E, offset: 0x3623E, size: 0x8, addend: 0x0, symName: __ZNSt3__122__compressed_pair_elemINS_9allocatorINS_4pairINS_12basic_stringIcNS_11char_traitsIcEENS1_IcEEEEjEEEELi1ELb1EEC2B8ue170006ENS_18__default_init_tagE, symObjAddr: 0x3B8B4, symBinAddr: 0x10003EC28, symSize: 0x2C }
  - { offsetInCU: 0x36273, offset: 0x36273, size: 0x8, addend: 0x0, symName: __ZNSt3__19allocatorINS_4pairINS_12basic_stringIcNS_11char_traitsIcEENS0_IcEEEEjEEEC2B8ue170006Ev, symObjAddr: 0x3B8E0, symBinAddr: 0x10003EC54, symSize: 0x2C }
  - { offsetInCU: 0x3629D, offset: 0x3629D, size: 0x8, addend: 0x0, symName: __ZNSt3__116__non_trivial_ifILb1ENS_9allocatorINS_4pairINS_12basic_stringIcNS_11char_traitsIcEENS1_IcEEEEjEEEEEC2B8ue170006Ev, symObjAddr: 0x3B90C, symBinAddr: 0x10003EC80, symSize: 0x14 }
  - { offsetInCU: 0x362C7, offset: 0x362C7, size: 0x8, addend: 0x0, symName: __ZNSt3__16vectorINS_4pairINS_12basic_stringIcNS_11char_traitsIcEENS_9allocatorIcEEEEjEENS5_IS8_EEE16__destroy_vectorC1B8ue170006ERSA_, symObjAddr: 0x3BE40, symBinAddr: 0x10003F1B4, symSize: 0x34 }
  - { offsetInCU: 0x36300, offset: 0x36300, size: 0x8, addend: 0x0, symName: __ZNSt3__16vectorINS_4pairINS_12basic_stringIcNS_11char_traitsIcEENS_9allocatorIcEEEEjEENS5_IS8_EEE11__vallocateB8ue170006Em, symObjAddr: 0x3BE74, symBinAddr: 0x10003F1E8, symSize: 0x420 }
  - { offsetInCU: 0x3634A, offset: 0x3634A, size: 0x8, addend: 0x0, symName: __ZNSt3__16vectorINS_4pairINS_12basic_stringIcNS_11char_traitsIcEENS_9allocatorIcEEEEjEENS5_IS8_EEE18__construct_at_endINS_19__hash_map_iteratorINS_15__hash_iteratorIPNS_11__hash_nodeINS_17__hash_value_typeIS7_jEEPvEEEEEESL_EEvT_T0_m, symObjAddr: 0x3C294, symBinAddr: 0x10003F608, symSize: 0x548 }
  - { offsetInCU: 0x363CE, offset: 0x363CE, size: 0x8, addend: 0x0, symName: __ZNSt3__128__exception_guard_exceptionsINS_6vectorINS_4pairINS_12basic_stringIcNS_11char_traitsIcEENS_9allocatorIcEEEEjEENS6_IS9_EEE16__destroy_vectorEE10__completeB8ue170006Ev, symObjAddr: 0x3C7DC, symBinAddr: 0x10003FB50, symSize: 0x8C }
  - { offsetInCU: 0x363F4, offset: 0x363F4, size: 0x8, addend: 0x0, symName: __ZNSt3__128__exception_guard_exceptionsINS_6vectorINS_4pairINS_12basic_stringIcNS_11char_traitsIcEENS_9allocatorIcEEEEjEENS6_IS9_EEE16__destroy_vectorEED1B8ue170006Ev, symObjAddr: 0x3C868, symBinAddr: 0x10003FBDC, symSize: 0x2C }
  - { offsetInCU: 0x3641E, offset: 0x3641E, size: 0x8, addend: 0x0, symName: __ZNSt3__128__exception_guard_exceptionsINS_6vectorINS_4pairINS_12basic_stringIcNS_11char_traitsIcEENS_9allocatorIcEEEEjEENS6_IS9_EEE16__destroy_vectorEEC1B8ue170006ESC_, symObjAddr: 0x3C894, symBinAddr: 0x10003FC08, symSize: 0x238 }
  - { offsetInCU: 0x3645B, offset: 0x3645B, size: 0x8, addend: 0x0, symName: __ZNSt3__128__exception_guard_exceptionsINS_6vectorINS_4pairINS_12basic_stringIcNS_11char_traitsIcEENS_9allocatorIcEEEEjEENS6_IS9_EEE16__destroy_vectorEEC2B8ue170006ESC_, symObjAddr: 0x3CACC, symBinAddr: 0x10003FE40, symSize: 0x264 }
  - { offsetInCU: 0x36498, offset: 0x36498, size: 0x8, addend: 0x0, symName: __ZNSt3__16vectorINS_4pairINS_12basic_stringIcNS_11char_traitsIcEENS_9allocatorIcEEEEjEENS5_IS8_EEE16__destroy_vectorC2B8ue170006ERSA_, symObjAddr: 0x3CD30, symBinAddr: 0x1000400A4, symSize: 0x70 }
  - { offsetInCU: 0x364D1, offset: 0x364D1, size: 0x8, addend: 0x0, symName: __ZNKSt3__16vectorINS_4pairINS_12basic_stringIcNS_11char_traitsIcEENS_9allocatorIcEEEEjEENS5_IS8_EEE8max_sizeEv, symObjAddr: 0x3CDA0, symBinAddr: 0x100040114, symSize: 0x2FC }
  - { offsetInCU: 0x364FA, offset: 0x364FA, size: 0x8, addend: 0x0, symName: __ZNKSt3__16vectorINS_4pairINS_12basic_stringIcNS_11char_traitsIcEENS_9allocatorIcEEEEjEENS5_IS8_EEE20__throw_length_errorB8ue170006Ev, symObjAddr: 0x3D09C, symBinAddr: 0x100040410, symSize: 0x20 }
  - { offsetInCU: 0x36520, offset: 0x36520, size: 0x8, addend: 0x0, symName: __ZNSt3__16vectorINS_4pairINS_12basic_stringIcNS_11char_traitsIcEENS_9allocatorIcEEEEjEENS5_IS8_EEE7__allocB8ue170006Ev, symObjAddr: 0x3D348, symBinAddr: 0x1000406BC, symSize: 0x28 }
  - { offsetInCU: 0x36546, offset: 0x36546, size: 0x8, addend: 0x0, symName: __ZNSt3__16vectorINS_4pairINS_12basic_stringIcNS_11char_traitsIcEENS_9allocatorIcEEEEjEENS5_IS8_EEE9__end_capB8ue170006Ev, symObjAddr: 0x3D370, symBinAddr: 0x1000406E4, symSize: 0x28 }
  - { offsetInCU: 0x3656C, offset: 0x3656C, size: 0x8, addend: 0x0, symName: __ZNKSt3__16vectorINS_4pairINS_12basic_stringIcNS_11char_traitsIcEENS_9allocatorIcEEEEjEENS5_IS8_EEE14__annotate_newB8ue170006Em, symObjAddr: 0x3D398, symBinAddr: 0x10004070C, symSize: 0xC0 }
  - { offsetInCU: 0x365AC, offset: 0x365AC, size: 0x8, addend: 0x0, symName: __ZNSt3__116allocator_traitsINS_9allocatorINS_4pairINS_12basic_stringIcNS_11char_traitsIcEENS1_IcEEEEjEEEEE8max_sizeB8ue170006IS9_vvEEmRKS9_, symObjAddr: 0x3D458, symBinAddr: 0x1000407CC, symSize: 0x28 }
  - { offsetInCU: 0x365D8, offset: 0x365D8, size: 0x8, addend: 0x0, symName: __ZNKSt3__16vectorINS_4pairINS_12basic_stringIcNS_11char_traitsIcEENS_9allocatorIcEEEEjEENS5_IS8_EEE7__allocB8ue170006Ev, symObjAddr: 0x3D480, symBinAddr: 0x1000407F4, symSize: 0x28 }
  - { offsetInCU: 0x365FE, offset: 0x365FE, size: 0x8, addend: 0x0, symName: __ZNKSt3__117__compressed_pairIPNS_4pairINS_12basic_stringIcNS_11char_traitsIcEENS_9allocatorIcEEEEjEENS5_IS8_EEE6secondB8ue170006Ev, symObjAddr: 0x3D4A8, symBinAddr: 0x10004081C, symSize: 0x24 }
  - { offsetInCU: 0x36624, offset: 0x36624, size: 0x8, addend: 0x0, symName: __ZNKSt3__122__compressed_pair_elemINS_9allocatorINS_4pairINS_12basic_stringIcNS_11char_traitsIcEENS1_IcEEEEjEEEELi1ELb1EE5__getB8ue170006Ev, symObjAddr: 0x3D4CC, symBinAddr: 0x100040840, symSize: 0x14 }
  - { offsetInCU: 0x3664A, offset: 0x3664A, size: 0x8, addend: 0x0, symName: __ZNSt3__19allocatorINS_4pairINS_12basic_stringIcNS_11char_traitsIcEENS0_IcEEEEjEEE8allocateB8ue170006Em, symObjAddr: 0x3D4E0, symBinAddr: 0x100040854, symSize: 0x5C }
  - { offsetInCU: 0x3667E, offset: 0x3667E, size: 0x8, addend: 0x0, symName: __ZNSt3__117__compressed_pairIPNS_4pairINS_12basic_stringIcNS_11char_traitsIcEENS_9allocatorIcEEEEjEENS5_IS8_EEE6secondB8ue170006Ev, symObjAddr: 0x3D53C, symBinAddr: 0x1000408B0, symSize: 0x24 }
  - { offsetInCU: 0x366A4, offset: 0x366A4, size: 0x8, addend: 0x0, symName: __ZNSt3__122__compressed_pair_elemINS_9allocatorINS_4pairINS_12basic_stringIcNS_11char_traitsIcEENS1_IcEEEEjEEEELi1ELb1EE5__getB8ue170006Ev, symObjAddr: 0x3D560, symBinAddr: 0x1000408D4, symSize: 0x14 }
  - { offsetInCU: 0x366CA, offset: 0x366CA, size: 0x8, addend: 0x0, symName: __ZNSt3__117__compressed_pairIPNS_4pairINS_12basic_stringIcNS_11char_traitsIcEENS_9allocatorIcEEEEjEENS5_IS8_EEE5firstB8ue170006Ev, symObjAddr: 0x3D574, symBinAddr: 0x1000408E8, symSize: 0x24 }
  - { offsetInCU: 0x366F0, offset: 0x366F0, size: 0x8, addend: 0x0, symName: __ZNSt3__122__compressed_pair_elemIPNS_4pairINS_12basic_stringIcNS_11char_traitsIcEENS_9allocatorIcEEEEjEELi0ELb0EE5__getB8ue170006Ev, symObjAddr: 0x3D598, symBinAddr: 0x10004090C, symSize: 0x14 }
  - { offsetInCU: 0x36716, offset: 0x36716, size: 0x8, addend: 0x0, symName: __ZNKSt3__16vectorINS_4pairINS_12basic_stringIcNS_11char_traitsIcEENS_9allocatorIcEEEEjEENS5_IS8_EEE31__annotate_contiguous_containerEPKvSC_SC_SC_, symObjAddr: 0x3D5AC, symBinAddr: 0x100040920, symSize: 0x58 }
  - { offsetInCU: 0x36778, offset: 0x36778, size: 0x8, addend: 0x0, symName: __ZNKSt3__16vectorINS_4pairINS_12basic_stringIcNS_11char_traitsIcEENS_9allocatorIcEEEEjEENS5_IS8_EEE4dataB8ue170006Ev, symObjAddr: 0x3D604, symBinAddr: 0x100040978, symSize: 0x64 }
  - { offsetInCU: 0x3679E, offset: 0x3679E, size: 0x8, addend: 0x0, symName: __ZNKSt3__16vectorINS_4pairINS_12basic_stringIcNS_11char_traitsIcEENS_9allocatorIcEEEEjEENS5_IS8_EEE8capacityB8ue170006Ev, symObjAddr: 0x3D668, symBinAddr: 0x1000409DC, symSize: 0xBC }
  - { offsetInCU: 0x367C4, offset: 0x367C4, size: 0x8, addend: 0x0, symName: __ZNKSt3__16vectorINS_4pairINS_12basic_stringIcNS_11char_traitsIcEENS_9allocatorIcEEEEjEENS5_IS8_EEE9__end_capB8ue170006Ev, symObjAddr: 0x3D738, symBinAddr: 0x100040AAC, symSize: 0x28 }
  - { offsetInCU: 0x367EA, offset: 0x367EA, size: 0x8, addend: 0x0, symName: __ZNKSt3__117__compressed_pairIPNS_4pairINS_12basic_stringIcNS_11char_traitsIcEENS_9allocatorIcEEEEjEENS5_IS8_EEE5firstB8ue170006Ev, symObjAddr: 0x3D760, symBinAddr: 0x100040AD4, symSize: 0x24 }
  - { offsetInCU: 0x36810, offset: 0x36810, size: 0x8, addend: 0x0, symName: __ZNKSt3__122__compressed_pair_elemIPNS_4pairINS_12basic_stringIcNS_11char_traitsIcEENS_9allocatorIcEEEEjEELi0ELb0EE5__getB8ue170006Ev, symObjAddr: 0x3D784, symBinAddr: 0x100040AF8, symSize: 0x14 }
  - { offsetInCU: 0x36851, offset: 0x36851, size: 0x8, addend: 0x0, symName: __ZNSt3__16vectorINS_4pairINS_12basic_stringIcNS_11char_traitsIcEENS_9allocatorIcEEEEjEENS5_IS8_EEE21_ConstructTransactionC1B8ue170006ERSA_m, symObjAddr: 0x3D798, symBinAddr: 0x100040B0C, symSize: 0x3C }
  - { offsetInCU: 0x36899, offset: 0x36899, size: 0x8, addend: 0x0, symName: __ZNSt3__16vectorINS_4pairINS_12basic_stringIcNS_11char_traitsIcEENS_9allocatorIcEEEEjEENS5_IS8_EEE21_ConstructTransactionD1B8ue170006Ev, symObjAddr: 0x3DCC0, symBinAddr: 0x100041034, symSize: 0x2C }
  - { offsetInCU: 0x368C3, offset: 0x368C3, size: 0x8, addend: 0x0, symName: __ZNSt3__16vectorINS_4pairINS_12basic_stringIcNS_11char_traitsIcEENS_9allocatorIcEEEEjEENS5_IS8_EEE21_ConstructTransactionC2B8ue170006ERSA_m, symObjAddr: 0x3DCEC, symBinAddr: 0x100041060, symSize: 0x1D0 }
  - { offsetInCU: 0x3690B, offset: 0x3690B, size: 0x8, addend: 0x0, symName: __ZNKSt3__16vectorINS_4pairINS_12basic_stringIcNS_11char_traitsIcEENS_9allocatorIcEEEEjEENS5_IS8_EEE19__annotate_increaseB8ue170006Em, symObjAddr: 0x3DEBC, symBinAddr: 0x100041230, symSize: 0xD8 }
  - { offsetInCU: 0x36940, offset: 0x36940, size: 0x8, addend: 0x0, symName: __ZNSt3__119__unwrap_range_implINS_19__hash_map_iteratorINS_15__hash_iteratorIPNS_11__hash_nodeINS_17__hash_value_typeINS_12basic_stringIcNS_11char_traitsIcEENS_9allocatorIcEEEEjEEPvEEEEEESG_E8__unwrapB8ue170006ESG_SG_, symObjAddr: 0x3E9A0, symBinAddr: 0x100041D14, symSize: 0x490 }
  - { offsetInCU: 0x3697F, offset: 0x3697F, size: 0x8, addend: 0x0, symName: __ZNSt3__14pairINS_19__hash_map_iteratorINS_15__hash_iteratorIPNS_11__hash_nodeINS_17__hash_value_typeINS_12basic_stringIcNS_11char_traitsIcEENS_9allocatorIcEEEEjEEPvEEEEEESG_EC1B8ue170006ISG_SG_LSC_0EEEOT_OT0_, symObjAddr: 0x3F13C, symBinAddr: 0x1000424B0, symSize: 0x3C }
  - { offsetInCU: 0x369DD, offset: 0x369DD, size: 0x8, addend: 0x0, symName: __ZNSt3__118__unwrap_iter_implINS_19__hash_map_iteratorINS_15__hash_iteratorIPNS_11__hash_nodeINS_17__hash_value_typeINS_12basic_stringIcNS_11char_traitsIcEENS_9allocatorIcEEEEjEEPvEEEEEELb0EE8__unwrapB8ue170006ESG_, symObjAddr: 0x3F178, symBinAddr: 0x1000424EC, symSize: 0x270 }
  - { offsetInCU: 0x36A04, offset: 0x36A04, size: 0x8, addend: 0x0, symName: __ZNSt3__14pairINS_19__hash_map_iteratorINS_15__hash_iteratorIPNS_11__hash_nodeINS_17__hash_value_typeINS_12basic_stringIcNS_11char_traitsIcEENS_9allocatorIcEEEEjEEPvEEEEEESG_EC2B8ue170006ISG_SG_LSC_0EEEOT_OT0_, symObjAddr: 0x3F3E8, symBinAddr: 0x10004275C, symSize: 0x54 }
  - { offsetInCU: 0x36A62, offset: 0x36A62, size: 0x8, addend: 0x0, symName: __ZNSt3__129_AllocatorDestroyRangeReverseINS_9allocatorINS_4pairINS_12basic_stringIcNS_11char_traitsIcEENS1_IcEEEEjEEEEPS8_EC1B8ue170006ERS9_RSA_SD_, symObjAddr: 0x3F634, symBinAddr: 0x1000429A8, symSize: 0x44 }
  - { offsetInCU: 0x36AB9, offset: 0x36AB9, size: 0x8, addend: 0x0, symName: __ZNSt3__116allocator_traitsINS_9allocatorINS_4pairINS_12basic_stringIcNS_11char_traitsIcEENS1_IcEEEEjEEEEE9constructB8ue170006IS8_JRNS2_IKS7_jEEEvvEEvRS9_PT_DpOT0_, symObjAddr: 0x3F678, symBinAddr: 0x1000429EC, symSize: 0x30 }
  - { offsetInCU: 0x36B0E, offset: 0x36B0E, size: 0x8, addend: 0x0, symName: __ZNSt3__128__exception_guard_exceptionsINS_29_AllocatorDestroyRangeReverseINS_9allocatorINS_4pairINS_12basic_stringIcNS_11char_traitsIcEENS2_IcEEEEjEEEEPS9_EEE10__completeB8ue170006Ev, symObjAddr: 0x3F6A8, symBinAddr: 0x100042A1C, symSize: 0x8C }
  - { offsetInCU: 0x36B34, offset: 0x36B34, size: 0x8, addend: 0x0, symName: __ZNSt3__128__exception_guard_exceptionsINS_29_AllocatorDestroyRangeReverseINS_9allocatorINS_4pairINS_12basic_stringIcNS_11char_traitsIcEENS2_IcEEEEjEEEEPS9_EEED1B8ue170006Ev, symObjAddr: 0x3F734, symBinAddr: 0x100042AA8, symSize: 0x2C }
  - { offsetInCU: 0x36B5E, offset: 0x36B5E, size: 0x8, addend: 0x0, symName: __ZNSt3__128__exception_guard_exceptionsINS_29_AllocatorDestroyRangeReverseINS_9allocatorINS_4pairINS_12basic_stringIcNS_11char_traitsIcEENS2_IcEEEEjEEEEPS9_EEEC1B8ue170006ESC_, symObjAddr: 0x3F760, symBinAddr: 0x100042AD4, symSize: 0x34 }
  - { offsetInCU: 0x36B97, offset: 0x36B97, size: 0x8, addend: 0x0, symName: __ZNSt3__128__exception_guard_exceptionsINS_29_AllocatorDestroyRangeReverseINS_9allocatorINS_4pairINS_12basic_stringIcNS_11char_traitsIcEENS2_IcEEEEjEEEEPS9_EEEC2B8ue170006ESC_, symObjAddr: 0x3F794, symBinAddr: 0x100042B08, symSize: 0xA4 }
  - { offsetInCU: 0x36BD0, offset: 0x36BD0, size: 0x8, addend: 0x0, symName: __ZNSt3__129_AllocatorDestroyRangeReverseINS_9allocatorINS_4pairINS_12basic_stringIcNS_11char_traitsIcEENS1_IcEEEEjEEEEPS8_EC2B8ue170006ERS9_RSA_SD_, symObjAddr: 0x3F838, symBinAddr: 0x100042BAC, symSize: 0x104 }
  - { offsetInCU: 0x36C27, offset: 0x36C27, size: 0x8, addend: 0x0, symName: __ZNSt3__14pairINS_12basic_stringIcNS_11char_traitsIcEENS_9allocatorIcEEEEjEC1B8ue170006IKS6_jLPv0EEERKNS0_IT_T0_EE, symObjAddr: 0x3F978, symBinAddr: 0x100042CEC, symSize: 0x34 }
  - { offsetInCU: 0x36C77, offset: 0x36C77, size: 0x8, addend: 0x0, symName: __ZNSt3__14pairINS_12basic_stringIcNS_11char_traitsIcEENS_9allocatorIcEEEEjEC2B8ue170006IKS6_jLPv0EEERKNS0_IT_T0_EE, symObjAddr: 0x3F9AC, symBinAddr: 0x100042D20, symSize: 0x11C }
  - { offsetInCU: 0x36CC7, offset: 0x36CC7, size: 0x8, addend: 0x0, symName: __ZNSt3__128__exception_guard_exceptionsINS_29_AllocatorDestroyRangeReverseINS_9allocatorINS_4pairINS_12basic_stringIcNS_11char_traitsIcEENS2_IcEEEEjEEEEPS9_EEED2B8ue170006Ev, symObjAddr: 0x3FAC8, symBinAddr: 0x100042E3C, symSize: 0xBC }
  - { offsetInCU: 0x36CF1, offset: 0x36CF1, size: 0x8, addend: 0x0, symName: __ZNKSt3__129_AllocatorDestroyRangeReverseINS_9allocatorINS_4pairINS_12basic_stringIcNS_11char_traitsIcEENS1_IcEEEEjEEEEPS8_EclB8ue170006Ev, symObjAddr: 0x3FB84, symBinAddr: 0x100042EF8, symSize: 0x39C }
  - { offsetInCU: 0x36D18, offset: 0x36D18, size: 0x8, addend: 0x0, symName: __ZNSt3__116reverse_iteratorIPNS_4pairINS_12basic_stringIcNS_11char_traitsIcEENS_9allocatorIcEEEEjEEEC1B8ue170006ES9_, symObjAddr: 0x401D8, symBinAddr: 0x10004354C, symSize: 0x34 }
  - { offsetInCU: 0x36D50, offset: 0x36D50, size: 0x8, addend: 0x0, symName: __ZNSt3__116allocator_traitsINS_9allocatorINS_4pairINS_12basic_stringIcNS_11char_traitsIcEENS1_IcEEEEjEEEEE7destroyB8ue170006IS8_vvEEvRS9_PT_, symObjAddr: 0x40254, symBinAddr: 0x1000435C8, symSize: 0x28 }
  - { offsetInCU: 0x36D8B, offset: 0x36D8B, size: 0x8, addend: 0x0, symName: __ZNSt3__116reverse_iteratorIPNS_4pairINS_12basic_stringIcNS_11char_traitsIcEENS_9allocatorIcEEEEjEEEppB8ue170006Ev, symObjAddr: 0x402A0, symBinAddr: 0x100043614, symSize: 0x6C }
  - { offsetInCU: 0x36DB1, offset: 0x36DB1, size: 0x8, addend: 0x0, symName: __ZNKSt3__116reverse_iteratorIPNS_4pairINS_12basic_stringIcNS_11char_traitsIcEENS_9allocatorIcEEEEjEEE4baseB8ue170006Ev, symObjAddr: 0x4030C, symBinAddr: 0x100043680, symSize: 0x64 }
  - { offsetInCU: 0x36DD7, offset: 0x36DD7, size: 0x8, addend: 0x0, symName: __ZNSt3__14pairINS_12basic_stringIcNS_11char_traitsIcEENS_9allocatorIcEEEEjED1Ev, symObjAddr: 0x403B8, symBinAddr: 0x10004372C, symSize: 0x2C }
  - { offsetInCU: 0x36E03, offset: 0x36E03, size: 0x8, addend: 0x0, symName: __ZNSt3__14pairINS_12basic_stringIcNS_11char_traitsIcEENS_9allocatorIcEEEEjED2Ev, symObjAddr: 0x403E4, symBinAddr: 0x100043758, symSize: 0x2C }
  - { offsetInCU: 0x36E35, offset: 0x36E35, size: 0x8, addend: 0x0, symName: __ZNSt3__119__to_address_helperINS_16reverse_iteratorIPNS_4pairINS_12basic_stringIcNS_11char_traitsIcEENS_9allocatorIcEEEEjEEEEvE6__callB8ue170006ERKSB_, symObjAddr: 0x40410, symBinAddr: 0x100043784, symSize: 0x44 }
  - { offsetInCU: 0x36E58, offset: 0x36E58, size: 0x8, addend: 0x0, symName: __ZNKSt3__116reverse_iteratorIPNS_4pairINS_12basic_stringIcNS_11char_traitsIcEENS_9allocatorIcEEEEjEEEptB8ue170006Ev, symObjAddr: 0x40454, symBinAddr: 0x1000437C8, symSize: 0x6C }
  - { offsetInCU: 0x36E7E, offset: 0x36E7E, size: 0x8, addend: 0x0, symName: __ZNSt3__116reverse_iteratorIPNS_4pairINS_12basic_stringIcNS_11char_traitsIcEENS_9allocatorIcEEEEjEEEC2B8ue170006ES9_, symObjAddr: 0x407B0, symBinAddr: 0x100043B24, symSize: 0xB8 }
  - { offsetInCU: 0x36EB6, offset: 0x36EB6, size: 0x8, addend: 0x0, symName: __ZNSt3__118__unwrap_iter_implIPNS_4pairINS_12basic_stringIcNS_11char_traitsIcEENS_9allocatorIcEEEEjEELb1EE8__unwrapB8ue170006ES9_, symObjAddr: 0x40868, symBinAddr: 0x100043BDC, symSize: 0x24 }
  - { offsetInCU: 0x36ED9, offset: 0x36ED9, size: 0x8, addend: 0x0, symName: __ZNSt3__118__unwrap_iter_implIPNS_4pairINS_12basic_stringIcNS_11char_traitsIcEENS_9allocatorIcEEEEjEELb1EE8__rewrapB8ue170006ES9_S9_, symObjAddr: 0x4088C, symBinAddr: 0x100043C00, symSize: 0x50 }
  - { offsetInCU: 0x36F0A, offset: 0x36F0A, size: 0x8, addend: 0x0, symName: __ZNSt3__16vectorINS_4pairINS_12basic_stringIcNS_11char_traitsIcEENS_9allocatorIcEEEEjEENS5_IS8_EEE21_ConstructTransactionD2B8ue170006Ev, symObjAddr: 0x408DC, symBinAddr: 0x100043C50, symSize: 0x278 }
  - { offsetInCU: 0x36F34, offset: 0x36F34, size: 0x8, addend: 0x0, symName: __ZNKSt3__16vectorINS_4pairINS_12basic_stringIcNS_11char_traitsIcEENS_9allocatorIcEEEEjEENS5_IS8_EEE17__annotate_shrinkB8ue170006Em, symObjAddr: 0x40B54, symBinAddr: 0x100043EC8, symSize: 0xC8 }
  - { offsetInCU: 0x36F69, offset: 0x36F69, size: 0x8, addend: 0x0, symName: __ZNSt3__128__exception_guard_exceptionsINS_6vectorINS_4pairINS_12basic_stringIcNS_11char_traitsIcEENS_9allocatorIcEEEEjEENS6_IS9_EEE16__destroy_vectorEED2B8ue170006Ev, symObjAddr: 0x40C1C, symBinAddr: 0x100043F90, symSize: 0xBC }
  - { offsetInCU: 0x36F93, offset: 0x36F93, size: 0x8, addend: 0x0, symName: __ZNSt3__16vectorINS_4pairINS_12basic_stringIcNS_11char_traitsIcEENS_9allocatorIcEEEEjEENS5_IS8_EEE16__destroy_vectorclB8ue170006Ev, symObjAddr: 0x40CD8, symBinAddr: 0x10004404C, symSize: 0x228 }
  - { offsetInCU: 0x36FB9, offset: 0x36FB9, size: 0x8, addend: 0x0, symName: __ZNSt3__16vectorINS_4pairINS_12basic_stringIcNS_11char_traitsIcEENS_9allocatorIcEEEEjEENS5_IS8_EEE7__clearB8ue170006Ev, symObjAddr: 0x40F00, symBinAddr: 0x100044274, symSize: 0x64 }
  - { offsetInCU: 0x36FDF, offset: 0x36FDF, size: 0x8, addend: 0x0, symName: __ZNKSt3__16vectorINS_4pairINS_12basic_stringIcNS_11char_traitsIcEENS_9allocatorIcEEEEjEENS5_IS8_EEE17__annotate_deleteB8ue170006Ev, symObjAddr: 0x40F64, symBinAddr: 0x1000442D8, symSize: 0xCC }
  - { offsetInCU: 0x37005, offset: 0x37005, size: 0x8, addend: 0x0, symName: __ZNSt3__116allocator_traitsINS_9allocatorINS_4pairINS_12basic_stringIcNS_11char_traitsIcEENS1_IcEEEEjEEEEE10deallocateB8ue170006ERS9_PS8_m, symObjAddr: 0x41030, symBinAddr: 0x1000443A4, symSize: 0x34 }
  - { offsetInCU: 0x37047, offset: 0x37047, size: 0x8, addend: 0x0, symName: __ZNSt3__16vectorINS_4pairINS_12basic_stringIcNS_11char_traitsIcEENS_9allocatorIcEEEEjEENS5_IS8_EEE22__base_destruct_at_endB8ue170006EPS8_, symObjAddr: 0x41064, symBinAddr: 0x1000443D8, symSize: 0x114 }
  - { offsetInCU: 0x3708B, offset: 0x3708B, size: 0x8, addend: 0x0, symName: __ZNSt3__19allocatorINS_4pairINS_12basic_stringIcNS_11char_traitsIcEENS0_IcEEEEjEEE10deallocateB8ue170006EPS7_m, symObjAddr: 0x41178, symBinAddr: 0x1000444EC, symSize: 0x4C }
  - { offsetInCU: 0x370D7, offset: 0x370D7, size: 0x8, addend: 0x0, symName: '__ZZ4mainENK3$_0clERKNSt3__14pairINS0_12basic_stringIcNS0_11char_traitsIcEENS0_9allocatorIcEEEEjEESA_', symObjAddr: 0x42E88, symBinAddr: 0x1000461FC, symSize: 0x114 }
  - { offsetInCU: 0x3711D, offset: 0x3711D, size: 0x8, addend: 0x0, symName: __ZNSt3__18_IterOpsINS_17_ClassicAlgPolicyEE9iter_swapB8ue170006IRPNS_4pairINS_12basic_stringIcNS_11char_traitsIcEENS_9allocatorIcEEEEjEESD_EEvOT_OT0_, symObjAddr: 0x42F9C, symBinAddr: 0x100046310, symSize: 0xB0 }
  - { offsetInCU: 0x37166, offset: 0x37166, size: 0x8, addend: 0x0, symName: __ZNSt3__18_IterOpsINS_17_ClassicAlgPolicyEE9iter_swapB8ue170006IRPNS_4pairINS_12basic_stringIcNS_11char_traitsIcEENS_9allocatorIcEEEEjEESC_EEvOT_OT0_, symObjAddr: 0x44484, symBinAddr: 0x1000477F8, symSize: 0xB0 }
  - { offsetInCU: 0x371A9, offset: 0x371A9, size: 0x8, addend: 0x0, symName: __ZNSt3__14pairINS_12basic_stringIcNS_11char_traitsIcEENS_9allocatorIcEEEEjE4swapB8ue170006ERS7_, symObjAddr: 0x478E0, symBinAddr: 0x10004AC54, symSize: 0x44 }
  - { offsetInCU: 0x371DE, offset: 0x371DE, size: 0x8, addend: 0x0, symName: __ZNSt3__112basic_stringIcNS_11char_traitsIcEENS_9allocatorIcEEE4swapB8ue170006ERS5_, symObjAddr: 0x47B24, symBinAddr: 0x10004AE98, symSize: 0x64 }
  - { offsetInCU: 0x37215, offset: 0x37215, size: 0x8, addend: 0x0, symName: __ZNSt3__18_IterOpsINS_17_ClassicAlgPolicyEE11__iter_moveB8ue170006IRPNS_4pairINS_12basic_stringIcNS_11char_traitsIcEENS_9allocatorIcEEEEjEEEENS_9enable_ifIXsr12is_referenceIDTdeclsr3stdE7declvalIRT_EEEEE5valueEDTclsr3stdE4movedeclsr3stdE7declvalISG_EEEEE4typeEOSF_, symObjAddr: 0x48AE4, symBinAddr: 0x10004BE58, symSize: 0x6C }
  - { offsetInCU: 0x37241, offset: 0x37241, size: 0x8, addend: 0x0, symName: __ZNSt3__14pairINS_12basic_stringIcNS_11char_traitsIcEENS_9allocatorIcEEEEjEC1B8ue170006EOS7_, symObjAddr: 0x48B50, symBinAddr: 0x10004BEC4, symSize: 0x34 }
  - { offsetInCU: 0x37276, offset: 0x37276, size: 0x8, addend: 0x0, symName: __ZNSt3__14pairINS_12basic_stringIcNS_11char_traitsIcEENS_9allocatorIcEEEEjEaSB8ue170006EOS7_, symObjAddr: 0x48B84, symBinAddr: 0x10004BEF8, symSize: 0x114 }
  - { offsetInCU: 0x372AB, offset: 0x372AB, size: 0x8, addend: 0x0, symName: __ZNSt3__18_IterOpsINS_17_ClassicAlgPolicyEE25__validate_iter_referenceB8ue170006IRPNS_4pairINS_12basic_stringIcNS_11char_traitsIcEENS_9allocatorIcEEEEjEEEEvv, symObjAddr: 0x48C98, symBinAddr: 0x10004C00C, symSize: 0x4 }
  - { offsetInCU: 0x372C9, offset: 0x372C9, size: 0x8, addend: 0x0, symName: __ZNSt3__14pairINS_12basic_stringIcNS_11char_traitsIcEENS_9allocatorIcEEEEjEC2B8ue170006EOS7_, symObjAddr: 0x48C9C, symBinAddr: 0x10004C010, symSize: 0x11C }
  - { offsetInCU: 0x372FE, offset: 0x372FE, size: 0x8, addend: 0x0, symName: __ZNSt3__18_IterOpsINS_17_ClassicAlgPolicyEE4nextB8ue170006IPNS_4pairINS_12basic_stringIcNS_11char_traitsIcEENS_9allocatorIcEEEEjEEEET_SD_SD_, symObjAddr: 0x48DB8, symBinAddr: 0x10004C12C, symSize: 0x18 }
  - { offsetInCU: 0x37335, offset: 0x37335, size: 0x8, addend: 0x0, symName: __ZNSt3__18_IterOpsINS_17_ClassicAlgPolicyEE9iter_swapB8ue170006IPNS_4pairINS_12basic_stringIcNS_11char_traitsIcEENS_9allocatorIcEEEEjEESC_EEvOT_OT0_, symObjAddr: 0x4C480, symBinAddr: 0x10004F7F4, symSize: 0xB0 }
  - { offsetInCU: 0x37394, offset: 0x37394, size: 0x8, addend: 0x0, symName: __ZNSt3__14pairIPNS0_INS_12basic_stringIcNS_11char_traitsIcEENS_9allocatorIcEEEEjEEbEC1B8ue170006IRS8_RbLPv0EEEOT_OT0_, symObjAddr: 0x4C54C, symBinAddr: 0x10004F8C0, symSize: 0x3C }
  - { offsetInCU: 0x373F2, offset: 0x373F2, size: 0x8, addend: 0x0, symName: __ZNSt3__14pairIPNS0_INS_12basic_stringIcNS_11char_traitsIcEENS_9allocatorIcEEEEjEEbEC2B8ue170006IRS8_RbLPv0EEEOT_OT0_, symObjAddr: 0x4C588, symBinAddr: 0x10004F8FC, symSize: 0x188 }
  - { offsetInCU: 0x37450, offset: 0x37450, size: 0x8, addend: 0x0, symName: __ZNSt3__118__unwrap_iter_implINS_11__wrap_iterIPNS_4pairINS_12basic_stringIcNS_11char_traitsIcEENS_9allocatorIcEEEEjEEEELb1EE8__unwrapB8ue170006ESB_, symObjAddr: 0x4C710, symBinAddr: 0x10004FA84, symSize: 0x1F0 }
  - { offsetInCU: 0x37482, offset: 0x37482, size: 0x8, addend: 0x0, symName: __ZNSt3__119__to_address_helperINS_11__wrap_iterIPNS_4pairINS_12basic_stringIcNS_11char_traitsIcEENS_9allocatorIcEEEEjEEEEvE6__callB8ue170006ERKSB_, symObjAddr: 0x4C924, symBinAddr: 0x10004FC98, symSize: 0x200 }
  - { offsetInCU: 0x374A6, offset: 0x374A6, size: 0x8, addend: 0x0, symName: __ZNSt3__114pointer_traitsINS_11__wrap_iterIPNS_4pairINS_12basic_stringIcNS_11char_traitsIcEENS_9allocatorIcEEEEjEEEEE10to_addressB8ue170006ESB_, symObjAddr: 0x4CB24, symBinAddr: 0x10004FE98, symSize: 0x1F4 }
  - { offsetInCU: 0x374CD, offset: 0x374CD, size: 0x8, addend: 0x0, symName: __ZNKSt3__111__wrap_iterIPNS_4pairINS_12basic_stringIcNS_11char_traitsIcEENS_9allocatorIcEEEEjEEE4baseB8ue170006Ev, symObjAddr: 0x4CD18, symBinAddr: 0x10005008C, symSize: 0x60 }
  - { offsetInCU: 0x374F3, offset: 0x374F3, size: 0x8, addend: 0x0, symName: __ZNSt3__16vectorINS_4pairINS_12basic_stringIcNS_11char_traitsIcEENS_9allocatorIcEEEEjEENS5_IS8_EEE11__make_iterB8ue170006EPS8_, symObjAddr: 0x4CD78, symBinAddr: 0x1000500EC, symSize: 0x1FC }
  - { offsetInCU: 0x3752A, offset: 0x3752A, size: 0x8, addend: 0x0, symName: __ZNSt3__111__wrap_iterIPNS_4pairINS_12basic_stringIcNS_11char_traitsIcEENS_9allocatorIcEEEEjEEEC1B8ue170006ES9_, symObjAddr: 0x4CF74, symBinAddr: 0x1000502E8, symSize: 0x34 }
  - { offsetInCU: 0x37562, offset: 0x37562, size: 0x8, addend: 0x0, symName: __ZNSt3__111__wrap_iterIPNS_4pairINS_12basic_stringIcNS_11char_traitsIcEENS_9allocatorIcEEEEjEEEC2B8ue170006ES9_, symObjAddr: 0x4CFA8, symBinAddr: 0x10005031C, symSize: 0x70 }
  - { offsetInCU: 0x3759A, offset: 0x3759A, size: 0x8, addend: 0x0, symName: __ZNKSt3__112basic_stringIcNS_11char_traitsIcEENS_9allocatorIcEEE15__get_long_sizeB8ue170006Ev, symObjAddr: 0x4D018, symBinAddr: 0x10005038C, symSize: 0x70 }
  - { offsetInCU: 0x375C0, offset: 0x375C0, size: 0x8, addend: 0x0, symName: __ZNKSt3__112basic_stringIcNS_11char_traitsIcEENS_9allocatorIcEEE16__get_short_sizeB8ue170006Ev, symObjAddr: 0x4D088, symBinAddr: 0x1000503FC, symSize: 0xA0 }
  - { offsetInCU: 0x375E6, offset: 0x375E6, size: 0x8, addend: 0x0, symName: __ZN9SplayTreeINSt3__112basic_stringIcNS0_11char_traitsIcEENS0_9allocatorIcEEEE4DataEC2Ev, symObjAddr: 0x4D128, symBinAddr: 0x10005049C, symSize: 0xC8 }
  - { offsetInCU: 0x37610, offset: 0x37610, size: 0x8, addend: 0x0, symName: __ZN9SplayTreeINSt3__112basic_stringIcNS0_11char_traitsIcEENS0_9allocatorIcEEEE4DataE9XiteratorILNS8_17IteratorDirectionE0EEC1EPNS8_5splayEPKS8_, symObjAddr: 0x4D1F0, symBinAddr: 0x100050564, symSize: 0x3C }
  - { offsetInCU: 0x37656, offset: 0x37656, size: 0x8, addend: 0x0, symName: __ZN9SplayTreeINSt3__112basic_stringIcNS0_11char_traitsIcEENS0_9allocatorIcEEEE4DataE9XiteratorILNS8_17IteratorDirectionE1EEC1EPNS8_5splayEPKS8_, symObjAddr: 0x4D22C, symBinAddr: 0x1000505A0, symSize: 0x3C }
  - { offsetInCU: 0x3769C, offset: 0x3769C, size: 0x8, addend: 0x0, symName: __ZN9SplayTreeINSt3__112basic_stringIcNS0_11char_traitsIcEENS0_9allocatorIcEEEE4DataE9XiteratorILNS8_17IteratorDirectionE0EEC2EPNS8_5splayEPKS8_, symObjAddr: 0x4D268, symBinAddr: 0x1000505DC, symSize: 0x1D0 }
  - { offsetInCU: 0x376E2, offset: 0x376E2, size: 0x8, addend: 0x0, symName: __ZN9SplayTreeINSt3__112basic_stringIcNS0_11char_traitsIcEENS0_9allocatorIcEEEE4DataE9XiteratorILNS8_17IteratorDirectionE1EEC2EPNS8_5splayEPKS8_, symObjAddr: 0x4D438, symBinAddr: 0x1000507AC, symSize: 0x1D4 }
  - { offsetInCU: 0x37728, offset: 0x37728, size: 0x8, addend: 0x0, symName: __ZN4DataC2Ev, symObjAddr: 0x4D60C, symBinAddr: 0x100050980, symSize: 0xFC }
  - { offsetInCU: 0x37754, offset: 0x37754, size: 0x8, addend: 0x0, symName: __ZN4DataD2Ev, symObjAddr: 0x4D708, symBinAddr: 0x100050A7C, symSize: 0x2C }
  - { offsetInCU: 0x37780, offset: 0x37780, size: 0x8, addend: 0x0, symName: __ZN20performance_countersC1Edddd, symObjAddr: 0x4D734, symBinAddr: 0x100050AA8, symSize: 0x4C }
  - { offsetInCU: 0x377E2, offset: 0x377E2, size: 0x8, addend: 0x0, symName: __ZN20performance_countersC2Edddd, symObjAddr: 0x4D780, symBinAddr: 0x100050AF4, symSize: 0x14C }
  - { offsetInCU: 0x37844, offset: 0x37844, size: 0x8, addend: 0x0, symName: __ZNK9SplayTreeINSt3__112basic_stringIcNS0_11char_traitsIcEENS0_9allocatorIcEEEE4DataE5splayeqERKS9_, symObjAddr: 0x4D8CC, symBinAddr: 0x100050C40, symSize: 0x30 }
  - { offsetInCU: 0x37878, offset: 0x37878, size: 0x8, addend: 0x0, symName: __ZNSt3__16vectorINS_4pairINS_12basic_stringIcNS_11char_traitsIcEENS_9allocatorIcEEEEjEENS5_IS8_EEED2B8ue170006Ev, symObjAddr: 0x4D8FC, symBinAddr: 0x100050C70, symSize: 0x1F4 }
  - { offsetInCU: 0x378A3, offset: 0x378A3, size: 0x8, addend: 0x0, symName: __ZNSt3__114basic_ifstreamIcNS_11char_traitsIcEEED2Ev, symObjAddr: 0x4DAF0, symBinAddr: 0x100050E64, symSize: 0x198 }
  - { offsetInCU: 0x378DD, offset: 0x378DD, size: 0x8, addend: 0x0, symName: __ZTv0_n24_NSt3__114basic_ifstreamIcNS_11char_traitsIcEEED1Ev, symObjAddr: 0x4DC88, symBinAddr: 0x100050FFC, symSize: 0xB0 }
  - { offsetInCU: 0x378F4, offset: 0x378F4, size: 0x8, addend: 0x0, symName: __ZNSt3__16vectorINS_12basic_stringIcNS_11char_traitsIcEENS_9allocatorIcEEEENS4_IS6_EEED2B8ue170006Ev, symObjAddr: 0x4DD38, symBinAddr: 0x1000510AC, symSize: 0x1F8 }
  - { offsetInCU: 0x3791F, offset: 0x3791F, size: 0x8, addend: 0x0, symName: __ZNSt3__16vectorINS_12basic_stringIcNS_11char_traitsIcEENS_9allocatorIcEEEENS4_IS6_EEE16__destroy_vectorC1B8ue170006ERS8_, symObjAddr: 0x4DF30, symBinAddr: 0x1000512A4, symSize: 0x34 }
  - { offsetInCU: 0x37958, offset: 0x37958, size: 0x8, addend: 0x0, symName: __ZNSt3__16vectorINS_12basic_stringIcNS_11char_traitsIcEENS_9allocatorIcEEEENS4_IS6_EEE16__destroy_vectorclB8ue170006Ev, symObjAddr: 0x4DF64, symBinAddr: 0x1000512D8, symSize: 0x228 }
  - { offsetInCU: 0x3797E, offset: 0x3797E, size: 0x8, addend: 0x0, symName: __ZNSt3__16vectorINS_12basic_stringIcNS_11char_traitsIcEENS_9allocatorIcEEEENS4_IS6_EEE16__destroy_vectorC2B8ue170006ERS8_, symObjAddr: 0x4E18C, symBinAddr: 0x100051500, symSize: 0x70 }
  - { offsetInCU: 0x379B7, offset: 0x379B7, size: 0x8, addend: 0x0, symName: __ZNSt3__16vectorINS_12basic_stringIcNS_11char_traitsIcEENS_9allocatorIcEEEENS4_IS6_EEE7__clearB8ue170006Ev, symObjAddr: 0x4E1FC, symBinAddr: 0x100051570, symSize: 0x64 }
  - { offsetInCU: 0x379DD, offset: 0x379DD, size: 0x8, addend: 0x0, symName: __ZNSt3__16vectorINS_12basic_stringIcNS_11char_traitsIcEENS_9allocatorIcEEEENS4_IS6_EEE22__base_destruct_at_endB8ue170006EPS6_, symObjAddr: 0x4E260, symBinAddr: 0x1000515D4, symSize: 0x114 }
  - { offsetInCU: 0x37A42, offset: 0x37A42, size: 0x8, addend: 0x0, symName: __ZNKSt3__113basic_ostreamIcNS_11char_traitsIcEEE6sentrycvbB8ue170006Ev, symObjAddr: 0x4EAB8, symBinAddr: 0x100051E2C, symSize: 0x88 }
  - { offsetInCU: 0x37A68, offset: 0x37A68, size: 0x8, addend: 0x0, symName: __ZNSt3__119ostreambuf_iteratorIcNS_11char_traitsIcEEEC1B8ue170006ERNS_13basic_ostreamIcS2_EE, symObjAddr: 0x4F2A0, symBinAddr: 0x100052614, symSize: 0x34 }
  - { offsetInCU: 0x37AA0, offset: 0x37AA0, size: 0x8, addend: 0x0, symName: __ZNKSt3__18ios_base5flagsB8ue170006Ev, symObjAddr: 0x4F2D4, symBinAddr: 0x100052648, symSize: 0x8C }
  - { offsetInCU: 0x37AC8, offset: 0x37AC8, size: 0x8, addend: 0x0, symName: __ZNKSt3__19basic_iosIcNS_11char_traitsIcEEE4fillB8ue170006Ev, symObjAddr: 0x4F360, symBinAddr: 0x1000526D4, symSize: 0x198 }
  - { offsetInCU: 0x37AF0, offset: 0x37AF0, size: 0x8, addend: 0x0, symName: __ZNKSt3__119ostreambuf_iteratorIcNS_11char_traitsIcEEE6failedB8ue170006Ev, symObjAddr: 0x4F4F8, symBinAddr: 0x10005286C, symSize: 0x6C }
  - { offsetInCU: 0x37B16, offset: 0x37B16, size: 0x8, addend: 0x0, symName: __ZNSt3__19basic_iosIcNS_11char_traitsIcEEE8setstateB8ue170006Ej, symObjAddr: 0x4F564, symBinAddr: 0x1000528D8, symSize: 0x2C }
  - { offsetInCU: 0x37B4B, offset: 0x37B4B, size: 0x8, addend: 0x0, symName: __ZNKSt3__18ios_base5widthB8ue170006Ev, symObjAddr: 0x4F590, symBinAddr: 0x100052904, symSize: 0x64 }
  - { offsetInCU: 0x37B73, offset: 0x37B73, size: 0x8, addend: 0x0, symName: __ZNSt3__115basic_streambufIcNS_11char_traitsIcEEE5sputnB8ue170006EPKcl, symObjAddr: 0x4F5F4, symBinAddr: 0x100052968, symSize: 0xC8 }
  - { offsetInCU: 0x37BB5, offset: 0x37BB5, size: 0x8, addend: 0x0, symName: __ZNSt3__112basic_stringIcNS_11char_traitsIcEENS_9allocatorIcEEEC1B8ue170006Emc, symObjAddr: 0x4F6BC, symBinAddr: 0x100052A30, symSize: 0x3C }
  - { offsetInCU: 0x37BFD, offset: 0x37BFD, size: 0x8, addend: 0x0, symName: __ZNSt3__112basic_stringIcNS_11char_traitsIcEENS_9allocatorIcEEE4dataB8ue170006Ev, symObjAddr: 0x4F6F8, symBinAddr: 0x100052A6C, symSize: 0x28 }
  - { offsetInCU: 0x37C23, offset: 0x37C23, size: 0x8, addend: 0x0, symName: __ZNSt3__18ios_base5widthB8ue170006El, symObjAddr: 0x4F720, symBinAddr: 0x100052A94, symSize: 0xB8 }
  - { offsetInCU: 0x37C69, offset: 0x37C69, size: 0x8, addend: 0x0, symName: __ZNSt3__112basic_stringIcNS_11char_traitsIcEENS_9allocatorIcEEEC2B8ue170006Emc, symObjAddr: 0x4F7D8, symBinAddr: 0x100052B4C, symSize: 0x204 }
  - { offsetInCU: 0x37CB4, offset: 0x37CB4, size: 0x8, addend: 0x0, symName: __ZNSt3__119ostreambuf_iteratorIcNS_11char_traitsIcEEEC2B8ue170006ERNS_13basic_ostreamIcS2_EE, symObjAddr: 0x4F9F0, symBinAddr: 0x100052D64, symSize: 0x10C }
  - { offsetInCU: 0x37CEC, offset: 0x37CEC, size: 0x8, addend: 0x0, symName: __ZNKSt3__19basic_iosIcNS_11char_traitsIcEEE5rdbufB8ue170006Ev, symObjAddr: 0x4FAFC, symBinAddr: 0x100052E70, symSize: 0x24 }
  - { offsetInCU: 0x37D14, offset: 0x37D14, size: 0x8, addend: 0x0, symName: __ZNKSt3__18ios_base5rdbufB8ue170006Ev, symObjAddr: 0x4FB20, symBinAddr: 0x100052E94, symSize: 0x64 }
  - { offsetInCU: 0x37D3A, offset: 0x37D3A, size: 0x8, addend: 0x0, symName: __ZNSt3__111char_traitsIcE11eq_int_typeB8ue170006Eii, symObjAddr: 0x4FB84, symBinAddr: 0x100052EF8, symSize: 0x28 }
  - { offsetInCU: 0x37D6D, offset: 0x37D6D, size: 0x8, addend: 0x0, symName: __ZNSt3__111char_traitsIcE3eofB8ue170006Ev, symObjAddr: 0x4FBAC, symBinAddr: 0x100052F20, symSize: 0x8 }
  - { offsetInCU: 0x37D81, offset: 0x37D81, size: 0x8, addend: 0x0, symName: __ZNKSt3__19basic_iosIcNS_11char_traitsIcEEE5widenB8ue170006Ec, symObjAddr: 0x4FBB4, symBinAddr: 0x100052F28, symSize: 0x2A4 }
  - { offsetInCU: 0x37DEC, offset: 0x37DEC, size: 0x8, addend: 0x0, symName: __ZNKSt3__15ctypeIcE5widenB8ue170006Ec, symObjAddr: 0x4FE84, symBinAddr: 0x1000531F8, symSize: 0xBC }
  - { offsetInCU: 0x37E21, offset: 0x37E21, size: 0x8, addend: 0x0, symName: __ZNSt3__18ios_base8setstateB8ue170006Ej, symObjAddr: 0x4FF40, symBinAddr: 0x1000532B4, symSize: 0x9C }
  - { offsetInCU: 0x37E58, offset: 0x37E58, size: 0x8, addend: 0x0, symName: __ZN14FlashRadixTreeINSt3__112basic_stringIcNS0_11char_traitsIcEENS0_9allocatorIcEEEEiL9MatchMode1EEC2Ev, symObjAddr: 0x4FFDC, symBinAddr: 0x100053350, symSize: 0xC0 }
  - { offsetInCU: 0x37E82, offset: 0x37E82, size: 0x8, addend: 0x0, symName: __ZN14FlashRadixTreeINSt3__112basic_stringIcNS0_11char_traitsIcEENS0_9allocatorIcEEEEiL9MatchMode1EE18FlashRadixTreeNodeC1Ev, symObjAddr: 0x5009C, symBinAddr: 0x100053410, symSize: 0x2C }
  - { offsetInCU: 0x37EAC, offset: 0x37EAC, size: 0x8, addend: 0x0, symName: __ZN14FlashRadixTreeINSt3__112basic_stringIcNS0_11char_traitsIcEENS0_9allocatorIcEEEEiL9MatchMode1EE23XFlashRadixTreeIteratorILNS8_17IteratorDirectionE0EEC1EPNS8_18FlashRadixTreeNodeEPKS8_, symObjAddr: 0x500C8, symBinAddr: 0x10005343C, symSize: 0x3C }
  - { offsetInCU: 0x37EF2, offset: 0x37EF2, size: 0x8, addend: 0x0, symName: __ZN14FlashRadixTreeINSt3__112basic_stringIcNS0_11char_traitsIcEENS0_9allocatorIcEEEEiL9MatchMode1EE23XFlashRadixTreeIteratorILNS8_17IteratorDirectionE1EEC1EPNS8_18FlashRadixTreeNodeEPKS8_, symObjAddr: 0x50104, symBinAddr: 0x100053478, symSize: 0x3C }
  - { offsetInCU: 0x37F38, offset: 0x37F38, size: 0x8, addend: 0x0, symName: __ZN14FlashRadixTreeINSt3__112basic_stringIcNS0_11char_traitsIcEENS0_9allocatorIcEEEEiL9MatchMode1EE18FlashRadixTreeNodeC2Ev, symObjAddr: 0x50140, symBinAddr: 0x1000534B4, symSize: 0x214 }
  - { offsetInCU: 0x37F62, offset: 0x37F62, size: 0x8, addend: 0x0, symName: __ZN9SplayTreeIcPN14FlashRadixTreeINSt3__112basic_stringIcNS1_11char_traitsIcEENS1_9allocatorIcEEEEiL9MatchMode1EE18FlashRadixTreeNodeEEC1Ev, symObjAddr: 0x50354, symBinAddr: 0x1000536C8, symSize: 0x2C }
  - { offsetInCU: 0x37F8C, offset: 0x37F8C, size: 0x8, addend: 0x0, symName: __ZN9SplayTreeIcPN14FlashRadixTreeINSt3__112basic_stringIcNS1_11char_traitsIcEENS1_9allocatorIcEEEEiL9MatchMode1EE18FlashRadixTreeNodeEE9XiteratorILNSC_17IteratorDirectionE0EEC1Ev, symObjAddr: 0x50380, symBinAddr: 0x1000536F4, symSize: 0x2C }
  - { offsetInCU: 0x37FB6, offset: 0x37FB6, size: 0x8, addend: 0x0, symName: __ZNSt3__18optionalINS_12basic_stringIcNS_11char_traitsIcEENS_9allocatorIcEEEEEC1B8ue170006Ev, symObjAddr: 0x503AC, symBinAddr: 0x100053720, symSize: 0x2C }
  - { offsetInCU: 0x37FE0, offset: 0x37FE0, size: 0x8, addend: 0x0, symName: __ZN9SplayTreeIcPN14FlashRadixTreeINSt3__112basic_stringIcNS1_11char_traitsIcEENS1_9allocatorIcEEEEiL9MatchMode1EE18FlashRadixTreeNodeEEC2Ev, symObjAddr: 0x503D8, symBinAddr: 0x10005374C, symSize: 0xC8 }
  - { offsetInCU: 0x3800A, offset: 0x3800A, size: 0x8, addend: 0x0, symName: __ZN9SplayTreeIcPN14FlashRadixTreeINSt3__112basic_stringIcNS1_11char_traitsIcEENS1_9allocatorIcEEEEiL9MatchMode1EE18FlashRadixTreeNodeEE9XiteratorILNSC_17IteratorDirectionE0EEC1EPNSC_5splayEPKSC_, symObjAddr: 0x504A0, symBinAddr: 0x100053814, symSize: 0x3C }
  - { offsetInCU: 0x38050, offset: 0x38050, size: 0x8, addend: 0x0, symName: __ZN9SplayTreeIcPN14FlashRadixTreeINSt3__112basic_stringIcNS1_11char_traitsIcEENS1_9allocatorIcEEEEiL9MatchMode1EE18FlashRadixTreeNodeEE9XiteratorILNSC_17IteratorDirectionE1EEC1EPNSC_5splayEPKSC_, symObjAddr: 0x504DC, symBinAddr: 0x100053850, symSize: 0x3C }
  - { offsetInCU: 0x38096, offset: 0x38096, size: 0x8, addend: 0x0, symName: __ZN9SplayTreeIcPN14FlashRadixTreeINSt3__112basic_stringIcNS1_11char_traitsIcEENS1_9allocatorIcEEEEiL9MatchMode1EE18FlashRadixTreeNodeEE9XiteratorILNSC_17IteratorDirectionE0EEC2EPNSC_5splayEPKSC_, symObjAddr: 0x50518, symBinAddr: 0x10005388C, symSize: 0x1D0 }
  - { offsetInCU: 0x380DC, offset: 0x380DC, size: 0x8, addend: 0x0, symName: __ZN9SplayTreeIcPN14FlashRadixTreeINSt3__112basic_stringIcNS1_11char_traitsIcEENS1_9allocatorIcEEEEiL9MatchMode1EE18FlashRadixTreeNodeEE9XiteratorILNSC_17IteratorDirectionE1EEC2EPNSC_5splayEPKSC_, symObjAddr: 0x506E8, symBinAddr: 0x100053A5C, symSize: 0x1D4 }
  - { offsetInCU: 0x38122, offset: 0x38122, size: 0x8, addend: 0x0, symName: __ZN9SplayTreeIcPN14FlashRadixTreeINSt3__112basic_stringIcNS1_11char_traitsIcEENS1_9allocatorIcEEEEiL9MatchMode1EE18FlashRadixTreeNodeEE9XiteratorILNSC_17IteratorDirectionE0EEC2Ev, symObjAddr: 0x508BC, symBinAddr: 0x100053C30, symSize: 0x15C }
  - { offsetInCU: 0x3814C, offset: 0x3814C, size: 0x8, addend: 0x0, symName: __ZNSt3__18optionalINS_12basic_stringIcNS_11char_traitsIcEENS_9allocatorIcEEEEEC2B8ue170006Ev, symObjAddr: 0x50A18, symBinAddr: 0x100053D8C, symSize: 0x2C }
  - { offsetInCU: 0x38176, offset: 0x38176, size: 0x8, addend: 0x0, symName: __ZNSt3__127__optional_move_assign_baseINS_12basic_stringIcNS_11char_traitsIcEENS_9allocatorIcEEEELb0EEC2B8ue170006Ev, symObjAddr: 0x50A44, symBinAddr: 0x100053DB8, symSize: 0x2C }
  - { offsetInCU: 0x381A0, offset: 0x381A0, size: 0x8, addend: 0x0, symName: __ZNSt3__127__optional_copy_assign_baseINS_12basic_stringIcNS_11char_traitsIcEENS_9allocatorIcEEEELb0EEC2B8ue170006Ev, symObjAddr: 0x50A70, symBinAddr: 0x100053DE4, symSize: 0x2C }
  - { offsetInCU: 0x381CA, offset: 0x381CA, size: 0x8, addend: 0x0, symName: __ZNSt3__120__optional_move_baseINS_12basic_stringIcNS_11char_traitsIcEENS_9allocatorIcEEEELb0EEC2B8ue170006Ev, symObjAddr: 0x50A9C, symBinAddr: 0x100053E10, symSize: 0x2C }
  - { offsetInCU: 0x381F4, offset: 0x381F4, size: 0x8, addend: 0x0, symName: __ZNSt3__120__optional_copy_baseINS_12basic_stringIcNS_11char_traitsIcEENS_9allocatorIcEEEELb0EEC2B8ue170006Ev, symObjAddr: 0x50AC8, symBinAddr: 0x100053E3C, symSize: 0x2C }
  - { offsetInCU: 0x3821E, offset: 0x3821E, size: 0x8, addend: 0x0, symName: __ZNSt3__123__optional_storage_baseINS_12basic_stringIcNS_11char_traitsIcEENS_9allocatorIcEEEELb0EEC2Ev, symObjAddr: 0x50AF4, symBinAddr: 0x100053E68, symSize: 0x2C }
  - { offsetInCU: 0x3824B, offset: 0x3824B, size: 0x8, addend: 0x0, symName: __ZNSt3__124__optional_destruct_baseINS_12basic_stringIcNS_11char_traitsIcEENS_9allocatorIcEEEELb0EEC2B8ue170006Ev, symObjAddr: 0x50B20, symBinAddr: 0x100053E94, symSize: 0xE4 }
  - { offsetInCU: 0x38275, offset: 0x38275, size: 0x8, addend: 0x0, symName: __ZN14FlashRadixTreeINSt3__112basic_stringIcNS0_11char_traitsIcEENS0_9allocatorIcEEEEiL9MatchMode1EE23XFlashRadixTreeIteratorILNS8_17IteratorDirectionE0EEC2EPNS8_18FlashRadixTreeNodeEPKS8_, symObjAddr: 0x50C04, symBinAddr: 0x100053F78, symSize: 0x1D0 }
  - { offsetInCU: 0x382BB, offset: 0x382BB, size: 0x8, addend: 0x0, symName: __ZN14FlashRadixTreeINSt3__112basic_stringIcNS0_11char_traitsIcEENS0_9allocatorIcEEEEiL9MatchMode1EE23XFlashRadixTreeIteratorILNS8_17IteratorDirectionE1EEC2EPNS8_18FlashRadixTreeNodeEPKS8_, symObjAddr: 0x50DD4, symBinAddr: 0x100054148, symSize: 0x1D4 }
  - { offsetInCU: 0x38301, offset: 0x38301, size: 0x8, addend: 0x0, symName: __ZN14FlashRadixTreeINSt3__112basic_stringIcNS0_11char_traitsIcEENS0_9allocatorIcEEEEiL9MatchMode1EED2Ev, symObjAddr: 0x50FA8, symBinAddr: 0x10005431C, symSize: 0x2C }
  - { offsetInCU: 0x3832B, offset: 0x3832B, size: 0x8, addend: 0x0, symName: __ZNKSt3__112basic_stringIcNS_11char_traitsIcEENS_9allocatorIcEEE5emptyB8ue170006Ev, symObjAddr: 0x50FD4, symBinAddr: 0x100054348, symSize: 0x30 }
  - { offsetInCU: 0x38351, offset: 0x38351, size: 0x8, addend: 0x0, symName: __ZNK9SplayTreeIcPN14FlashRadixTreeINSt3__112basic_stringIcNS1_11char_traitsIcEENS1_9allocatorIcEEEEiL9MatchMode1EE18FlashRadixTreeNodeEE4findEc, symObjAddr: 0x51004, symBinAddr: 0x100054378, symSize: 0x250 }
  - { offsetInCU: 0x38386, offset: 0x38386, size: 0x8, addend: 0x0, symName: __ZNSt3__112basic_stringIcNS_11char_traitsIcEENS_9allocatorIcEEEixB8ue170006Em, symObjAddr: 0x51254, symBinAddr: 0x1000545C8, symSize: 0x30 }
  - { offsetInCU: 0x383BB, offset: 0x383BB, size: 0x8, addend: 0x0, symName: __ZNK9SplayTreeIcPN14FlashRadixTreeINSt3__112basic_stringIcNS1_11char_traitsIcEENS1_9allocatorIcEEEEiL9MatchMode1EE18FlashRadixTreeNodeEE9XiteratorILNSC_17IteratorDirectionE0EEneERKSF_, symObjAddr: 0x51284, symBinAddr: 0x1000545F8, symSize: 0x310 }
  - { offsetInCU: 0x383EF, offset: 0x383EF, size: 0x8, addend: 0x0, symName: __ZNK9SplayTreeIcPN14FlashRadixTreeINSt3__112basic_stringIcNS1_11char_traitsIcEENS1_9allocatorIcEEEEiL9MatchMode1EE18FlashRadixTreeNodeEE3endEv, symObjAddr: 0x51594, symBinAddr: 0x100054908, symSize: 0x18 }
  - { offsetInCU: 0x38415, offset: 0x38415, size: 0x8, addend: 0x0, symName: __ZNK9SplayTreeIcPN14FlashRadixTreeINSt3__112basic_stringIcNS1_11char_traitsIcEENS1_9allocatorIcEEEEiL9MatchMode1EE18FlashRadixTreeNodeEE9XiteratorILNSC_17IteratorDirectionE0EEptEv, symObjAddr: 0x515AC, symBinAddr: 0x100054920, symSize: 0x60 }
  - { offsetInCU: 0x3843B, offset: 0x3843B, size: 0x8, addend: 0x0, symName: __ZNKSt3__112basic_stringIcNS_11char_traitsIcEENS_9allocatorIcEEEixB8ue170006Em, symObjAddr: 0x5160C, symBinAddr: 0x100054980, symSize: 0x30 }
  - { offsetInCU: 0x38470, offset: 0x38470, size: 0x8, addend: 0x0, symName: __ZNKSt3__112basic_stringIcNS_11char_traitsIcEENS_9allocatorIcEEE6lengthB8ue170006Ev, symObjAddr: 0x5163C, symBinAddr: 0x1000549B0, symSize: 0x24 }
  - { offsetInCU: 0x38496, offset: 0x38496, size: 0x8, addend: 0x0, symName: __ZNKSt3__112basic_stringIcNS_11char_traitsIcEENS_9allocatorIcEEE6substrB8ue170006Emm, symObjAddr: 0x51660, symBinAddr: 0x1000549D4, symSize: 0x210 }
  - { offsetInCU: 0x384DD, offset: 0x384DD, size: 0x8, addend: 0x0, symName: __ZN14FlashRadixTreeINSt3__112basic_stringIcNS0_11char_traitsIcEENS0_9allocatorIcEEEEiL9MatchMode1EE18FlashRadixTreeNodeC1ERKS6_OKibPS9_, symObjAddr: 0x51870, symBinAddr: 0x100054BE4, symSize: 0x58 }
  - { offsetInCU: 0x3853F, offset: 0x3853F, size: 0x8, addend: 0x0, symName: __ZN9SplayTreeIcPN14FlashRadixTreeINSt3__112basic_stringIcNS1_11char_traitsIcEENS1_9allocatorIcEEEEiL9MatchMode1EE18FlashRadixTreeNodeEE6insertEcSB_, symObjAddr: 0x518C8, symBinAddr: 0x100054C3C, symSize: 0x174 }
  - { offsetInCU: 0x38581, offset: 0x38581, size: 0x8, addend: 0x0, symName: __ZN14FlashRadixTreeINSt3__112basic_stringIcNS0_11char_traitsIcEENS0_9allocatorIcEEEEiL9MatchMode1EE18FlashRadixTreeNode13setMyIteratorERKN9SplayTreeIcPS9_E9XiteratorILNSC_17IteratorDirectionE0EEE, symObjAddr: 0x51A3C, symBinAddr: 0x100054DB0, symSize: 0x30 }
  - { offsetInCU: 0x385B6, offset: 0x385B6, size: 0x8, addend: 0x0, symName: __ZN9SplayTreeIcPN14FlashRadixTreeINSt3__112basic_stringIcNS1_11char_traitsIcEENS1_9allocatorIcEEEEiL9MatchMode1EE18FlashRadixTreeNodeEE5eraseEc, symObjAddr: 0x51A6C, symBinAddr: 0x100054DE0, symSize: 0x164 }
  - { offsetInCU: 0x385EB, offset: 0x385EB, size: 0x8, addend: 0x0, symName: __ZN14FlashRadixTreeINSt3__112basic_stringIcNS0_11char_traitsIcEENS0_9allocatorIcEEEEiL9MatchMode1EE18FlashRadixTreeNodeC1ERKS6_OKiPS9_, symObjAddr: 0x51BD0, symBinAddr: 0x100054F44, symSize: 0x44 }
  - { offsetInCU: 0x3863F, offset: 0x3863F, size: 0x8, addend: 0x0, symName: __ZNK9SplayTreeIcPN14FlashRadixTreeINSt3__112basic_stringIcNS1_11char_traitsIcEENS1_9allocatorIcEEEEiL9MatchMode1EE18FlashRadixTreeNodeEE5_findEcPNSC_5splayE, symObjAddr: 0x51C14, symBinAddr: 0x100054F88, symSize: 0x34 }
  - { offsetInCU: 0x38683, offset: 0x38683, size: 0x8, addend: 0x0, symName: __ZN9SplayTreeIcPN14FlashRadixTreeINSt3__112basic_stringIcNS1_11char_traitsIcEENS1_9allocatorIcEEEEiL9MatchMode1EE18FlashRadixTreeNodeEE9XiteratorILNSC_17IteratorDirectionE0EEC1ERKSF_, symObjAddr: 0x51C48, symBinAddr: 0x100054FBC, symSize: 0x34 }
  - { offsetInCU: 0x386BB, offset: 0x386BB, size: 0x8, addend: 0x0, symName: __ZNK9SplayTreeIcPN14FlashRadixTreeINSt3__112basic_stringIcNS1_11char_traitsIcEENS1_9allocatorIcEEEEiL9MatchMode1EE18FlashRadixTreeNodeEE6_splayEcPNSC_5splayE, symObjAddr: 0x51C7C, symBinAddr: 0x100054FF0, symSize: 0xD04 }
  - { offsetInCU: 0x3876E, offset: 0x3876E, size: 0x8, addend: 0x0, symName: __ZN9SplayTreeIcPN14FlashRadixTreeINSt3__112basic_stringIcNS1_11char_traitsIcEENS1_9allocatorIcEEEEiL9MatchMode1EE18FlashRadixTreeNodeEE5splayC1Ev, symObjAddr: 0x52980, symBinAddr: 0x100055CF4, symSize: 0x2C }
  - { offsetInCU: 0x38798, offset: 0x38798, size: 0x8, addend: 0x0, symName: __ZNK9SplayTreeIcPN14FlashRadixTreeINSt3__112basic_stringIcNS1_11char_traitsIcEENS1_9allocatorIcEEEEiL9MatchMode1EE18FlashRadixTreeNodeEE10_RR_RotateEPNSC_5splayE, symObjAddr: 0x529AC, symBinAddr: 0x100055D20, symSize: 0x148 }
  - { offsetInCU: 0x387DC, offset: 0x387DC, size: 0x8, addend: 0x0, symName: __ZNK9SplayTreeIcPN14FlashRadixTreeINSt3__112basic_stringIcNS1_11char_traitsIcEENS1_9allocatorIcEEEEiL9MatchMode1EE18FlashRadixTreeNodeEE10_LL_RotateEPNSC_5splayE, symObjAddr: 0x52AF4, symBinAddr: 0x100055E68, symSize: 0x148 }
  - { offsetInCU: 0x38820, offset: 0x38820, size: 0x8, addend: 0x0, symName: __ZN9SplayTreeIcPN14FlashRadixTreeINSt3__112basic_stringIcNS1_11char_traitsIcEENS1_9allocatorIcEEEEiL9MatchMode1EE18FlashRadixTreeNodeEE5splayC2Ev, symObjAddr: 0x52C3C, symBinAddr: 0x100055FB0, symSize: 0xA0 }
  - { offsetInCU: 0x3884A, offset: 0x3884A, size: 0x8, addend: 0x0, symName: __ZN9SplayTreeIcPN14FlashRadixTreeINSt3__112basic_stringIcNS1_11char_traitsIcEENS1_9allocatorIcEEEEiL9MatchMode1EE18FlashRadixTreeNodeEE9XiteratorILNSC_17IteratorDirectionE0EEC2ERKSF_, symObjAddr: 0x52CDC, symBinAddr: 0x100056050, symSize: 0x270 }
  - { offsetInCU: 0x38882, offset: 0x38882, size: 0x8, addend: 0x0, symName: __ZNK9SplayTreeIcPN14FlashRadixTreeINSt3__112basic_stringIcNS1_11char_traitsIcEENS1_9allocatorIcEEEEiL9MatchMode1EE18FlashRadixTreeNodeEE5splayneERKSD_, symObjAddr: 0x52F4C, symBinAddr: 0x1000562C0, symSize: 0x34 }
  - { offsetInCU: 0x388B6, offset: 0x388B6, size: 0x8, addend: 0x0, symName: __ZNK9SplayTreeIcPN14FlashRadixTreeINSt3__112basic_stringIcNS1_11char_traitsIcEENS1_9allocatorIcEEEEiL9MatchMode1EE18FlashRadixTreeNodeEE5splayeqERKSD_, symObjAddr: 0x52F80, symBinAddr: 0x1000562F4, symSize: 0x100 }
  - { offsetInCU: 0x388EA, offset: 0x388EA, size: 0x8, addend: 0x0, symName: __ZNSt3__19allocatorIcEC1B8ue170006Ev, symObjAddr: 0x53080, symBinAddr: 0x1000563F4, symSize: 0x2C }
  - { offsetInCU: 0x38914, offset: 0x38914, size: 0x8, addend: 0x0, symName: __ZN14FlashRadixTreeINSt3__112basic_stringIcNS0_11char_traitsIcEENS0_9allocatorIcEEEEiL9MatchMode1EE18FlashRadixTreeNodeC2ERKS6_OKibPS9_, symObjAddr: 0x530AC, symBinAddr: 0x100056420, symSize: 0x2DC }
  - { offsetInCU: 0x38976, offset: 0x38976, size: 0x8, addend: 0x0, symName: __ZN9SplayTreeIcPN14FlashRadixTreeINSt3__112basic_stringIcNS1_11char_traitsIcEENS1_9allocatorIcEEEEiL9MatchMode1EE18FlashRadixTreeNodeEE9_New_NodeEcSB_, symObjAddr: 0x53744, symBinAddr: 0x100056AB8, symSize: 0x13C }
  - { offsetInCU: 0x389C9, offset: 0x389C9, size: 0x8, addend: 0x0, symName: __ZN9SplayTreeIcPN14FlashRadixTreeINSt3__112basic_stringIcNS1_11char_traitsIcEENS1_9allocatorIcEEEEiL9MatchMode1EE18FlashRadixTreeNodeEE5splayC1EcSB_, symObjAddr: 0x53880, symBinAddr: 0x100056BF4, symSize: 0x3C }
  - { offsetInCU: 0x38A0F, offset: 0x38A0F, size: 0x8, addend: 0x0, symName: __ZN9SplayTreeIcPN14FlashRadixTreeINSt3__112basic_stringIcNS1_11char_traitsIcEENS1_9allocatorIcEEEEiL9MatchMode1EE18FlashRadixTreeNodeEE5splayC2EcSB_, symObjAddr: 0x538BC, symBinAddr: 0x100056C30, symSize: 0x150 }
  - { offsetInCU: 0x38A55, offset: 0x38A55, size: 0x8, addend: 0x0, symName: __ZN9SplayTreeIcPN14FlashRadixTreeINSt3__112basic_stringIcNS1_11char_traitsIcEENS1_9allocatorIcEEEEiL9MatchMode1EE18FlashRadixTreeNodeEE9XiteratorILNSC_17IteratorDirectionE0EEaSERKSF_, symObjAddr: 0x53A0C, symBinAddr: 0x100056D80, symSize: 0x268 }
  - { offsetInCU: 0x38A89, offset: 0x38A89, size: 0x8, addend: 0x0, symName: __ZN9SplayTreeIcPN14FlashRadixTreeINSt3__112basic_stringIcNS1_11char_traitsIcEENS1_9allocatorIcEEEEiL9MatchMode1EE18FlashRadixTreeNodeEE6_eraseEcPNSC_5splayE, symObjAddr: 0x53C74, symBinAddr: 0x100056FE8, symSize: 0x30C }
  - { offsetInCU: 0x38ADC, offset: 0x38ADC, size: 0x8, addend: 0x0, symName: __ZN14FlashRadixTreeINSt3__112basic_stringIcNS0_11char_traitsIcEENS0_9allocatorIcEEEEiL9MatchMode1EE18FlashRadixTreeNodeC2ERKS6_OKiPS9_, symObjAddr: 0x53F80, symBinAddr: 0x1000572F4, symSize: 0x2B8 }
  - { offsetInCU: 0x38B30, offset: 0x38B30, size: 0x8, addend: 0x0, symName: __ZNK24FlashRadixTreeSerializerINSt3__112basic_stringIcNS0_11char_traitsIcEENS0_9allocatorIcEEEEiL9MatchMode1EE13serializeNodeEPKN14FlashRadixTreeIS6_iLS7_1EE18FlashRadixTreeNodeE, symObjAddr: 0x54238, symBinAddr: 0x1000575AC, symSize: 0x8FC }
  - { offsetInCU: 0x38BEE, offset: 0x38BEE, size: 0x8, addend: 0x0, symName: __ZNK14FlashRadixTreeINSt3__112basic_stringIcNS0_11char_traitsIcEENS0_9allocatorIcEEEEiL9MatchMode1EE7getRootEv, symObjAddr: 0x54B34, symBinAddr: 0x100057EA8, symSize: 0x60 }
  - { offsetInCU: 0x38C14, offset: 0x38C14, size: 0x8, addend: 0x0, symName: __ZNK9SplayTreeIcPN14FlashRadixTreeINSt3__112basic_stringIcNS1_11char_traitsIcEENS1_9allocatorIcEEEEiL9MatchMode1EE18FlashRadixTreeNodeEE5emptyEv, symObjAddr: 0x54B94, symBinAddr: 0x100057F08, symSize: 0x6C }
  - { offsetInCU: 0x38C3A, offset: 0x38C3A, size: 0x8, addend: 0x0, symName: __ZNK9SplayTreeIcPN14FlashRadixTreeINSt3__112basic_stringIcNS1_11char_traitsIcEENS1_9allocatorIcEEEEiL9MatchMode1EE18FlashRadixTreeNodeEE5beginEv, symObjAddr: 0x54C00, symBinAddr: 0x100057F74, symSize: 0x154 }
  - { offsetInCU: 0x38C60, offset: 0x38C60, size: 0x8, addend: 0x0, symName: __ZNK9SplayTreeIcPN14FlashRadixTreeINSt3__112basic_stringIcNS1_11char_traitsIcEENS1_9allocatorIcEEEEiL9MatchMode1EE18FlashRadixTreeNodeEE9XiteratorILNSC_17IteratorDirectionE0EEdeEv, symObjAddr: 0x54D54, symBinAddr: 0x1000580C8, symSize: 0x60 }
  - { offsetInCU: 0x38C86, offset: 0x38C86, size: 0x8, addend: 0x0, symName: __ZN9SplayTreeIcPN14FlashRadixTreeINSt3__112basic_stringIcNS1_11char_traitsIcEENS1_9allocatorIcEEEEiL9MatchMode1EE18FlashRadixTreeNodeEE9XiteratorILNSC_17IteratorDirectionE0EEppEv, symObjAddr: 0x54DB4, symBinAddr: 0x100058128, symSize: 0xA00 }
  - { offsetInCU: 0x38CAD, offset: 0x38CAD, size: 0x8, addend: 0x0, symName: __ZNK9SplayTreeIcPN14FlashRadixTreeINSt3__112basic_stringIcNS1_11char_traitsIcEENS1_9allocatorIcEEEEiL9MatchMode1EE18FlashRadixTreeNodeEE19_getMinimumAndSplayEPNSC_5splayE, symObjAddr: 0x557B4, symBinAddr: 0x100058B28, symSize: 0x264 }
  - { offsetInCU: 0x38CF1, offset: 0x38CF1, size: 0x8, addend: 0x0, symName: __ZNK9SplayTreeIcPN14FlashRadixTreeINSt3__112basic_stringIcNS1_11char_traitsIcEENS1_9allocatorIcEEEEiL9MatchMode1EE18FlashRadixTreeNodeEE19_rotateToNextLargerEv, symObjAddr: 0x55A18, symBinAddr: 0x100058D8C, symSize: 0x434 }
  - { offsetInCU: 0x38D17, offset: 0x38D17, size: 0x8, addend: 0x0, symName: __ZNK9SplayTreeIcPN14FlashRadixTreeINSt3__112basic_stringIcNS1_11char_traitsIcEENS1_9allocatorIcEEEEiL9MatchMode1EE18FlashRadixTreeNodeEE20_rotateToNextSmallerEv, symObjAddr: 0x55E4C, symBinAddr: 0x1000591C0, symSize: 0x434 }
  - { offsetInCU: 0x38D3D, offset: 0x38D3D, size: 0x8, addend: 0x0, symName: __ZNK14FlashRadixTreeINSt3__112basic_stringIcNS0_11char_traitsIcEENS0_9allocatorIcEEEEiL9MatchMode1EE17_printRecursivelyERKcPNS8_18FlashRadixTreeNodeEi, symObjAddr: 0x56280, symBinAddr: 0x1000595F4, symSize: 0x6AC }
  - { offsetInCU: 0x38E06, offset: 0x38E06, size: 0x8, addend: 0x0, symName: __ZNK14FlashRadixTreeINSt3__112basic_stringIcNS0_11char_traitsIcEENS0_9allocatorIcEEEEiL9MatchMode1EE18FlashRadixTreeNodeeqERKS9_, symObjAddr: 0x56B4C, symBinAddr: 0x100059EC0, symSize: 0x318 }
  - { offsetInCU: 0x38E3B, offset: 0x38E3B, size: 0x8, addend: 0x0, symName: __ZNKSt3__123__optional_storage_baseINS_12basic_stringIcNS_11char_traitsIcEENS_9allocatorIcEEEELb0EE9has_valueB8ue170006Ev, symObjAddr: 0x56E64, symBinAddr: 0x10005A1D8, symSize: 0x8C }
  - { offsetInCU: 0x38E61, offset: 0x38E61, size: 0x8, addend: 0x0, symName: __ZNRSt3__18optionalINS_12basic_stringIcNS_11char_traitsIcEENS_9allocatorIcEEEEE5valueB8ue170006Ev, symObjAddr: 0x56EF0, symBinAddr: 0x10005A264, symSize: 0x40 }
  - { offsetInCU: 0x38E87, offset: 0x38E87, size: 0x8, addend: 0x0, symName: __ZNSt3__18optionalINS_12basic_stringIcNS_11char_traitsIcEENS_9allocatorIcEEEEEaSB8ue170006IRKS6_vEERS7_OT_, symObjAddr: 0x56F30, symBinAddr: 0x10005A2A4, symSize: 0x64 }
  - { offsetInCU: 0x38EC6, offset: 0x38EC6, size: 0x8, addend: 0x0, symName: __ZNSt3__112basic_stringIcNS_11char_traitsIcEENS_9allocatorIcEEE6insertB8ue170006EmRKS5_, symObjAddr: 0x56F94, symBinAddr: 0x10005A308, symSize: 0x5C }
  - { offsetInCU: 0x38F0A, offset: 0x38F0A, size: 0x8, addend: 0x0, symName: __ZNRSt3__123__optional_storage_baseINS_12basic_stringIcNS_11char_traitsIcEENS_9allocatorIcEEEELb0EE5__getB8ue170006Ev, symObjAddr: 0x5703C, symBinAddr: 0x10005A3B0, symSize: 0x14 }
  - { offsetInCU: 0x38F3F, offset: 0x38F3F, size: 0x8, addend: 0x0, symName: __ZNSt19bad_optional_accessC1Ev, symObjAddr: 0x57050, symBinAddr: 0x10005A3C4, symSize: 0x2C }
  - { offsetInCU: 0x38F6B, offset: 0x38F6B, size: 0x8, addend: 0x0, symName: __ZNSt19bad_optional_accessC2Ev, symObjAddr: 0x5707C, symBinAddr: 0x10005A3F0, symSize: 0x84 }
  - { offsetInCU: 0x38F97, offset: 0x38F97, size: 0x8, addend: 0x0, symName: __ZNSt9exceptionC2B8ue170006Ev, symObjAddr: 0x57100, symBinAddr: 0x10005A474, symSize: 0x74 }
  - { offsetInCU: 0x38FC1, offset: 0x38FC1, size: 0x8, addend: 0x0, symName: __ZNSt3__123__optional_storage_baseINS_12basic_stringIcNS_11char_traitsIcEENS_9allocatorIcEEEELb0EE11__constructB8ue170006IJRKS6_EEEvDpOT_, symObjAddr: 0x57174, symBinAddr: 0x10005A4E8, symSize: 0xA4 }
  - { offsetInCU: 0x39001, offset: 0x39001, size: 0x8, addend: 0x0, symName: __ZNSt3__19basic_iosIcNS_11char_traitsIcEEEC2B8ue170006Ev, symObjAddr: 0x57218, symBinAddr: 0x10005A58C, symSize: 0x84 }
  - { offsetInCU: 0x3902B, offset: 0x3902B, size: 0x8, addend: 0x0, symName: __ZNSt3__114basic_iostreamIcNS_11char_traitsIcEEEC2B8ue170006EPNS_15basic_streambufIcS2_EE, symObjAddr: 0x5729C, symBinAddr: 0x10005A610, symSize: 0x254 }
  - { offsetInCU: 0x39071, offset: 0x39071, size: 0x8, addend: 0x0, symName: __ZNSt3__115basic_stringbufIcNS_11char_traitsIcEENS_9allocatorIcEEEC1B8ue170006Ej, symObjAddr: 0x574F0, symBinAddr: 0x10005A864, symSize: 0x34 }
  - { offsetInCU: 0x390AA, offset: 0x390AA, size: 0x8, addend: 0x0, symName: __ZNSt3__18ios_baseC2B8ue170006Ev, symObjAddr: 0x57524, symBinAddr: 0x10005A898, symSize: 0x74 }
  - { offsetInCU: 0x390D4, offset: 0x390D4, size: 0x8, addend: 0x0, symName: __ZNSt3__113basic_istreamIcNS_11char_traitsIcEEEC2B8ue170006EPNS_15basic_streambufIcS2_EE, symObjAddr: 0x57598, symBinAddr: 0x10005A90C, symSize: 0x20C }
  - { offsetInCU: 0x39119, offset: 0x39119, size: 0x8, addend: 0x0, symName: __ZNSt3__113basic_ostreamIcNS_11char_traitsIcEEEC2B8ue170006Ev, symObjAddr: 0x577A4, symBinAddr: 0x10005AB18, symSize: 0x17C }
  - { offsetInCU: 0x39150, offset: 0x39150, size: 0x8, addend: 0x0, symName: __ZNSt3__19basic_iosIcNS_11char_traitsIcEEE4initB8ue170006EPNS_15basic_streambufIcS2_EE, symObjAddr: 0x57920, symBinAddr: 0x10005AC94, symSize: 0xEC }
  - { offsetInCU: 0x39187, offset: 0x39187, size: 0x8, addend: 0x0, symName: __ZNSt3__115basic_stringbufIcNS_11char_traitsIcEENS_9allocatorIcEEEC2B8ue170006Ej, symObjAddr: 0x57A0C, symBinAddr: 0x10005AD80, symSize: 0x138 }
  - { offsetInCU: 0x391C0, offset: 0x391C0, size: 0x8, addend: 0x0, symName: __ZNK14FlashRadixTreeINSt3__112basic_stringIcNS0_11char_traitsIcEENS0_9allocatorIcEEEEiL9MatchMode1EE11_getMinimumEv, symObjAddr: 0x57B44, symBinAddr: 0x10005AEB8, symSize: 0x4D8 }
  - { offsetInCU: 0x3922B, offset: 0x3922B, size: 0x8, addend: 0x0, symName: __ZNK9SplayTreeIcPN14FlashRadixTreeINSt3__112basic_stringIcNS1_11char_traitsIcEENS1_9allocatorIcEEEEiL9MatchMode1EE18FlashRadixTreeNodeEE9XiteratorILNSC_17IteratorDirectionE0EEeqERKSF_, symObjAddr: 0x5801C, symBinAddr: 0x10005B390, symSize: 0x310 }
  - { offsetInCU: 0x3925F, offset: 0x3925F, size: 0x8, addend: 0x0, symName: __ZN14FlashRadixTreeINSt3__112basic_stringIcNS0_11char_traitsIcEENS0_9allocatorIcEEEEiL9MatchMode1EE23XFlashRadixTreeIteratorILNS8_17IteratorDirectionE0EEC2ERKSB_, symObjAddr: 0x5832C, symBinAddr: 0x10005B6A0, symSize: 0x270 }
  - { offsetInCU: 0x39297, offset: 0x39297, size: 0x8, addend: 0x0, symName: __ZNK14FlashRadixTreeINSt3__112basic_stringIcNS0_11char_traitsIcEENS0_9allocatorIcEEEEiL9MatchMode1EE5_nextEPNS8_18FlashRadixTreeNodeE, symObjAddr: 0x5859C, symBinAddr: 0x10005B910, symSize: 0xB38 }
  - { offsetInCU: 0x392F1, offset: 0x392F1, size: 0x8, addend: 0x0, symName: __ZNK14FlashRadixTreeINSt3__112basic_stringIcNS0_11char_traitsIcEENS0_9allocatorIcEEEEiL9MatchMode1EE5_prevEPNS8_18FlashRadixTreeNodeE, symObjAddr: 0x590D4, symBinAddr: 0x10005C448, symSize: 0x9DC }
  - { offsetInCU: 0x3934B, offset: 0x3934B, size: 0x8, addend: 0x0, symName: __ZN9SplayTreeIcPN14FlashRadixTreeINSt3__112basic_stringIcNS1_11char_traitsIcEENS1_9allocatorIcEEEEiL9MatchMode1EE18FlashRadixTreeNodeEE9XiteratorILNSC_17IteratorDirectionE1EEC1ERKNSD_ILSE_0EEE, symObjAddr: 0x59AB0, symBinAddr: 0x10005CE24, symSize: 0x34 }
  - { offsetInCU: 0x39383, offset: 0x39383, size: 0x8, addend: 0x0, symName: __ZN9SplayTreeIcPN14FlashRadixTreeINSt3__112basic_stringIcNS1_11char_traitsIcEENS1_9allocatorIcEEEEiL9MatchMode1EE18FlashRadixTreeNodeEE9XiteratorILNSC_17IteratorDirectionE1EEppEv, symObjAddr: 0x59AE4, symBinAddr: 0x10005CE58, symSize: 0xA00 }
  - { offsetInCU: 0x393AA, offset: 0x393AA, size: 0x8, addend: 0x0, symName: __ZNK9SplayTreeIcPN14FlashRadixTreeINSt3__112basic_stringIcNS1_11char_traitsIcEENS1_9allocatorIcEEEEiL9MatchMode1EE18FlashRadixTreeNodeEE9XiteratorILNSC_17IteratorDirectionE1EEeqERKSF_, symObjAddr: 0x5A4E4, symBinAddr: 0x10005D858, symSize: 0x310 }
  - { offsetInCU: 0x393DE, offset: 0x393DE, size: 0x8, addend: 0x0, symName: __ZNK9SplayTreeIcPN14FlashRadixTreeINSt3__112basic_stringIcNS1_11char_traitsIcEENS1_9allocatorIcEEEEiL9MatchMode1EE18FlashRadixTreeNodeEE4rendEv, symObjAddr: 0x5A7F4, symBinAddr: 0x10005DB68, symSize: 0x18 }
  - { offsetInCU: 0x39404, offset: 0x39404, size: 0x8, addend: 0x0, symName: __ZN9SplayTreeIcPN14FlashRadixTreeINSt3__112basic_stringIcNS1_11char_traitsIcEENS1_9allocatorIcEEEEiL9MatchMode1EE18FlashRadixTreeNodeEE9XiteratorILNSC_17IteratorDirectionE1EEaSERKNSD_ILSE_0EEE, symObjAddr: 0x5A80C, symBinAddr: 0x10005DB80, symSize: 0x26C }
  - { offsetInCU: 0x39438, offset: 0x39438, size: 0x8, addend: 0x0, symName: __ZNK9SplayTreeIcPN14FlashRadixTreeINSt3__112basic_stringIcNS1_11char_traitsIcEENS1_9allocatorIcEEEEiL9MatchMode1EE18FlashRadixTreeNodeEE9XiteratorILNSC_17IteratorDirectionE1EEdeEv, symObjAddr: 0x5AA78, symBinAddr: 0x10005DDEC, symSize: 0x60 }
  - { offsetInCU: 0x3945E, offset: 0x3945E, size: 0x8, addend: 0x0, symName: __ZNK9SplayTreeIcPN14FlashRadixTreeINSt3__112basic_stringIcNS1_11char_traitsIcEENS1_9allocatorIcEEEEiL9MatchMode1EE18FlashRadixTreeNodeEE9XiteratorILNSC_17IteratorDirectionE1EEneERKSF_, symObjAddr: 0x5AAD8, symBinAddr: 0x10005DE4C, symSize: 0x310 }
  - { offsetInCU: 0x39492, offset: 0x39492, size: 0x8, addend: 0x0, symName: __ZNK9SplayTreeIcPN14FlashRadixTreeINSt3__112basic_stringIcNS1_11char_traitsIcEENS1_9allocatorIcEEEEiL9MatchMode1EE18FlashRadixTreeNodeEE9XiteratorILNSC_17IteratorDirectionE1EEptEv, symObjAddr: 0x5ADE8, symBinAddr: 0x10005E15C, symSize: 0x60 }
  - { offsetInCU: 0x394B8, offset: 0x394B8, size: 0x8, addend: 0x0, symName: __ZNK9SplayTreeIcPN14FlashRadixTreeINSt3__112basic_stringIcNS1_11char_traitsIcEENS1_9allocatorIcEEEEiL9MatchMode1EE18FlashRadixTreeNodeEE6rbeginEv, symObjAddr: 0x5AE48, symBinAddr: 0x10005E1BC, symSize: 0x154 }
  - { offsetInCU: 0x394DE, offset: 0x394DE, size: 0x8, addend: 0x0, symName: __ZN9SplayTreeIcPN14FlashRadixTreeINSt3__112basic_stringIcNS1_11char_traitsIcEENS1_9allocatorIcEEEEiL9MatchMode1EE18FlashRadixTreeNodeEE9XiteratorILNSC_17IteratorDirectionE1EEaSERKSF_, symObjAddr: 0x5AF9C, symBinAddr: 0x10005E310, symSize: 0x26C }
  - { offsetInCU: 0x39512, offset: 0x39512, size: 0x8, addend: 0x0, symName: __ZN9SplayTreeIcPN14FlashRadixTreeINSt3__112basic_stringIcNS1_11char_traitsIcEENS1_9allocatorIcEEEEiL9MatchMode1EE18FlashRadixTreeNodeEE9XiteratorILNSC_17IteratorDirectionE1EEC2ERKNSD_ILSE_0EEE, symObjAddr: 0x5B208, symBinAddr: 0x10005E57C, symSize: 0x274 }
  - { offsetInCU: 0x3954A, offset: 0x3954A, size: 0x8, addend: 0x0, symName: __ZN9SplayTreeIcPN14FlashRadixTreeINSt3__112basic_stringIcNS1_11char_traitsIcEENS1_9allocatorIcEEEEiL9MatchMode1EE18FlashRadixTreeNodeEE9XiteratorILNSC_17IteratorDirectionE1EEC1ERKSF_, symObjAddr: 0x5B47C, symBinAddr: 0x10005E7F0, symSize: 0x34 }
  - { offsetInCU: 0x39582, offset: 0x39582, size: 0x8, addend: 0x0, symName: __ZNK9SplayTreeIcPN14FlashRadixTreeINSt3__112basic_stringIcNS1_11char_traitsIcEENS1_9allocatorIcEEEEiL9MatchMode1EE18FlashRadixTreeNodeEE19_getMaximumAndSplayEPNSC_5splayE, symObjAddr: 0x5B4B0, symBinAddr: 0x10005E824, symSize: 0x264 }
  - { offsetInCU: 0x395C6, offset: 0x395C6, size: 0x8, addend: 0x0, symName: __ZN9SplayTreeIcPN14FlashRadixTreeINSt3__112basic_stringIcNS1_11char_traitsIcEENS1_9allocatorIcEEEEiL9MatchMode1EE18FlashRadixTreeNodeEE9XiteratorILNSC_17IteratorDirectionE1EEC2ERKSF_, symObjAddr: 0x5B714, symBinAddr: 0x10005EA88, symSize: 0x274 }
  - { offsetInCU: 0x395FE, offset: 0x395FE, size: 0x8, addend: 0x0, symName: __ZNKRSt3__115basic_stringbufIcNS_11char_traitsIcEENS_9allocatorIcEEE3strB8ue170006Ev, symObjAddr: 0x5B988, symBinAddr: 0x10005ECFC, symSize: 0x1F4 }
  - { offsetInCU: 0x39625, offset: 0x39625, size: 0x8, addend: 0x0, symName: __ZNKSt3__115basic_stringbufIcNS_11char_traitsIcEENS_9allocatorIcEEE3strB8ue170006IS4_EENS_12basic_stringIcS2_T_EERKS8_, symObjAddr: 0x5BB7C, symBinAddr: 0x10005EEF0, symSize: 0x234 }
  - { offsetInCU: 0x39665, offset: 0x39665, size: 0x8, addend: 0x0, symName: __ZNKSt3__112basic_stringIcNS_11char_traitsIcEENS_9allocatorIcEEE13get_allocatorB8ue170006Ev, symObjAddr: 0x5BDB0, symBinAddr: 0x10005F124, symSize: 0x24 }
  - { offsetInCU: 0x3968B, offset: 0x3968B, size: 0x8, addend: 0x0, symName: __ZNKSt3__115basic_stringbufIcNS_11char_traitsIcEENS_9allocatorIcEEE4viewB8ue170006Ev, symObjAddr: 0x5BDD4, symBinAddr: 0x10005F148, symSize: 0x454 }
  - { offsetInCU: 0x396B4, offset: 0x396B4, size: 0x8, addend: 0x0, symName: __ZNSt3__112basic_stringIcNS_11char_traitsIcEENS_9allocatorIcEEEC1INS_17basic_string_viewIcS2_EELi0EEERKT_RKS4_, symObjAddr: 0x5C228, symBinAddr: 0x10005F59C, symSize: 0x3C }
  - { offsetInCU: 0x3970B, offset: 0x3970B, size: 0x8, addend: 0x0, symName: __ZNKSt3__115basic_streambufIcNS_11char_traitsIcEEE4pptrB8ue170006Ev, symObjAddr: 0x5C264, symBinAddr: 0x10005F5D8, symSize: 0x64 }
  - { offsetInCU: 0x39731, offset: 0x39731, size: 0x8, addend: 0x0, symName: __ZNKSt3__115basic_streambufIcNS_11char_traitsIcEEE5pbaseB8ue170006Ev, symObjAddr: 0x5C2C8, symBinAddr: 0x10005F63C, symSize: 0x64 }
  - { offsetInCU: 0x3975C, offset: 0x3975C, size: 0x8, addend: 0x0, symName: __ZNSt3__117basic_string_viewIcNS_11char_traitsIcEEEC1B8ue170006IPcS5_EET_T0_, symObjAddr: 0x5C32C, symBinAddr: 0x10005F6A0, symSize: 0x3C }
  - { offsetInCU: 0x397B6, offset: 0x397B6, size: 0x8, addend: 0x0, symName: __ZNKSt3__115basic_streambufIcNS_11char_traitsIcEEE5ebackB8ue170006Ev, symObjAddr: 0x5C368, symBinAddr: 0x10005F6DC, symSize: 0x64 }
  - { offsetInCU: 0x397DC, offset: 0x397DC, size: 0x8, addend: 0x0, symName: __ZNKSt3__115basic_streambufIcNS_11char_traitsIcEEE5egptrB8ue170006Ev, symObjAddr: 0x5C3CC, symBinAddr: 0x10005F740, symSize: 0x64 }
  - { offsetInCU: 0x39802, offset: 0x39802, size: 0x8, addend: 0x0, symName: __ZNSt3__117basic_string_viewIcNS_11char_traitsIcEEEC1B8ue170006Ev, symObjAddr: 0x5C430, symBinAddr: 0x10005F7A4, symSize: 0x2C }
  - { offsetInCU: 0x3982C, offset: 0x3982C, size: 0x8, addend: 0x0, symName: __ZNSt3__117basic_string_viewIcNS_11char_traitsIcEEEC2B8ue170006IPcS5_EET_T0_, symObjAddr: 0x5C45C, symBinAddr: 0x10005F7D0, symSize: 0xD0 }
  - { offsetInCU: 0x39886, offset: 0x39886, size: 0x8, addend: 0x0, symName: __ZNSt3__117basic_string_viewIcNS_11char_traitsIcEEEC2B8ue170006Ev, symObjAddr: 0x5C550, symBinAddr: 0x10005F8C4, symSize: 0x9C }
  - { offsetInCU: 0x398B0, offset: 0x398B0, size: 0x8, addend: 0x0, symName: __ZNSt3__112basic_stringIcNS_11char_traitsIcEENS_9allocatorIcEEEC2INS_17basic_string_viewIcS2_EELi0EEERKT_RKS4_, symObjAddr: 0x5C5EC, symBinAddr: 0x10005F960, symSize: 0x268 }
  - { offsetInCU: 0x3992B, offset: 0x3992B, size: 0x8, addend: 0x0, symName: __ZNSt3__117__compressed_pairINS_12basic_stringIcNS_11char_traitsIcEENS_9allocatorIcEEE5__repES5_EC1B8ue170006INS_18__default_init_tagERKS5_EEOT_OT0_, symObjAddr: 0x5C854, symBinAddr: 0x10005FBC8, symSize: 0x3C }
  - { offsetInCU: 0x39983, offset: 0x39983, size: 0x8, addend: 0x0, symName: __ZNSt3__117__compressed_pairINS_12basic_stringIcNS_11char_traitsIcEENS_9allocatorIcEEE5__repES5_EC2B8ue170006INS_18__default_init_tagERKS5_EEOT_OT0_, symObjAddr: 0x5C890, symBinAddr: 0x10005FC04, symSize: 0x40 }
  - { offsetInCU: 0x399DB, offset: 0x399DB, size: 0x8, addend: 0x0, symName: __ZNSt3__122__compressed_pair_elemINS_9allocatorIcEELi1ELb1EEC2B8ue170006IRKS2_vEEOT_, symObjAddr: 0x5C8D0, symBinAddr: 0x10005FC44, symSize: 0x18 }
  - { offsetInCU: 0x39A1D, offset: 0x39A1D, size: 0x8, addend: 0x0, symName: __ZNKSt3__112basic_stringIcNS_11char_traitsIcEENS_9allocatorIcEEE7__allocB8ue170006Ev, symObjAddr: 0x5C8E8, symBinAddr: 0x10005FC5C, symSize: 0x24 }
  - { offsetInCU: 0x39A43, offset: 0x39A43, size: 0x8, addend: 0x0, symName: __ZNKSt3__117__compressed_pairINS_12basic_stringIcNS_11char_traitsIcEENS_9allocatorIcEEE5__repES5_E6secondB8ue170006Ev, symObjAddr: 0x5C90C, symBinAddr: 0x10005FC80, symSize: 0x24 }
  - { offsetInCU: 0x39A69, offset: 0x39A69, size: 0x8, addend: 0x0, symName: __ZNKSt3__122__compressed_pair_elemINS_9allocatorIcEELi1ELb1EE5__getB8ue170006Ev, symObjAddr: 0x5C930, symBinAddr: 0x10005FCA4, symSize: 0x14 }
  - { offsetInCU: 0x39A8F, offset: 0x39A8F, size: 0x8, addend: 0x0, symName: __ZNSt3__115basic_stringbufIcNS_11char_traitsIcEENS_9allocatorIcEEE3strB8ue170006EONS_12basic_stringIcS2_S4_EE, symObjAddr: 0x5C944, symBinAddr: 0x10005FCB8, symSize: 0x3C }
  - { offsetInCU: 0x39AC4, offset: 0x39AC4, size: 0x8, addend: 0x0, symName: __ZNSt3__115basic_stringbufIcNS_11char_traitsIcEENS_9allocatorIcEEE15__init_buf_ptrsB8ue170006Ev, symObjAddr: 0x5C980, symBinAddr: 0x10005FCF4, symSize: 0x394 }
  - { offsetInCU: 0x39B0A, offset: 0x39B0A, size: 0x8, addend: 0x0, symName: __ZNSt3__115basic_streambufIcNS_11char_traitsIcEEE4setgB8ue170006EPcS4_S4_, symObjAddr: 0x5CD14, symBinAddr: 0x100060088, symSize: 0x108 }
  - { offsetInCU: 0x39B5A, offset: 0x39B5A, size: 0x8, addend: 0x0, symName: __ZNSt3__112basic_stringIcNS_11char_traitsIcEENS_9allocatorIcEEE6resizeB8ue170006Em, symObjAddr: 0x5CE1C, symBinAddr: 0x100060190, symSize: 0x30 }
  - { offsetInCU: 0x39B8F, offset: 0x39B8F, size: 0x8, addend: 0x0, symName: __ZNKSt3__112basic_stringIcNS_11char_traitsIcEENS_9allocatorIcEEE8capacityB8ue170006Ev, symObjAddr: 0x5CE4C, symBinAddr: 0x1000601C0, symSize: 0x54 }
  - { offsetInCU: 0x39BB5, offset: 0x39BB5, size: 0x8, addend: 0x0, symName: __ZNSt3__115basic_streambufIcNS_11char_traitsIcEEE4setpB8ue170006EPcS4_, symObjAddr: 0x5CEA0, symBinAddr: 0x100060214, symSize: 0xFC }
  - { offsetInCU: 0x39BF9, offset: 0x39BF9, size: 0x8, addend: 0x0, symName: __ZNSt3__115basic_streambufIcNS_11char_traitsIcEEE5pbumpB8ue170006Ei, symObjAddr: 0x5CF9C, symBinAddr: 0x100060310, symSize: 0x7C }
  - { offsetInCU: 0x39C2E, offset: 0x39C2E, size: 0x8, addend: 0x0, symName: __ZNK14FlashRadixTreeINSt3__112basic_stringIcNS0_11char_traitsIcEENS0_9allocatorIcEEEEiL9MatchMode1EE11_getMaximumEv, symObjAddr: 0x5D018, symBinAddr: 0x10006038C, symSize: 0x428 }
  - { offsetInCU: 0x39C99, offset: 0x39C99, size: 0x8, addend: 0x0, symName: __ZN14FlashRadixTreeINSt3__112basic_stringIcNS0_11char_traitsIcEENS0_9allocatorIcEEEEiL9MatchMode1EE23XFlashRadixTreeIteratorILNS8_17IteratorDirectionE1EEC1ERKSB_, symObjAddr: 0x5D440, symBinAddr: 0x1000607B4, symSize: 0x34 }
  - { offsetInCU: 0x39CD1, offset: 0x39CD1, size: 0x8, addend: 0x0, symName: __ZN14FlashRadixTreeINSt3__112basic_stringIcNS0_11char_traitsIcEENS0_9allocatorIcEEEEiL9MatchMode1EE23XFlashRadixTreeIteratorILNS8_17IteratorDirectionE1EEC2ERKSB_, symObjAddr: 0x5D474, symBinAddr: 0x1000607E8, symSize: 0x274 }
  - { offsetInCU: 0x39D09, offset: 0x39D09, size: 0x8, addend: 0x0, symName: __ZNK14FlashRadixTreeINSt3__112basic_stringIcNS0_11char_traitsIcEENS0_9allocatorIcEEEEiL9MatchMode1EE23XFlashRadixTreeIteratorILNS8_17IteratorDirectionE1EEeqERKSB_, symObjAddr: 0x5D6E8, symBinAddr: 0x100060A5C, symSize: 0x300 }
  - { offsetInCU: 0x39D3D, offset: 0x39D3D, size: 0x8, addend: 0x0, symName: __ZN14FlashRadixTreeINSt3__112basic_stringIcNS0_11char_traitsIcEENS0_9allocatorIcEEEEiL9MatchMode1EE6_eraseERKS6_, symObjAddr: 0x5D9E8, symBinAddr: 0x100060D5C, symSize: 0xF5C }
  - { offsetInCU: 0x39E42, offset: 0x39E42, size: 0x8, addend: 0x0, symName: __ZNKSt3__112basic_stringIcNS_11char_traitsIcEENS_9allocatorIcEEE11starts_withB8ue170006ENS_17basic_string_viewIcS2_EE, symObjAddr: 0x5E944, symBinAddr: 0x100061CB8, symSize: 0x2E4 }
  - { offsetInCU: 0x39E7C, offset: 0x39E7C, size: 0x8, addend: 0x0, symName: __ZNK9SplayTreeIcPN14FlashRadixTreeINSt3__112basic_stringIcNS1_11char_traitsIcEENS1_9allocatorIcEEEEiL9MatchMode1EE18FlashRadixTreeNodeEE4sizeEv, symObjAddr: 0x5EC28, symBinAddr: 0x100061F9C, symSize: 0x64 }
  - { offsetInCU: 0x39EA2, offset: 0x39EA2, size: 0x8, addend: 0x0, symName: __ZNK9SplayTreeIcPN14FlashRadixTreeINSt3__112basic_stringIcNS1_11char_traitsIcEENS1_9allocatorIcEEEEiL9MatchMode1EE18FlashRadixTreeNodeEE4rootEv, symObjAddr: 0x5EC8C, symBinAddr: 0x100062000, symSize: 0x60 }
  - { offsetInCU: 0x39EC8, offset: 0x39EC8, size: 0x8, addend: 0x0, symName: __ZNSt3__112basic_stringIcNS_11char_traitsIcEENS_9allocatorIcEEE6appendB8ue170006ERKS5_, symObjAddr: 0x5ECEC, symBinAddr: 0x100062060, symSize: 0x4C }
  - { offsetInCU: 0x39EFD, offset: 0x39EFD, size: 0x8, addend: 0x0, symName: __ZN9SplayTreeIcPN14FlashRadixTreeINSt3__112basic_stringIcNS1_11char_traitsIcEENS1_9allocatorIcEEEEiL9MatchMode1EE18FlashRadixTreeNodeEEaSEOSC_, symObjAddr: 0x5ED38, symBinAddr: 0x1000620AC, symSize: 0x1D0 }
  - { offsetInCU: 0x39F32, offset: 0x39F32, size: 0x8, addend: 0x0, symName: __ZN14FlashRadixTreeINSt3__112basic_stringIcNS0_11char_traitsIcEENS0_9allocatorIcEEEEiL9MatchMode1EE18FlashRadixTreeNodeD1Ev, symObjAddr: 0x5EF08, symBinAddr: 0x10006227C, symSize: 0x2C }
  - { offsetInCU: 0x39F5C, offset: 0x39F5C, size: 0x8, addend: 0x0, symName: __ZNKSt3__117basic_string_viewIcNS_11char_traitsIcEEE11starts_withB8ue170006ES3_, symObjAddr: 0x5EF34, symBinAddr: 0x1000622A8, symSize: 0x30C }
  - { offsetInCU: 0x39F96, offset: 0x39F96, size: 0x8, addend: 0x0, symName: __ZNKSt3__117basic_string_viewIcNS_11char_traitsIcEEE7compareB8ue170006EmmS3_, symObjAddr: 0x5F240, symBinAddr: 0x1000625B4, symSize: 0x328 }
  - { offsetInCU: 0x39FF0, offset: 0x39FF0, size: 0x8, addend: 0x0, symName: __ZNKSt3__117basic_string_viewIcNS_11char_traitsIcEEE6substrB8ue170006Emm, symObjAddr: 0x5F568, symBinAddr: 0x1000628DC, symSize: 0x3D8 }
  - { offsetInCU: 0x3A03A, offset: 0x3A03A, size: 0x8, addend: 0x0, symName: __ZNSt12out_of_rangeC1B8ue170006EPKc, symObjAddr: 0x5F9A8, symBinAddr: 0x100062D1C, symSize: 0x34 }
  - { offsetInCU: 0x3A072, offset: 0x3A072, size: 0x8, addend: 0x0, symName: __ZNSt12out_of_rangeC2B8ue170006EPKc, symObjAddr: 0x5F9DC, symBinAddr: 0x100062D50, symSize: 0x8C }
  - { offsetInCU: 0x3A0AA, offset: 0x3A0AA, size: 0x8, addend: 0x0, symName: __ZN14FlashRadixTreeINSt3__112basic_stringIcNS0_11char_traitsIcEENS0_9allocatorIcEEEEiL9MatchMode1EE18FlashRadixTreeNodeD2Ev, symObjAddr: 0x5FA68, symBinAddr: 0x100062DDC, symSize: 0x44 }
  - { offsetInCU: 0x3A0D4, offset: 0x3A0D4, size: 0x8, addend: 0x0, symName: __ZNSt3__18optionalINS_12basic_stringIcNS_11char_traitsIcEENS_9allocatorIcEEEEED1Ev, symObjAddr: 0x5FAAC, symBinAddr: 0x100062E20, symSize: 0x2C }
  - { offsetInCU: 0x3A101, offset: 0x3A101, size: 0x8, addend: 0x0, symName: __ZN9SplayTreeIcPN14FlashRadixTreeINSt3__112basic_stringIcNS1_11char_traitsIcEENS1_9allocatorIcEEEEiL9MatchMode1EE18FlashRadixTreeNodeEED1Ev, symObjAddr: 0x5FAD8, symBinAddr: 0x100062E4C, symSize: 0x2C }
  - { offsetInCU: 0x3A12B, offset: 0x3A12B, size: 0x8, addend: 0x0, symName: __ZNSt3__18optionalINS_12basic_stringIcNS_11char_traitsIcEENS_9allocatorIcEEEEED2Ev, symObjAddr: 0x5FB04, symBinAddr: 0x100062E78, symSize: 0x2C }
  - { offsetInCU: 0x3A158, offset: 0x3A158, size: 0x8, addend: 0x0, symName: __ZNSt3__127__optional_move_assign_baseINS_12basic_stringIcNS_11char_traitsIcEENS_9allocatorIcEEEELb0EED2Ev, symObjAddr: 0x5FB30, symBinAddr: 0x100062EA4, symSize: 0x2C }
  - { offsetInCU: 0x3A185, offset: 0x3A185, size: 0x8, addend: 0x0, symName: __ZNSt3__127__optional_copy_assign_baseINS_12basic_stringIcNS_11char_traitsIcEENS_9allocatorIcEEEELb0EED2Ev, symObjAddr: 0x5FB5C, symBinAddr: 0x100062ED0, symSize: 0x2C }
  - { offsetInCU: 0x3A1B2, offset: 0x3A1B2, size: 0x8, addend: 0x0, symName: __ZNSt3__120__optional_move_baseINS_12basic_stringIcNS_11char_traitsIcEENS_9allocatorIcEEEELb0EED2Ev, symObjAddr: 0x5FB88, symBinAddr: 0x100062EFC, symSize: 0x2C }
  - { offsetInCU: 0x3A1DF, offset: 0x3A1DF, size: 0x8, addend: 0x0, symName: __ZNSt3__120__optional_copy_baseINS_12basic_stringIcNS_11char_traitsIcEENS_9allocatorIcEEEELb0EED2Ev, symObjAddr: 0x5FBB4, symBinAddr: 0x100062F28, symSize: 0x2C }
  - { offsetInCU: 0x3A20C, offset: 0x3A20C, size: 0x8, addend: 0x0, symName: __ZNSt3__123__optional_storage_baseINS_12basic_stringIcNS_11char_traitsIcEENS_9allocatorIcEEEELb0EED2Ev, symObjAddr: 0x5FBE0, symBinAddr: 0x100062F54, symSize: 0x2C }
  - { offsetInCU: 0x3A239, offset: 0x3A239, size: 0x8, addend: 0x0, symName: __ZNSt3__124__optional_destruct_baseINS_12basic_stringIcNS_11char_traitsIcEENS_9allocatorIcEEEELb0EED2B8ue170006Ev, symObjAddr: 0x5FC0C, symBinAddr: 0x100062F80, symSize: 0xA8 }
  - { offsetInCU: 0x3A263, offset: 0x3A263, size: 0x8, addend: 0x0, symName: __ZN9SplayTreeIcPN14FlashRadixTreeINSt3__112basic_stringIcNS1_11char_traitsIcEENS1_9allocatorIcEEEEiL9MatchMode1EE18FlashRadixTreeNodeEED2Ev, symObjAddr: 0x5FCB4, symBinAddr: 0x100063028, symSize: 0x2C }
  - { offsetInCU: 0x3A28D, offset: 0x3A28D, size: 0x8, addend: 0x0, symName: __ZN9SplayTreeIcPN14FlashRadixTreeINSt3__112basic_stringIcNS1_11char_traitsIcEENS1_9allocatorIcEEEEiL9MatchMode1EE18FlashRadixTreeNodeEE5clearEv, symObjAddr: 0x5FCE0, symBinAddr: 0x100063054, symSize: 0x36C }
  - { offsetInCU: 0x3A2B4, offset: 0x3A2B4, size: 0x8, addend: 0x0, symName: __ZN14FlashRadixTreeINSt3__112basic_stringIcNS0_11char_traitsIcEENS0_9allocatorIcEEEEiL9MatchMode1EE18FlashRadixTreeNode5clearEv, symObjAddr: 0x6004C, symBinAddr: 0x1000633C0, symSize: 0x594 }
  - { offsetInCU: 0x3A355, offset: 0x3A355, size: 0x8, addend: 0x0, symName: __ZN14FlashRadixTreeINSt3__117basic_string_viewIcNS0_11char_traitsIcEEEEiL9MatchMode1EEC2Ev, symObjAddr: 0x605E0, symBinAddr: 0x100063954, symSize: 0xC0 }
  - { offsetInCU: 0x3A37F, offset: 0x3A37F, size: 0x8, addend: 0x0, symName: __ZN14FlashRadixTreeINSt3__117basic_string_viewIcNS0_11char_traitsIcEEEEiL9MatchMode1EE18FlashRadixTreeNodeC1Ev, symObjAddr: 0x606A0, symBinAddr: 0x100063A14, symSize: 0x2C }
  - { offsetInCU: 0x3A3A9, offset: 0x3A3A9, size: 0x8, addend: 0x0, symName: __ZN14FlashRadixTreeINSt3__117basic_string_viewIcNS0_11char_traitsIcEEEEiL9MatchMode1EE23XFlashRadixTreeIteratorILNS6_17IteratorDirectionE0EEC1EPNS6_18FlashRadixTreeNodeEPKS6_, symObjAddr: 0x606CC, symBinAddr: 0x100063A40, symSize: 0x3C }
  - { offsetInCU: 0x3A3EF, offset: 0x3A3EF, size: 0x8, addend: 0x0, symName: __ZN14FlashRadixTreeINSt3__117basic_string_viewIcNS0_11char_traitsIcEEEEiL9MatchMode1EE23XFlashRadixTreeIteratorILNS6_17IteratorDirectionE1EEC1EPNS6_18FlashRadixTreeNodeEPKS6_, symObjAddr: 0x60708, symBinAddr: 0x100063A7C, symSize: 0x3C }
  - { offsetInCU: 0x3A435, offset: 0x3A435, size: 0x8, addend: 0x0, symName: __ZN14FlashRadixTreeINSt3__117basic_string_viewIcNS0_11char_traitsIcEEEEiL9MatchMode1EE18FlashRadixTreeNodeC2Ev, symObjAddr: 0x60744, symBinAddr: 0x100063AB8, symSize: 0x214 }
  - { offsetInCU: 0x3A45F, offset: 0x3A45F, size: 0x8, addend: 0x0, symName: __ZN9SplayTreeIcPN14FlashRadixTreeINSt3__117basic_string_viewIcNS1_11char_traitsIcEEEEiL9MatchMode1EE18FlashRadixTreeNodeEEC1Ev, symObjAddr: 0x60958, symBinAddr: 0x100063CCC, symSize: 0x2C }
  - { offsetInCU: 0x3A489, offset: 0x3A489, size: 0x8, addend: 0x0, symName: __ZN9SplayTreeIcPN14FlashRadixTreeINSt3__117basic_string_viewIcNS1_11char_traitsIcEEEEiL9MatchMode1EE18FlashRadixTreeNodeEE9XiteratorILNSA_17IteratorDirectionE0EEC1Ev, symObjAddr: 0x60984, symBinAddr: 0x100063CF8, symSize: 0x2C }
  - { offsetInCU: 0x3A4B3, offset: 0x3A4B3, size: 0x8, addend: 0x0, symName: __ZNSt3__18optionalINS_17basic_string_viewIcNS_11char_traitsIcEEEEEC1B8ue170006Ev, symObjAddr: 0x609B0, symBinAddr: 0x100063D24, symSize: 0x2C }
  - { offsetInCU: 0x3A4DD, offset: 0x3A4DD, size: 0x8, addend: 0x0, symName: __ZN9SplayTreeIcPN14FlashRadixTreeINSt3__117basic_string_viewIcNS1_11char_traitsIcEEEEiL9MatchMode1EE18FlashRadixTreeNodeEEC2Ev, symObjAddr: 0x609DC, symBinAddr: 0x100063D50, symSize: 0xC8 }
  - { offsetInCU: 0x3A507, offset: 0x3A507, size: 0x8, addend: 0x0, symName: __ZN9SplayTreeIcPN14FlashRadixTreeINSt3__117basic_string_viewIcNS1_11char_traitsIcEEEEiL9MatchMode1EE18FlashRadixTreeNodeEE9XiteratorILNSA_17IteratorDirectionE0EEC1EPNSA_5splayEPKSA_, symObjAddr: 0x60AA4, symBinAddr: 0x100063E18, symSize: 0x3C }
  - { offsetInCU: 0x3A54D, offset: 0x3A54D, size: 0x8, addend: 0x0, symName: __ZN9SplayTreeIcPN14FlashRadixTreeINSt3__117basic_string_viewIcNS1_11char_traitsIcEEEEiL9MatchMode1EE18FlashRadixTreeNodeEE9XiteratorILNSA_17IteratorDirectionE1EEC1EPNSA_5splayEPKSA_, symObjAddr: 0x60AE0, symBinAddr: 0x100063E54, symSize: 0x3C }
  - { offsetInCU: 0x3A593, offset: 0x3A593, size: 0x8, addend: 0x0, symName: __ZN9SplayTreeIcPN14FlashRadixTreeINSt3__117basic_string_viewIcNS1_11char_traitsIcEEEEiL9MatchMode1EE18FlashRadixTreeNodeEE9XiteratorILNSA_17IteratorDirectionE0EEC2EPNSA_5splayEPKSA_, symObjAddr: 0x60B1C, symBinAddr: 0x100063E90, symSize: 0x1D0 }
  - { offsetInCU: 0x3A5D9, offset: 0x3A5D9, size: 0x8, addend: 0x0, symName: __ZN9SplayTreeIcPN14FlashRadixTreeINSt3__117basic_string_viewIcNS1_11char_traitsIcEEEEiL9MatchMode1EE18FlashRadixTreeNodeEE9XiteratorILNSA_17IteratorDirectionE1EEC2EPNSA_5splayEPKSA_, symObjAddr: 0x60CEC, symBinAddr: 0x100064060, symSize: 0x1D4 }
  - { offsetInCU: 0x3A61F, offset: 0x3A61F, size: 0x8, addend: 0x0, symName: __ZN9SplayTreeIcPN14FlashRadixTreeINSt3__117basic_string_viewIcNS1_11char_traitsIcEEEEiL9MatchMode1EE18FlashRadixTreeNodeEE9XiteratorILNSA_17IteratorDirectionE0EEC2Ev, symObjAddr: 0x60EC0, symBinAddr: 0x100064234, symSize: 0x15C }
  - { offsetInCU: 0x3A649, offset: 0x3A649, size: 0x8, addend: 0x0, symName: __ZNSt3__18optionalINS_17basic_string_viewIcNS_11char_traitsIcEEEEEC2B8ue170006Ev, symObjAddr: 0x6101C, symBinAddr: 0x100064390, symSize: 0x2C }
  - { offsetInCU: 0x3A678, offset: 0x3A678, size: 0x8, addend: 0x0, symName: __ZNSt3__127__optional_move_assign_baseINS_17basic_string_viewIcNS_11char_traitsIcEEEELb1EEC2Ev, symObjAddr: 0x61048, symBinAddr: 0x1000643BC, symSize: 0x2C }
  - { offsetInCU: 0x3A6AA, offset: 0x3A6AA, size: 0x8, addend: 0x0, symName: __ZNSt3__127__optional_copy_assign_baseINS_17basic_string_viewIcNS_11char_traitsIcEEEELb1EEC2Ev, symObjAddr: 0x61074, symBinAddr: 0x1000643E8, symSize: 0x2C }
  - { offsetInCU: 0x3A6DC, offset: 0x3A6DC, size: 0x8, addend: 0x0, symName: __ZNSt3__120__optional_move_baseINS_17basic_string_viewIcNS_11char_traitsIcEEEELb1EEC2Ev, symObjAddr: 0x610A0, symBinAddr: 0x100064414, symSize: 0x2C }
  - { offsetInCU: 0x3A70E, offset: 0x3A70E, size: 0x8, addend: 0x0, symName: __ZNSt3__120__optional_copy_baseINS_17basic_string_viewIcNS_11char_traitsIcEEEELb1EEC2Ev, symObjAddr: 0x610CC, symBinAddr: 0x100064440, symSize: 0x2C }
  - { offsetInCU: 0x3A73B, offset: 0x3A73B, size: 0x8, addend: 0x0, symName: __ZNSt3__123__optional_storage_baseINS_17basic_string_viewIcNS_11char_traitsIcEEEELb0EEC2Ev, symObjAddr: 0x610F8, symBinAddr: 0x10006446C, symSize: 0x2C }
  - { offsetInCU: 0x3A768, offset: 0x3A768, size: 0x8, addend: 0x0, symName: __ZNSt3__124__optional_destruct_baseINS_17basic_string_viewIcNS_11char_traitsIcEEEELb1EEC2B8ue170006Ev, symObjAddr: 0x61124, symBinAddr: 0x100064498, symSize: 0xE4 }
  - { offsetInCU: 0x3A792, offset: 0x3A792, size: 0x8, addend: 0x0, symName: __ZN14FlashRadixTreeINSt3__117basic_string_viewIcNS0_11char_traitsIcEEEEiL9MatchMode1EE23XFlashRadixTreeIteratorILNS6_17IteratorDirectionE0EEC2EPNS6_18FlashRadixTreeNodeEPKS6_, symObjAddr: 0x61208, symBinAddr: 0x10006457C, symSize: 0x1D0 }
  - { offsetInCU: 0x3A7D8, offset: 0x3A7D8, size: 0x8, addend: 0x0, symName: __ZN14FlashRadixTreeINSt3__117basic_string_viewIcNS0_11char_traitsIcEEEEiL9MatchMode1EE23XFlashRadixTreeIteratorILNS6_17IteratorDirectionE1EEC2EPNS6_18FlashRadixTreeNodeEPKS6_, symObjAddr: 0x613D8, symBinAddr: 0x10006474C, symSize: 0x1D4 }
  - { offsetInCU: 0x3A81E, offset: 0x3A81E, size: 0x8, addend: 0x0, symName: __ZN14FlashRadixTreeINSt3__117basic_string_viewIcNS0_11char_traitsIcEEEEiL9MatchMode1EED2Ev, symObjAddr: 0x615AC, symBinAddr: 0x100064920, symSize: 0x2C }
  - { offsetInCU: 0x3A848, offset: 0x3A848, size: 0x8, addend: 0x0, symName: __ZN14FlashRadixTreeINSt3__117basic_string_viewIcNS0_11char_traitsIcEEEEiL9MatchMode1EE5clearEv, symObjAddr: 0x615D8, symBinAddr: 0x10006494C, symSize: 0x100 }
  - { offsetInCU: 0x3A86E, offset: 0x3A86E, size: 0x8, addend: 0x0, symName: __ZN14FlashRadixTreeINSt3__117basic_string_viewIcNS0_11char_traitsIcEEEEiL9MatchMode1EE18FlashRadixTreeNode5clearEv, symObjAddr: 0x616D8, symBinAddr: 0x100064A4C, symSize: 0x578 }
  - { offsetInCU: 0x3A90F, offset: 0x3A90F, size: 0x8, addend: 0x0, symName: __ZNK9SplayTreeIcPN14FlashRadixTreeINSt3__117basic_string_viewIcNS1_11char_traitsIcEEEEiL9MatchMode1EE18FlashRadixTreeNodeEE5beginEv, symObjAddr: 0x61C50, symBinAddr: 0x100064FC4, symSize: 0x154 }
  - { offsetInCU: 0x3A935, offset: 0x3A935, size: 0x8, addend: 0x0, symName: __ZNK9SplayTreeIcPN14FlashRadixTreeINSt3__117basic_string_viewIcNS1_11char_traitsIcEEEEiL9MatchMode1EE18FlashRadixTreeNodeEE3endEv, symObjAddr: 0x61DA4, symBinAddr: 0x100065118, symSize: 0x18 }
  - { offsetInCU: 0x3A95B, offset: 0x3A95B, size: 0x8, addend: 0x0, symName: __ZN9SplayTreeIcPN14FlashRadixTreeINSt3__117basic_string_viewIcNS1_11char_traitsIcEEEEiL9MatchMode1EE18FlashRadixTreeNodeEE9XiteratorILNSA_17IteratorDirectionE0EEC1ERKSD_, symObjAddr: 0x61DBC, symBinAddr: 0x100065130, symSize: 0x34 }
  - { offsetInCU: 0x3A993, offset: 0x3A993, size: 0x8, addend: 0x0, symName: __ZNK9SplayTreeIcPN14FlashRadixTreeINSt3__117basic_string_viewIcNS1_11char_traitsIcEEEEiL9MatchMode1EE18FlashRadixTreeNodeEE9XiteratorILNSA_17IteratorDirectionE0EEneERKSD_, symObjAddr: 0x61DF0, symBinAddr: 0x100065164, symSize: 0x310 }
  - { offsetInCU: 0x3A9C7, offset: 0x3A9C7, size: 0x8, addend: 0x0, symName: __ZNK9SplayTreeIcPN14FlashRadixTreeINSt3__117basic_string_viewIcNS1_11char_traitsIcEEEEiL9MatchMode1EE18FlashRadixTreeNodeEE9XiteratorILNSA_17IteratorDirectionE0EEdeEv, symObjAddr: 0x62100, symBinAddr: 0x100065474, symSize: 0x60 }
  - { offsetInCU: 0x3A9ED, offset: 0x3A9ED, size: 0x8, addend: 0x0, symName: __ZN14FlashRadixTreeINSt3__117basic_string_viewIcNS0_11char_traitsIcEEEEiL9MatchMode1EE18FlashRadixTreeNodeD1Ev, symObjAddr: 0x62160, symBinAddr: 0x1000654D4, symSize: 0x2C }
  - { offsetInCU: 0x3AA17, offset: 0x3AA17, size: 0x8, addend: 0x0, symName: __ZN9SplayTreeIcPN14FlashRadixTreeINSt3__117basic_string_viewIcNS1_11char_traitsIcEEEEiL9MatchMode1EE18FlashRadixTreeNodeEE9XiteratorILNSA_17IteratorDirectionE0EEppEv, symObjAddr: 0x6218C, symBinAddr: 0x100065500, symSize: 0xA00 }
  - { offsetInCU: 0x3AA3E, offset: 0x3AA3E, size: 0x8, addend: 0x0, symName: __ZN9SplayTreeIcPN14FlashRadixTreeINSt3__117basic_string_viewIcNS1_11char_traitsIcEEEEiL9MatchMode1EE18FlashRadixTreeNodeEE5clearEv, symObjAddr: 0x62B8C, symBinAddr: 0x100065F00, symSize: 0x36C }
  - { offsetInCU: 0x3AA65, offset: 0x3AA65, size: 0x8, addend: 0x0, symName: __ZNK9SplayTreeIcPN14FlashRadixTreeINSt3__117basic_string_viewIcNS1_11char_traitsIcEEEEiL9MatchMode1EE18FlashRadixTreeNodeEE19_getMinimumAndSplayEPNSA_5splayE, symObjAddr: 0x62EF8, symBinAddr: 0x10006626C, symSize: 0x264 }
  - { offsetInCU: 0x3AAA9, offset: 0x3AAA9, size: 0x8, addend: 0x0, symName: __ZNK9SplayTreeIcPN14FlashRadixTreeINSt3__117basic_string_viewIcNS1_11char_traitsIcEEEEiL9MatchMode1EE18FlashRadixTreeNodeEE10_RR_RotateEPNSA_5splayE, symObjAddr: 0x6315C, symBinAddr: 0x1000664D0, symSize: 0x148 }
  - { offsetInCU: 0x3AAED, offset: 0x3AAED, size: 0x8, addend: 0x0, symName: __ZN9SplayTreeIcPN14FlashRadixTreeINSt3__117basic_string_viewIcNS1_11char_traitsIcEEEEiL9MatchMode1EE18FlashRadixTreeNodeEE9XiteratorILNSA_17IteratorDirectionE0EEC2ERKSD_, symObjAddr: 0x632A4, symBinAddr: 0x100066618, symSize: 0x270 }
  - { offsetInCU: 0x3AB25, offset: 0x3AB25, size: 0x8, addend: 0x0, symName: __ZNK9SplayTreeIcPN14FlashRadixTreeINSt3__117basic_string_viewIcNS1_11char_traitsIcEEEEiL9MatchMode1EE18FlashRadixTreeNodeEE5splayneERKSB_, symObjAddr: 0x63514, symBinAddr: 0x100066888, symSize: 0x34 }
  - { offsetInCU: 0x3AB59, offset: 0x3AB59, size: 0x8, addend: 0x0, symName: __ZNK9SplayTreeIcPN14FlashRadixTreeINSt3__117basic_string_viewIcNS1_11char_traitsIcEEEEiL9MatchMode1EE18FlashRadixTreeNodeEE5splayeqERKSB_, symObjAddr: 0x63548, symBinAddr: 0x1000668BC, symSize: 0x100 }
  - { offsetInCU: 0x3AB8D, offset: 0x3AB8D, size: 0x8, addend: 0x0, symName: __ZN14FlashRadixTreeINSt3__117basic_string_viewIcNS0_11char_traitsIcEEEEiL9MatchMode1EE18FlashRadixTreeNodeD2Ev, symObjAddr: 0x63648, symBinAddr: 0x1000669BC, symSize: 0x2C }
  - { offsetInCU: 0x3ABB7, offset: 0x3ABB7, size: 0x8, addend: 0x0, symName: __ZN9SplayTreeIcPN14FlashRadixTreeINSt3__117basic_string_viewIcNS1_11char_traitsIcEEEEiL9MatchMode1EE18FlashRadixTreeNodeEED1Ev, symObjAddr: 0x63674, symBinAddr: 0x1000669E8, symSize: 0x2C }
  - { offsetInCU: 0x3ABE1, offset: 0x3ABE1, size: 0x8, addend: 0x0, symName: __ZN9SplayTreeIcPN14FlashRadixTreeINSt3__117basic_string_viewIcNS1_11char_traitsIcEEEEiL9MatchMode1EE18FlashRadixTreeNodeEED2Ev, symObjAddr: 0x636A0, symBinAddr: 0x100066A14, symSize: 0x2C }
  - { offsetInCU: 0x3AC0B, offset: 0x3AC0B, size: 0x8, addend: 0x0, symName: __ZNK9SplayTreeIcPN14FlashRadixTreeINSt3__117basic_string_viewIcNS1_11char_traitsIcEEEEiL9MatchMode1EE18FlashRadixTreeNodeEE4findEc, symObjAddr: 0x636CC, symBinAddr: 0x100066A40, symSize: 0x250 }
  - { offsetInCU: 0x3AC40, offset: 0x3AC40, size: 0x8, addend: 0x0, symName: __ZNK9SplayTreeIcPN14FlashRadixTreeINSt3__117basic_string_viewIcNS1_11char_traitsIcEEEEiL9MatchMode1EE18FlashRadixTreeNodeEE19_rotateToNextLargerEv, symObjAddr: 0x6391C, symBinAddr: 0x100066C90, symSize: 0x434 }
  - { offsetInCU: 0x3AC66, offset: 0x3AC66, size: 0x8, addend: 0x0, symName: __ZNK9SplayTreeIcPN14FlashRadixTreeINSt3__117basic_string_viewIcNS1_11char_traitsIcEEEEiL9MatchMode1EE18FlashRadixTreeNodeEE20_rotateToNextSmallerEv, symObjAddr: 0x63D50, symBinAddr: 0x1000670C4, symSize: 0x434 }
  - { offsetInCU: 0x3AC8C, offset: 0x3AC8C, size: 0x8, addend: 0x0, symName: __ZNK9SplayTreeIcPN14FlashRadixTreeINSt3__117basic_string_viewIcNS1_11char_traitsIcEEEEiL9MatchMode1EE18FlashRadixTreeNodeEE5_findEcPNSA_5splayE, symObjAddr: 0x64184, symBinAddr: 0x1000674F8, symSize: 0x34 }
  - { offsetInCU: 0x3ACD0, offset: 0x3ACD0, size: 0x8, addend: 0x0, symName: __ZNK9SplayTreeIcPN14FlashRadixTreeINSt3__117basic_string_viewIcNS1_11char_traitsIcEEEEiL9MatchMode1EE18FlashRadixTreeNodeEE6_splayEcPNSA_5splayE, symObjAddr: 0x641B8, symBinAddr: 0x10006752C, symSize: 0xD04 }
  - { offsetInCU: 0x3AD83, offset: 0x3AD83, size: 0x8, addend: 0x0, symName: __ZN9SplayTreeIcPN14FlashRadixTreeINSt3__117basic_string_viewIcNS1_11char_traitsIcEEEEiL9MatchMode1EE18FlashRadixTreeNodeEE5splayC1Ev, symObjAddr: 0x64EBC, symBinAddr: 0x100068230, symSize: 0x2C }
  - { offsetInCU: 0x3ADAD, offset: 0x3ADAD, size: 0x8, addend: 0x0, symName: __ZNK9SplayTreeIcPN14FlashRadixTreeINSt3__117basic_string_viewIcNS1_11char_traitsIcEEEEiL9MatchMode1EE18FlashRadixTreeNodeEE10_LL_RotateEPNSA_5splayE, symObjAddr: 0x64EE8, symBinAddr: 0x10006825C, symSize: 0x148 }
  - { offsetInCU: 0x3ADF1, offset: 0x3ADF1, size: 0x8, addend: 0x0, symName: __ZN9SplayTreeIcPN14FlashRadixTreeINSt3__117basic_string_viewIcNS1_11char_traitsIcEEEEiL9MatchMode1EE18FlashRadixTreeNodeEE5splayC2Ev, symObjAddr: 0x65030, symBinAddr: 0x1000683A4, symSize: 0xA0 }
  - { offsetInCU: 0x3AE1B, offset: 0x3AE1B, size: 0x8, addend: 0x0, symName: __ZN9SplayTreeIcPN14FlashRadixTreeINSt3__117basic_string_viewIcNS1_11char_traitsIcEEEEiL9MatchMode1EE18FlashRadixTreeNodeEE5eraseEc, symObjAddr: 0x650D0, symBinAddr: 0x100068444, symSize: 0x164 }
  - { offsetInCU: 0x3AE50, offset: 0x3AE50, size: 0x8, addend: 0x0, symName: __ZN9SplayTreeIcPN14FlashRadixTreeINSt3__117basic_string_viewIcNS1_11char_traitsIcEEEEiL9MatchMode1EE18FlashRadixTreeNodeEE6_eraseEcPNSA_5splayE, symObjAddr: 0x65234, symBinAddr: 0x1000685A8, symSize: 0x30C }
  - { offsetInCU: 0x3AEA3, offset: 0x3AEA3, size: 0x8, addend: 0x0, symName: __ZNKSt3__117basic_string_viewIcNS_11char_traitsIcEEE5emptyB8ue170006Ev, symObjAddr: 0x65540, symBinAddr: 0x1000688B4, symSize: 0x70 }
  - { offsetInCU: 0x3AEC9, offset: 0x3AEC9, size: 0x8, addend: 0x0, symName: __ZNKSt3__117basic_string_viewIcNS_11char_traitsIcEEEixB8ue170006Em, symObjAddr: 0x655B0, symBinAddr: 0x100068924, symSize: 0x6C }
  - { offsetInCU: 0x3AEFE, offset: 0x3AEFE, size: 0x8, addend: 0x0, symName: __ZNK9SplayTreeIcPN14FlashRadixTreeINSt3__117basic_string_viewIcNS1_11char_traitsIcEEEEiL9MatchMode1EE18FlashRadixTreeNodeEE9XiteratorILNSA_17IteratorDirectionE0EEptEv, symObjAddr: 0x6561C, symBinAddr: 0x100068990, symSize: 0x60 }
  - { offsetInCU: 0x3AF24, offset: 0x3AF24, size: 0x8, addend: 0x0, symName: __ZNKSt3__117basic_string_viewIcNS_11char_traitsIcEEE6lengthB8ue170006Ev, symObjAddr: 0x6567C, symBinAddr: 0x1000689F0, symSize: 0x64 }
  - { offsetInCU: 0x3AF4A, offset: 0x3AF4A, size: 0x8, addend: 0x0, symName: __ZN14FlashRadixTreeINSt3__117basic_string_viewIcNS0_11char_traitsIcEEEEiL9MatchMode1EE18FlashRadixTreeNodeC1ERKS4_OKibPS7_, symObjAddr: 0x656E0, symBinAddr: 0x100068A54, symSize: 0x58 }
  - { offsetInCU: 0x3AFAC, offset: 0x3AFAC, size: 0x8, addend: 0x0, symName: __ZN9SplayTreeIcPN14FlashRadixTreeINSt3__117basic_string_viewIcNS1_11char_traitsIcEEEEiL9MatchMode1EE18FlashRadixTreeNodeEE6insertEcS9_, symObjAddr: 0x65738, symBinAddr: 0x100068AAC, symSize: 0x174 }
  - { offsetInCU: 0x3AFEE, offset: 0x3AFEE, size: 0x8, addend: 0x0, symName: __ZN14FlashRadixTreeINSt3__117basic_string_viewIcNS0_11char_traitsIcEEEEiL9MatchMode1EE18FlashRadixTreeNode13setMyIteratorERKN9SplayTreeIcPS7_E9XiteratorILNSA_17IteratorDirectionE0EEE, symObjAddr: 0x658AC, symBinAddr: 0x100068C20, symSize: 0x30 }
  - { offsetInCU: 0x3B023, offset: 0x3B023, size: 0x8, addend: 0x0, symName: __ZN14FlashRadixTreeINSt3__117basic_string_viewIcNS0_11char_traitsIcEEEEiL9MatchMode1EE18FlashRadixTreeNodeC1ERKS4_OKiPS7_, symObjAddr: 0x658DC, symBinAddr: 0x100068C50, symSize: 0x44 }
  - { offsetInCU: 0x3B077, offset: 0x3B077, size: 0x8, addend: 0x0, symName: __ZN14FlashRadixTreeINSt3__117basic_string_viewIcNS0_11char_traitsIcEEEEiL9MatchMode1EE23XFlashRadixTreeIteratorILNS6_17IteratorDirectionE0EEC1ERKS9_, symObjAddr: 0x65920, symBinAddr: 0x100068C94, symSize: 0x34 }
  - { offsetInCU: 0x3B0AF, offset: 0x3B0AF, size: 0x8, addend: 0x0, symName: __ZN14FlashRadixTreeINSt3__117basic_string_viewIcNS0_11char_traitsIcEEEEiL9MatchMode1EE18FlashRadixTreeNodeC2ERKS4_OKibPS7_, symObjAddr: 0x65954, symBinAddr: 0x100068CC8, symSize: 0x2CC }
  - { offsetInCU: 0x3B111, offset: 0x3B111, size: 0x8, addend: 0x0, symName: __ZN9SplayTreeIcPN14FlashRadixTreeINSt3__117basic_string_viewIcNS1_11char_traitsIcEEEEiL9MatchMode1EE18FlashRadixTreeNodeEE9_New_NodeEcS9_, symObjAddr: 0x65FDC, symBinAddr: 0x100069350, symSize: 0x13C }
  - { offsetInCU: 0x3B164, offset: 0x3B164, size: 0x8, addend: 0x0, symName: __ZN9SplayTreeIcPN14FlashRadixTreeINSt3__117basic_string_viewIcNS1_11char_traitsIcEEEEiL9MatchMode1EE18FlashRadixTreeNodeEE5splayC1EcS9_, symObjAddr: 0x66118, symBinAddr: 0x10006948C, symSize: 0x3C }
  - { offsetInCU: 0x3B1AA, offset: 0x3B1AA, size: 0x8, addend: 0x0, symName: __ZN9SplayTreeIcPN14FlashRadixTreeINSt3__117basic_string_viewIcNS1_11char_traitsIcEEEEiL9MatchMode1EE18FlashRadixTreeNodeEE5splayC2EcS9_, symObjAddr: 0x66154, symBinAddr: 0x1000694C8, symSize: 0x150 }
  - { offsetInCU: 0x3B1F0, offset: 0x3B1F0, size: 0x8, addend: 0x0, symName: __ZN9SplayTreeIcPN14FlashRadixTreeINSt3__117basic_string_viewIcNS1_11char_traitsIcEEEEiL9MatchMode1EE18FlashRadixTreeNodeEE9XiteratorILNSA_17IteratorDirectionE0EEaSERKSD_, symObjAddr: 0x662A4, symBinAddr: 0x100069618, symSize: 0x268 }
  - { offsetInCU: 0x3B224, offset: 0x3B224, size: 0x8, addend: 0x0, symName: __ZN14FlashRadixTreeINSt3__117basic_string_viewIcNS0_11char_traitsIcEEEEiL9MatchMode1EE18FlashRadixTreeNodeC2ERKS4_OKiPS7_, symObjAddr: 0x6650C, symBinAddr: 0x100069880, symSize: 0x2A8 }
  - { offsetInCU: 0x3B278, offset: 0x3B278, size: 0x8, addend: 0x0, symName: __ZN14FlashRadixTreeINSt3__117basic_string_viewIcNS0_11char_traitsIcEEEEiL9MatchMode1EE23XFlashRadixTreeIteratorILNS6_17IteratorDirectionE0EEC2ERKS9_, symObjAddr: 0x667B4, symBinAddr: 0x100069B28, symSize: 0x270 }
  - { offsetInCU: 0x3B2B0, offset: 0x3B2B0, size: 0x8, addend: 0x0, symName: __ZN14FlashRadixTreeINSt3__117basic_string_viewIcNS0_11char_traitsIcEEEEiL9MatchMode1EE11_mark_eraseERKS4_, symObjAddr: 0x66A24, symBinAddr: 0x100069D98, symSize: 0x2E4 }
  - { offsetInCU: 0x3B2FA, offset: 0x3B2FA, size: 0x8, addend: 0x0, symName: __ZNK14FlashRadixTreeINSt3__117basic_string_viewIcNS0_11char_traitsIcEEEEiL9MatchMode1EE4findERKS4_, symObjAddr: 0x66D08, symBinAddr: 0x10006A07C, symSize: 0x784 }
  - { offsetInCU: 0x3B38D, offset: 0x3B38D, size: 0x8, addend: 0x0, symName: __ZNK14FlashRadixTreeINSt3__117basic_string_viewIcNS0_11char_traitsIcEEEEiL9MatchMode1EE23XFlashRadixTreeIteratorILNS6_17IteratorDirectionE0EEeqERKS9_, symObjAddr: 0x6748C, symBinAddr: 0x10006A800, symSize: 0x300 }
  - { offsetInCU: 0x3B3C1, offset: 0x3B3C1, size: 0x8, addend: 0x0, symName: __ZNK14FlashRadixTreeINSt3__117basic_string_viewIcNS0_11char_traitsIcEEEEiL9MatchMode1EE3endEv, symObjAddr: 0x6778C, symBinAddr: 0x10006AB00, symSize: 0x18 }
  - { offsetInCU: 0x3B3E7, offset: 0x3B3E7, size: 0x8, addend: 0x0, symName: __ZN14FlashRadixTreeINSt3__117basic_string_viewIcNS0_11char_traitsIcEEEEiL9MatchMode1EE23XFlashRadixTreeIteratorILNS6_17IteratorDirectionE0EEptEv, symObjAddr: 0x677A4, symBinAddr: 0x10006AB18, symSize: 0x60 }
  - { offsetInCU: 0x3B40D, offset: 0x3B40D, size: 0x8, addend: 0x0, symName: __ZNK14FlashRadixTreeINSt3__117basic_string_viewIcNS0_11char_traitsIcEEEEiL9MatchMode1EE18FlashRadixTreeNodeeqERKS7_, symObjAddr: 0x67804, symBinAddr: 0x10006AB78, symSize: 0x574 }
  - { offsetInCU: 0x3B444, offset: 0x3B444, size: 0x8, addend: 0x0, symName: __ZNK24FlashRadixTreeSerializerINSt3__117basic_string_viewIcNS0_11char_traitsIcEEEEiL9MatchMode1EE13serializeNodeEPKN14FlashRadixTreeIS4_iLS5_1EE18FlashRadixTreeNodeE, symObjAddr: 0x67D78, symBinAddr: 0x10006B0EC, symSize: 0x9F4 }
  - { offsetInCU: 0x3B502, offset: 0x3B502, size: 0x8, addend: 0x0, symName: __ZNK14FlashRadixTreeINSt3__117basic_string_viewIcNS0_11char_traitsIcEEEEiL9MatchMode1EE7getRootEv, symObjAddr: 0x6876C, symBinAddr: 0x10006BAE0, symSize: 0x60 }
  - { offsetInCU: 0x3B528, offset: 0x3B528, size: 0x8, addend: 0x0, symName: __ZNK9SplayTreeIcPN14FlashRadixTreeINSt3__117basic_string_viewIcNS1_11char_traitsIcEEEEiL9MatchMode1EE18FlashRadixTreeNodeEE5emptyEv, symObjAddr: 0x689FC, symBinAddr: 0x10006BD70, symSize: 0x6C }
  - { offsetInCU: 0x3B54E, offset: 0x3B54E, size: 0x8, addend: 0x0, symName: __ZN14FlashRadixTreeINSt3__112basic_stringIcNS0_11char_traitsIcEENS0_9allocatorIcEEEEiL9MatchMode0EEC2Ev, symObjAddr: 0x68A68, symBinAddr: 0x10006BDDC, symSize: 0xC0 }
  - { offsetInCU: 0x3B578, offset: 0x3B578, size: 0x8, addend: 0x0, symName: __ZN14FlashRadixTreeINSt3__112basic_stringIcNS0_11char_traitsIcEENS0_9allocatorIcEEEEiL9MatchMode0EE18FlashRadixTreeNodeC1Ev, symObjAddr: 0x68B28, symBinAddr: 0x10006BE9C, symSize: 0x2C }
  - { offsetInCU: 0x3B5A2, offset: 0x3B5A2, size: 0x8, addend: 0x0, symName: __ZN14FlashRadixTreeINSt3__112basic_stringIcNS0_11char_traitsIcEENS0_9allocatorIcEEEEiL9MatchMode0EE23XFlashRadixTreeIteratorILNS8_17IteratorDirectionE0EEC1EPNS8_18FlashRadixTreeNodeEPKS8_, symObjAddr: 0x68B54, symBinAddr: 0x10006BEC8, symSize: 0x3C }
  - { offsetInCU: 0x3B5E8, offset: 0x3B5E8, size: 0x8, addend: 0x0, symName: __ZN14FlashRadixTreeINSt3__112basic_stringIcNS0_11char_traitsIcEENS0_9allocatorIcEEEEiL9MatchMode0EE23XFlashRadixTreeIteratorILNS8_17IteratorDirectionE1EEC1EPNS8_18FlashRadixTreeNodeEPKS8_, symObjAddr: 0x68B90, symBinAddr: 0x10006BF04, symSize: 0x3C }
  - { offsetInCU: 0x3B62E, offset: 0x3B62E, size: 0x8, addend: 0x0, symName: __ZN14FlashRadixTreeINSt3__112basic_stringIcNS0_11char_traitsIcEENS0_9allocatorIcEEEEiL9MatchMode0EE18FlashRadixTreeNodeC2Ev, symObjAddr: 0x68BCC, symBinAddr: 0x10006BF40, symSize: 0x214 }
  - { offsetInCU: 0x3B658, offset: 0x3B658, size: 0x8, addend: 0x0, symName: __ZN9SplayTreeIcPN14FlashRadixTreeINSt3__112basic_stringIcNS1_11char_traitsIcEENS1_9allocatorIcEEEEiL9MatchMode0EE18FlashRadixTreeNodeEEC1Ev, symObjAddr: 0x68DE0, symBinAddr: 0x10006C154, symSize: 0x2C }
  - { offsetInCU: 0x3B682, offset: 0x3B682, size: 0x8, addend: 0x0, symName: __ZN9SplayTreeIcPN14FlashRadixTreeINSt3__112basic_stringIcNS1_11char_traitsIcEENS1_9allocatorIcEEEEiL9MatchMode0EE18FlashRadixTreeNodeEE9XiteratorILNSC_17IteratorDirectionE0EEC1Ev, symObjAddr: 0x68E0C, symBinAddr: 0x10006C180, symSize: 0x2C }
  - { offsetInCU: 0x3B6AC, offset: 0x3B6AC, size: 0x8, addend: 0x0, symName: __ZN9SplayTreeIcPN14FlashRadixTreeINSt3__112basic_stringIcNS1_11char_traitsIcEENS1_9allocatorIcEEEEiL9MatchMode0EE18FlashRadixTreeNodeEEC2Ev, symObjAddr: 0x68E38, symBinAddr: 0x10006C1AC, symSize: 0xC8 }
  - { offsetInCU: 0x3B6D6, offset: 0x3B6D6, size: 0x8, addend: 0x0, symName: __ZN9SplayTreeIcPN14FlashRadixTreeINSt3__112basic_stringIcNS1_11char_traitsIcEENS1_9allocatorIcEEEEiL9MatchMode0EE18FlashRadixTreeNodeEE9XiteratorILNSC_17IteratorDirectionE0EEC1EPNSC_5splayEPKSC_, symObjAddr: 0x68F00, symBinAddr: 0x10006C274, symSize: 0x3C }
  - { offsetInCU: 0x3B71C, offset: 0x3B71C, size: 0x8, addend: 0x0, symName: __ZN9SplayTreeIcPN14FlashRadixTreeINSt3__112basic_stringIcNS1_11char_traitsIcEENS1_9allocatorIcEEEEiL9MatchMode0EE18FlashRadixTreeNodeEE9XiteratorILNSC_17IteratorDirectionE1EEC1EPNSC_5splayEPKSC_, symObjAddr: 0x68F3C, symBinAddr: 0x10006C2B0, symSize: 0x3C }
  - { offsetInCU: 0x3B762, offset: 0x3B762, size: 0x8, addend: 0x0, symName: __ZN9SplayTreeIcPN14FlashRadixTreeINSt3__112basic_stringIcNS1_11char_traitsIcEENS1_9allocatorIcEEEEiL9MatchMode0EE18FlashRadixTreeNodeEE9XiteratorILNSC_17IteratorDirectionE0EEC2EPNSC_5splayEPKSC_, symObjAddr: 0x68F78, symBinAddr: 0x10006C2EC, symSize: 0x1D0 }
  - { offsetInCU: 0x3B7A8, offset: 0x3B7A8, size: 0x8, addend: 0x0, symName: __ZN9SplayTreeIcPN14FlashRadixTreeINSt3__112basic_stringIcNS1_11char_traitsIcEENS1_9allocatorIcEEEEiL9MatchMode0EE18FlashRadixTreeNodeEE9XiteratorILNSC_17IteratorDirectionE1EEC2EPNSC_5splayEPKSC_, symObjAddr: 0x69148, symBinAddr: 0x10006C4BC, symSize: 0x1D4 }
  - { offsetInCU: 0x3B7EE, offset: 0x3B7EE, size: 0x8, addend: 0x0, symName: __ZN9SplayTreeIcPN14FlashRadixTreeINSt3__112basic_stringIcNS1_11char_traitsIcEENS1_9allocatorIcEEEEiL9MatchMode0EE18FlashRadixTreeNodeEE9XiteratorILNSC_17IteratorDirectionE0EEC2Ev, symObjAddr: 0x6931C, symBinAddr: 0x10006C690, symSize: 0x15C }
  - { offsetInCU: 0x3B818, offset: 0x3B818, size: 0x8, addend: 0x0, symName: __ZN14FlashRadixTreeINSt3__112basic_stringIcNS0_11char_traitsIcEENS0_9allocatorIcEEEEiL9MatchMode0EE23XFlashRadixTreeIteratorILNS8_17IteratorDirectionE0EEC2EPNS8_18FlashRadixTreeNodeEPKS8_, symObjAddr: 0x69478, symBinAddr: 0x10006C7EC, symSize: 0x1D0 }
  - { offsetInCU: 0x3B85E, offset: 0x3B85E, size: 0x8, addend: 0x0, symName: __ZN14FlashRadixTreeINSt3__112basic_stringIcNS0_11char_traitsIcEENS0_9allocatorIcEEEEiL9MatchMode0EE23XFlashRadixTreeIteratorILNS8_17IteratorDirectionE1EEC2EPNS8_18FlashRadixTreeNodeEPKS8_, symObjAddr: 0x69648, symBinAddr: 0x10006C9BC, symSize: 0x1D4 }
  - { offsetInCU: 0x3B8A4, offset: 0x3B8A4, size: 0x8, addend: 0x0, symName: __ZN14FlashRadixTreeINSt3__112basic_stringIcNS0_11char_traitsIcEENS0_9allocatorIcEEEEiL9MatchMode0EED2Ev, symObjAddr: 0x6981C, symBinAddr: 0x10006CB90, symSize: 0x2C }
  - { offsetInCU: 0x3B8CE, offset: 0x3B8CE, size: 0x8, addend: 0x0, symName: __ZN14FlashRadixTreeINSt3__112basic_stringIcNS0_11char_traitsIcEENS0_9allocatorIcEEEEiL9MatchMode0EE5clearEv, symObjAddr: 0x69848, symBinAddr: 0x10006CBBC, symSize: 0x100 }
  - { offsetInCU: 0x3B8F4, offset: 0x3B8F4, size: 0x8, addend: 0x0, symName: __ZN14FlashRadixTreeINSt3__112basic_stringIcNS0_11char_traitsIcEENS0_9allocatorIcEEEEiL9MatchMode0EE18FlashRadixTreeNode5clearEv, symObjAddr: 0x69948, symBinAddr: 0x10006CCBC, symSize: 0x594 }
  - { offsetInCU: 0x3B995, offset: 0x3B995, size: 0x8, addend: 0x0, symName: __ZNK9SplayTreeIcPN14FlashRadixTreeINSt3__112basic_stringIcNS1_11char_traitsIcEENS1_9allocatorIcEEEEiL9MatchMode0EE18FlashRadixTreeNodeEE5beginEv, symObjAddr: 0x69EDC, symBinAddr: 0x10006D250, symSize: 0x154 }
  - { offsetInCU: 0x3B9BB, offset: 0x3B9BB, size: 0x8, addend: 0x0, symName: __ZNK9SplayTreeIcPN14FlashRadixTreeINSt3__112basic_stringIcNS1_11char_traitsIcEENS1_9allocatorIcEEEEiL9MatchMode0EE18FlashRadixTreeNodeEE3endEv, symObjAddr: 0x6A030, symBinAddr: 0x10006D3A4, symSize: 0x18 }
  - { offsetInCU: 0x3B9E1, offset: 0x3B9E1, size: 0x8, addend: 0x0, symName: __ZN9SplayTreeIcPN14FlashRadixTreeINSt3__112basic_stringIcNS1_11char_traitsIcEENS1_9allocatorIcEEEEiL9MatchMode0EE18FlashRadixTreeNodeEE9XiteratorILNSC_17IteratorDirectionE0EEC1ERKSF_, symObjAddr: 0x6A048, symBinAddr: 0x10006D3BC, symSize: 0x34 }
  - { offsetInCU: 0x3BA19, offset: 0x3BA19, size: 0x8, addend: 0x0, symName: __ZNK9SplayTreeIcPN14FlashRadixTreeINSt3__112basic_stringIcNS1_11char_traitsIcEENS1_9allocatorIcEEEEiL9MatchMode0EE18FlashRadixTreeNodeEE9XiteratorILNSC_17IteratorDirectionE0EEneERKSF_, symObjAddr: 0x6A07C, symBinAddr: 0x10006D3F0, symSize: 0x310 }
  - { offsetInCU: 0x3BA4D, offset: 0x3BA4D, size: 0x8, addend: 0x0, symName: __ZNK9SplayTreeIcPN14FlashRadixTreeINSt3__112basic_stringIcNS1_11char_traitsIcEENS1_9allocatorIcEEEEiL9MatchMode0EE18FlashRadixTreeNodeEE9XiteratorILNSC_17IteratorDirectionE0EEdeEv, symObjAddr: 0x6A38C, symBinAddr: 0x10006D700, symSize: 0x60 }
  - { offsetInCU: 0x3BA73, offset: 0x3BA73, size: 0x8, addend: 0x0, symName: __ZN14FlashRadixTreeINSt3__112basic_stringIcNS0_11char_traitsIcEENS0_9allocatorIcEEEEiL9MatchMode0EE18FlashRadixTreeNodeD1Ev, symObjAddr: 0x6A3EC, symBinAddr: 0x10006D760, symSize: 0x2C }
  - { offsetInCU: 0x3BA9D, offset: 0x3BA9D, size: 0x8, addend: 0x0, symName: __ZN9SplayTreeIcPN14FlashRadixTreeINSt3__112basic_stringIcNS1_11char_traitsIcEENS1_9allocatorIcEEEEiL9MatchMode0EE18FlashRadixTreeNodeEE9XiteratorILNSC_17IteratorDirectionE0EEppEv, symObjAddr: 0x6A418, symBinAddr: 0x10006D78C, symSize: 0xA00 }
  - { offsetInCU: 0x3BAC4, offset: 0x3BAC4, size: 0x8, addend: 0x0, symName: __ZN9SplayTreeIcPN14FlashRadixTreeINSt3__112basic_stringIcNS1_11char_traitsIcEENS1_9allocatorIcEEEEiL9MatchMode0EE18FlashRadixTreeNodeEE5clearEv, symObjAddr: 0x6AE18, symBinAddr: 0x10006E18C, symSize: 0x36C }
  - { offsetInCU: 0x3BAEB, offset: 0x3BAEB, size: 0x8, addend: 0x0, symName: __ZNK9SplayTreeIcPN14FlashRadixTreeINSt3__112basic_stringIcNS1_11char_traitsIcEENS1_9allocatorIcEEEEiL9MatchMode0EE18FlashRadixTreeNodeEE19_getMinimumAndSplayEPNSC_5splayE, symObjAddr: 0x6B184, symBinAddr: 0x10006E4F8, symSize: 0x264 }
  - { offsetInCU: 0x3BB2F, offset: 0x3BB2F, size: 0x8, addend: 0x0, symName: __ZNK9SplayTreeIcPN14FlashRadixTreeINSt3__112basic_stringIcNS1_11char_traitsIcEENS1_9allocatorIcEEEEiL9MatchMode0EE18FlashRadixTreeNodeEE10_RR_RotateEPNSC_5splayE, symObjAddr: 0x6B3E8, symBinAddr: 0x10006E75C, symSize: 0x148 }
  - { offsetInCU: 0x3BB73, offset: 0x3BB73, size: 0x8, addend: 0x0, symName: __ZN9SplayTreeIcPN14FlashRadixTreeINSt3__112basic_stringIcNS1_11char_traitsIcEENS1_9allocatorIcEEEEiL9MatchMode0EE18FlashRadixTreeNodeEE9XiteratorILNSC_17IteratorDirectionE0EEC2ERKSF_, symObjAddr: 0x6B530, symBinAddr: 0x10006E8A4, symSize: 0x270 }
  - { offsetInCU: 0x3BBAB, offset: 0x3BBAB, size: 0x8, addend: 0x0, symName: __ZNK9SplayTreeIcPN14FlashRadixTreeINSt3__112basic_stringIcNS1_11char_traitsIcEENS1_9allocatorIcEEEEiL9MatchMode0EE18FlashRadixTreeNodeEE5splayneERKSD_, symObjAddr: 0x6B7A0, symBinAddr: 0x10006EB14, symSize: 0x34 }
  - { offsetInCU: 0x3BBDF, offset: 0x3BBDF, size: 0x8, addend: 0x0, symName: __ZNK9SplayTreeIcPN14FlashRadixTreeINSt3__112basic_stringIcNS1_11char_traitsIcEENS1_9allocatorIcEEEEiL9MatchMode0EE18FlashRadixTreeNodeEE5splayeqERKSD_, symObjAddr: 0x6B7D4, symBinAddr: 0x10006EB48, symSize: 0x100 }
  - { offsetInCU: 0x3BC13, offset: 0x3BC13, size: 0x8, addend: 0x0, symName: __ZN14FlashRadixTreeINSt3__112basic_stringIcNS0_11char_traitsIcEENS0_9allocatorIcEEEEiL9MatchMode0EE18FlashRadixTreeNodeD2Ev, symObjAddr: 0x6B8D4, symBinAddr: 0x10006EC48, symSize: 0x44 }
  - { offsetInCU: 0x3BC3D, offset: 0x3BC3D, size: 0x8, addend: 0x0, symName: __ZN9SplayTreeIcPN14FlashRadixTreeINSt3__112basic_stringIcNS1_11char_traitsIcEENS1_9allocatorIcEEEEiL9MatchMode0EE18FlashRadixTreeNodeEED1Ev, symObjAddr: 0x6B918, symBinAddr: 0x10006EC8C, symSize: 0x2C }
  - { offsetInCU: 0x3BC67, offset: 0x3BC67, size: 0x8, addend: 0x0, symName: __ZN9SplayTreeIcPN14FlashRadixTreeINSt3__112basic_stringIcNS1_11char_traitsIcEENS1_9allocatorIcEEEEiL9MatchMode0EE18FlashRadixTreeNodeEED2Ev, symObjAddr: 0x6B944, symBinAddr: 0x10006ECB8, symSize: 0x2C }
  - { offsetInCU: 0x3BC91, offset: 0x3BC91, size: 0x8, addend: 0x0, symName: __ZNK9SplayTreeIcPN14FlashRadixTreeINSt3__112basic_stringIcNS1_11char_traitsIcEENS1_9allocatorIcEEEEiL9MatchMode0EE18FlashRadixTreeNodeEE4findEc, symObjAddr: 0x6B970, symBinAddr: 0x10006ECE4, symSize: 0x250 }
  - { offsetInCU: 0x3BCC6, offset: 0x3BCC6, size: 0x8, addend: 0x0, symName: __ZNK9SplayTreeIcPN14FlashRadixTreeINSt3__112basic_stringIcNS1_11char_traitsIcEENS1_9allocatorIcEEEEiL9MatchMode0EE18FlashRadixTreeNodeEE19_rotateToNextLargerEv, symObjAddr: 0x6BBC0, symBinAddr: 0x10006EF34, symSize: 0x434 }
  - { offsetInCU: 0x3BCEC, offset: 0x3BCEC, size: 0x8, addend: 0x0, symName: __ZNK9SplayTreeIcPN14FlashRadixTreeINSt3__112basic_stringIcNS1_11char_traitsIcEENS1_9allocatorIcEEEEiL9MatchMode0EE18FlashRadixTreeNodeEE20_rotateToNextSmallerEv, symObjAddr: 0x6BFF4, symBinAddr: 0x10006F368, symSize: 0x434 }
  - { offsetInCU: 0x3BD12, offset: 0x3BD12, size: 0x8, addend: 0x0, symName: __ZNK9SplayTreeIcPN14FlashRadixTreeINSt3__112basic_stringIcNS1_11char_traitsIcEENS1_9allocatorIcEEEEiL9MatchMode0EE18FlashRadixTreeNodeEE5_findEcPNSC_5splayE, symObjAddr: 0x6C428, symBinAddr: 0x10006F79C, symSize: 0x34 }
  - { offsetInCU: 0x3BD56, offset: 0x3BD56, size: 0x8, addend: 0x0, symName: __ZNK9SplayTreeIcPN14FlashRadixTreeINSt3__112basic_stringIcNS1_11char_traitsIcEENS1_9allocatorIcEEEEiL9MatchMode0EE18FlashRadixTreeNodeEE6_splayEcPNSC_5splayE, symObjAddr: 0x6C45C, symBinAddr: 0x10006F7D0, symSize: 0xD04 }
  - { offsetInCU: 0x3BE09, offset: 0x3BE09, size: 0x8, addend: 0x0, symName: __ZN9SplayTreeIcPN14FlashRadixTreeINSt3__112basic_stringIcNS1_11char_traitsIcEENS1_9allocatorIcEEEEiL9MatchMode0EE18FlashRadixTreeNodeEE5splayC1Ev, symObjAddr: 0x6D160, symBinAddr: 0x1000704D4, symSize: 0x2C }
  - { offsetInCU: 0x3BE33, offset: 0x3BE33, size: 0x8, addend: 0x0, symName: __ZNK9SplayTreeIcPN14FlashRadixTreeINSt3__112basic_stringIcNS1_11char_traitsIcEENS1_9allocatorIcEEEEiL9MatchMode0EE18FlashRadixTreeNodeEE10_LL_RotateEPNSC_5splayE, symObjAddr: 0x6D18C, symBinAddr: 0x100070500, symSize: 0x148 }
  - { offsetInCU: 0x3BE77, offset: 0x3BE77, size: 0x8, addend: 0x0, symName: __ZN9SplayTreeIcPN14FlashRadixTreeINSt3__112basic_stringIcNS1_11char_traitsIcEENS1_9allocatorIcEEEEiL9MatchMode0EE18FlashRadixTreeNodeEE5splayC2Ev, symObjAddr: 0x6D2D4, symBinAddr: 0x100070648, symSize: 0xA0 }
  - { offsetInCU: 0x3BEA1, offset: 0x3BEA1, size: 0x8, addend: 0x0, symName: __ZN9SplayTreeIcPN14FlashRadixTreeINSt3__112basic_stringIcNS1_11char_traitsIcEENS1_9allocatorIcEEEEiL9MatchMode0EE18FlashRadixTreeNodeEE5eraseEc, symObjAddr: 0x6D374, symBinAddr: 0x1000706E8, symSize: 0x164 }
  - { offsetInCU: 0x3BED6, offset: 0x3BED6, size: 0x8, addend: 0x0, symName: __ZN9SplayTreeIcPN14FlashRadixTreeINSt3__112basic_stringIcNS1_11char_traitsIcEENS1_9allocatorIcEEEEiL9MatchMode0EE18FlashRadixTreeNodeEE6_eraseEcPNSC_5splayE, symObjAddr: 0x6D4D8, symBinAddr: 0x10007084C, symSize: 0x30C }
  - { offsetInCU: 0x3BF29, offset: 0x3BF29, size: 0x8, addend: 0x0, symName: __ZNK9SplayTreeIcPN14FlashRadixTreeINSt3__112basic_stringIcNS1_11char_traitsIcEENS1_9allocatorIcEEEEiL9MatchMode0EE18FlashRadixTreeNodeEE9XiteratorILNSC_17IteratorDirectionE0EEptEv, symObjAddr: 0x6D7E4, symBinAddr: 0x100070B58, symSize: 0x60 }
  - { offsetInCU: 0x3BF4F, offset: 0x3BF4F, size: 0x8, addend: 0x0, symName: __ZN14FlashRadixTreeINSt3__112basic_stringIcNS0_11char_traitsIcEENS0_9allocatorIcEEEEiL9MatchMode0EE18FlashRadixTreeNodeC1ERKS6_OKibPS9_, symObjAddr: 0x6D844, symBinAddr: 0x100070BB8, symSize: 0x58 }
  - { offsetInCU: 0x3BFB1, offset: 0x3BFB1, size: 0x8, addend: 0x0, symName: __ZN9SplayTreeIcPN14FlashRadixTreeINSt3__112basic_stringIcNS1_11char_traitsIcEENS1_9allocatorIcEEEEiL9MatchMode0EE18FlashRadixTreeNodeEE6insertEcSB_, symObjAddr: 0x6D89C, symBinAddr: 0x100070C10, symSize: 0x174 }
  - { offsetInCU: 0x3BFF3, offset: 0x3BFF3, size: 0x8, addend: 0x0, symName: __ZN14FlashRadixTreeINSt3__112basic_stringIcNS0_11char_traitsIcEENS0_9allocatorIcEEEEiL9MatchMode0EE18FlashRadixTreeNode13setMyIteratorERKN9SplayTreeIcPS9_E9XiteratorILNSC_17IteratorDirectionE0EEE, symObjAddr: 0x6DA10, symBinAddr: 0x100070D84, symSize: 0x30 }
  - { offsetInCU: 0x3C028, offset: 0x3C028, size: 0x8, addend: 0x0, symName: __ZN14FlashRadixTreeINSt3__112basic_stringIcNS0_11char_traitsIcEENS0_9allocatorIcEEEEiL9MatchMode0EE18FlashRadixTreeNodeC1ERKS6_OKiPS9_, symObjAddr: 0x6DA40, symBinAddr: 0x100070DB4, symSize: 0x44 }
  - { offsetInCU: 0x3C07C, offset: 0x3C07C, size: 0x8, addend: 0x0, symName: __ZN14FlashRadixTreeINSt3__112basic_stringIcNS0_11char_traitsIcEENS0_9allocatorIcEEEEiL9MatchMode0EE23XFlashRadixTreeIteratorILNS8_17IteratorDirectionE0EEC1ERKSB_, symObjAddr: 0x6DA84, symBinAddr: 0x100070DF8, symSize: 0x34 }
  - { offsetInCU: 0x3C0B4, offset: 0x3C0B4, size: 0x8, addend: 0x0, symName: __ZN14FlashRadixTreeINSt3__112basic_stringIcNS0_11char_traitsIcEENS0_9allocatorIcEEEEiL9MatchMode0EE18FlashRadixTreeNodeC2ERKS6_OKibPS9_, symObjAddr: 0x6DAB8, symBinAddr: 0x100070E2C, symSize: 0x2DC }
  - { offsetInCU: 0x3C116, offset: 0x3C116, size: 0x8, addend: 0x0, symName: __ZN9SplayTreeIcPN14FlashRadixTreeINSt3__112basic_stringIcNS1_11char_traitsIcEENS1_9allocatorIcEEEEiL9MatchMode0EE18FlashRadixTreeNodeEE9_New_NodeEcSB_, symObjAddr: 0x6E150, symBinAddr: 0x1000714C4, symSize: 0x13C }
  - { offsetInCU: 0x3C169, offset: 0x3C169, size: 0x8, addend: 0x0, symName: __ZN9SplayTreeIcPN14FlashRadixTreeINSt3__112basic_stringIcNS1_11char_traitsIcEENS1_9allocatorIcEEEEiL9MatchMode0EE18FlashRadixTreeNodeEE5splayC1EcSB_, symObjAddr: 0x6E28C, symBinAddr: 0x100071600, symSize: 0x3C }
  - { offsetInCU: 0x3C1AF, offset: 0x3C1AF, size: 0x8, addend: 0x0, symName: __ZN9SplayTreeIcPN14FlashRadixTreeINSt3__112basic_stringIcNS1_11char_traitsIcEENS1_9allocatorIcEEEEiL9MatchMode0EE18FlashRadixTreeNodeEE5splayC2EcSB_, symObjAddr: 0x6E2C8, symBinAddr: 0x10007163C, symSize: 0x150 }
  - { offsetInCU: 0x3C1F5, offset: 0x3C1F5, size: 0x8, addend: 0x0, symName: __ZN9SplayTreeIcPN14FlashRadixTreeINSt3__112basic_stringIcNS1_11char_traitsIcEENS1_9allocatorIcEEEEiL9MatchMode0EE18FlashRadixTreeNodeEE9XiteratorILNSC_17IteratorDirectionE0EEaSERKSF_, symObjAddr: 0x6E418, symBinAddr: 0x10007178C, symSize: 0x268 }
  - { offsetInCU: 0x3C229, offset: 0x3C229, size: 0x8, addend: 0x0, symName: __ZN14FlashRadixTreeINSt3__112basic_stringIcNS0_11char_traitsIcEENS0_9allocatorIcEEEEiL9MatchMode0EE18FlashRadixTreeNodeC2ERKS6_OKiPS9_, symObjAddr: 0x6E680, symBinAddr: 0x1000719F4, symSize: 0x2B8 }
  - { offsetInCU: 0x3C27D, offset: 0x3C27D, size: 0x8, addend: 0x0, symName: __ZN14FlashRadixTreeINSt3__112basic_stringIcNS0_11char_traitsIcEENS0_9allocatorIcEEEEiL9MatchMode0EE23XFlashRadixTreeIteratorILNS8_17IteratorDirectionE0EEC2ERKSB_, symObjAddr: 0x6E938, symBinAddr: 0x100071CAC, symSize: 0x270 }
  - { offsetInCU: 0x3C2B5, offset: 0x3C2B5, size: 0x8, addend: 0x0, symName: __ZNK24FlashRadixTreeSerializerINSt3__112basic_stringIcNS0_11char_traitsIcEENS0_9allocatorIcEEEEiL9MatchMode0EE13serializeNodeEPKN14FlashRadixTreeIS6_iLS7_0EE18FlashRadixTreeNodeE, symObjAddr: 0x6EBA8, symBinAddr: 0x100071F1C, symSize: 0x8FC }
  - { offsetInCU: 0x3C373, offset: 0x3C373, size: 0x8, addend: 0x0, symName: __ZNK14FlashRadixTreeINSt3__112basic_stringIcNS0_11char_traitsIcEENS0_9allocatorIcEEEEiL9MatchMode0EE7getRootEv, symObjAddr: 0x6F4A4, symBinAddr: 0x100072818, symSize: 0x60 }
  - { offsetInCU: 0x3C399, offset: 0x3C399, size: 0x8, addend: 0x0, symName: __ZNK9SplayTreeIcPN14FlashRadixTreeINSt3__112basic_stringIcNS1_11char_traitsIcEENS1_9allocatorIcEEEEiL9MatchMode0EE18FlashRadixTreeNodeEE5emptyEv, symObjAddr: 0x6F504, symBinAddr: 0x100072878, symSize: 0x6C }
  - { offsetInCU: 0x3C3BF, offset: 0x3C3BF, size: 0x8, addend: 0x0, symName: __ZNK14FlashRadixTreeINSt3__112basic_stringIcNS0_11char_traitsIcEENS0_9allocatorIcEEEEiL9MatchMode0EE18FlashRadixTreeNodeeqERKS9_, symObjAddr: 0x6F570, symBinAddr: 0x1000728E4, symSize: 0x318 }
  - { offsetInCU: 0x3C415, offset: 0x3C415, size: 0x8, addend: 0x0, symName: __ZNKSt3__113basic_istreamIcNS_11char_traitsIcEEE6sentrycvbB8ue170006Ev, symObjAddr: 0x6FF10, symBinAddr: 0x100073284, symSize: 0x88 }
  - { offsetInCU: 0x3C43B, offset: 0x3C43B, size: 0x8, addend: 0x0, symName: __ZNSt3__112basic_stringIcNS_11char_traitsIcEENS_9allocatorIcEEE5clearB8ue170006Ev, symObjAddr: 0x6FF98, symBinAddr: 0x10007330C, symSize: 0x30C }
  - { offsetInCU: 0x3C464, offset: 0x3C464, size: 0x8, addend: 0x0, symName: __ZNSt3__115basic_streambufIcNS_11char_traitsIcEEE6sbumpcB8ue170006Ev, symObjAddr: 0x702A4, symBinAddr: 0x100073618, symSize: 0x1EC }
  - { offsetInCU: 0x3C48A, offset: 0x3C48A, size: 0x8, addend: 0x0, symName: __ZNSt3__111char_traitsIcE12to_char_typeB8ue170006Ei, symObjAddr: 0x70490, symBinAddr: 0x100073804, symSize: 0x18 }
  - { offsetInCU: 0x3C4AD, offset: 0x3C4AD, size: 0x8, addend: 0x0, symName: __ZNSt3__111char_traitsIcE2eqEcc, symObjAddr: 0x704A8, symBinAddr: 0x10007381C, symSize: 0x28 }
  - { offsetInCU: 0x3C4DE, offset: 0x3C4DE, size: 0x8, addend: 0x0, symName: __ZNKSt3__112basic_stringIcNS_11char_traitsIcEENS_9allocatorIcEEE8max_sizeB8ue170006Ev, symObjAddr: 0x704D0, symBinAddr: 0x100073844, symSize: 0xBC }
  - { offsetInCU: 0x3C530, offset: 0x3C530, size: 0x8, addend: 0x0, symName: __ZNSt3__18ios_base18__setstate_nothrowB8ue170006Ej, symObjAddr: 0x7058C, symBinAddr: 0x100073900, symSize: 0x178 }
  - { offsetInCU: 0x3C565, offset: 0x3C565, size: 0x8, addend: 0x0, symName: __ZNKSt3__19basic_iosIcNS_11char_traitsIcEEE10exceptionsB8ue170006Ev, symObjAddr: 0x70704, symBinAddr: 0x100073A78, symSize: 0x24 }
  - { offsetInCU: 0x3C58B, offset: 0x3C58B, size: 0x8, addend: 0x0, symName: __ZNSt3__112basic_stringIcNS_11char_traitsIcEENS_9allocatorIcEEE15__set_long_sizeB8ue170006Em, symObjAddr: 0x70728, symBinAddr: 0x100073A9C, symSize: 0x80 }
  - { offsetInCU: 0x3C5C0, offset: 0x3C5C0, size: 0x8, addend: 0x0, symName: __ZNSt3__111char_traitsIcE11to_int_typeB8ue170006Ec, symObjAddr: 0x707A8, symBinAddr: 0x100073B1C, symSize: 0x14 }
  - { offsetInCU: 0x3C5EF, offset: 0x3C5EF, size: 0x8, addend: 0x0, symName: __ZNSt3__116allocator_traitsINS_9allocatorIcEEE8max_sizeB8ue170006IS2_vvEEmRKS2_, symObjAddr: 0x707BC, symBinAddr: 0x100073B30, symSize: 0x28 }
  - { offsetInCU: 0x3C61B, offset: 0x3C61B, size: 0x8, addend: 0x0, symName: __ZNKSt3__18ios_base10exceptionsB8ue170006Ev, symObjAddr: 0x707E4, symBinAddr: 0x100073B58, symSize: 0x8C }
  - { offsetInCU: 0x3C643, offset: 0x3C643, size: 0x8, addend: 0x0, symName: __ZNKSt3__19basic_iosIcNS_11char_traitsIcEEE4failB8ue170006Ev, symObjAddr: 0x70870, symBinAddr: 0x100073BE4, symSize: 0x28 }
  - { offsetInCU: 0x3C669, offset: 0x3C669, size: 0x8, addend: 0x0, symName: __ZNKSt3__18ios_base4failB8ue170006Ev, symObjAddr: 0x70898, symBinAddr: 0x100073C0C, symSize: 0x9C }
  - { offsetInCU: 0x3C691, offset: 0x3C691, size: 0x8, addend: 0x0, symName: __ZNSt3__113unordered_mapINS_12basic_stringIcNS_11char_traitsIcEENS_9allocatorIcEEEEjNS_4hashIS6_EENS_8equal_toIS6_EENS4_INS_4pairIKS6_jEEEEEC2B8ue170006Ev, symObjAddr: 0x70934, symBinAddr: 0x100073CA8, symSize: 0x2C }
  - { offsetInCU: 0x3C6BB, offset: 0x3C6BB, size: 0x8, addend: 0x0, symName: __ZNSt3__112__hash_tableINS_17__hash_value_typeINS_12basic_stringIcNS_11char_traitsIcEENS_9allocatorIcEEEEjEENS_22__unordered_map_hasherIS7_S8_NS_4hashIS7_EENS_8equal_toIS7_EELb1EEENS_21__unordered_map_equalIS7_S8_SD_SB_Lb1EEENS5_IS8_EEEC1Ev, symObjAddr: 0x70960, symBinAddr: 0x100073CD4, symSize: 0x2C }
  - { offsetInCU: 0x3C6E7, offset: 0x3C6E7, size: 0x8, addend: 0x0, symName: __ZNSt3__112__hash_tableINS_17__hash_value_typeINS_12basic_stringIcNS_11char_traitsIcEENS_9allocatorIcEEEEjEENS_22__unordered_map_hasherIS7_S8_NS_4hashIS7_EENS_8equal_toIS7_EELb1EEENS_21__unordered_map_equalIS7_S8_SD_SB_Lb1EEENS5_IS8_EEEC2Ev, symObjAddr: 0x7098C, symBinAddr: 0x100073D00, symSize: 0x38C }
  - { offsetInCU: 0x3C714, offset: 0x3C714, size: 0x8, addend: 0x0, symName: __ZNSt3__110unique_ptrIA_PNS_16__hash_node_baseIPNS_11__hash_nodeINS_17__hash_value_typeINS_12basic_stringIcNS_11char_traitsIcEENS_9allocatorIcEEEEjEEPvEEEENS_25__bucket_list_deallocatorINS7_ISF_EEEEEC1B8ue170006ILb1EvEEv, symObjAddr: 0x70D18, symBinAddr: 0x10007408C, symSize: 0x2C }
  - { offsetInCU: 0x3C749, offset: 0x3C749, size: 0x8, addend: 0x0, symName: __ZNSt3__117__compressed_pairINS_16__hash_node_baseIPNS_11__hash_nodeINS_17__hash_value_typeINS_12basic_stringIcNS_11char_traitsIcEENS_9allocatorIcEEEEjEEPvEEEENS7_ISC_EEEC1B8ue170006ILb1EvEEv, symObjAddr: 0x70D44, symBinAddr: 0x1000740B8, symSize: 0x2C }
  - { offsetInCU: 0x3C77E, offset: 0x3C77E, size: 0x8, addend: 0x0, symName: __ZNSt3__117__compressed_pairImNS_22__unordered_map_hasherINS_12basic_stringIcNS_11char_traitsIcEENS_9allocatorIcEEEENS_17__hash_value_typeIS7_jEENS_4hashIS7_EENS_8equal_toIS7_EELb1EEEEC1B8ue170006IiNS_18__default_init_tagEEEOT_OT0_, symObjAddr: 0x70D70, symBinAddr: 0x1000740E4, symSize: 0x3C }
  - { offsetInCU: 0x3C7DC, offset: 0x3C7DC, size: 0x8, addend: 0x0, symName: __ZNSt3__117__compressed_pairIfNS_21__unordered_map_equalINS_12basic_stringIcNS_11char_traitsIcEENS_9allocatorIcEEEENS_17__hash_value_typeIS7_jEENS_8equal_toIS7_EENS_4hashIS7_EELb1EEEEC1B8ue170006IfNS_18__default_init_tagEEEOT_OT0_, symObjAddr: 0x70DAC, symBinAddr: 0x100074120, symSize: 0x3C }
  - { offsetInCU: 0x3C834, offset: 0x3C834, size: 0x8, addend: 0x0, symName: __ZNSt3__110unique_ptrIA_PNS_16__hash_node_baseIPNS_11__hash_nodeINS_17__hash_value_typeINS_12basic_stringIcNS_11char_traitsIcEENS_9allocatorIcEEEEjEEPvEEEENS_25__bucket_list_deallocatorINS7_ISF_EEEEEC2B8ue170006ILb1EvEEv, symObjAddr: 0x70DE8, symBinAddr: 0x10007415C, symSize: 0x200 }
  - { offsetInCU: 0x3C870, offset: 0x3C870, size: 0x8, addend: 0x0, symName: __ZNSt3__117__compressed_pairIPPNS_16__hash_node_baseIPNS_11__hash_nodeINS_17__hash_value_typeINS_12basic_stringIcNS_11char_traitsIcEENS_9allocatorIcEEEEjEEPvEEEENS_25__bucket_list_deallocatorINS7_ISF_EEEEEC1B8ue170006INS_16__value_init_tagESM_EEOT_OT0_, symObjAddr: 0x70FE8, symBinAddr: 0x10007435C, symSize: 0x3C }
  - { offsetInCU: 0x3C8C8, offset: 0x3C8C8, size: 0x8, addend: 0x0, symName: __ZNSt3__117__compressed_pairIPPNS_16__hash_node_baseIPNS_11__hash_nodeINS_17__hash_value_typeINS_12basic_stringIcNS_11char_traitsIcEENS_9allocatorIcEEEEjEEPvEEEENS_25__bucket_list_deallocatorINS7_ISF_EEEEEC2B8ue170006INS_16__value_init_tagESM_EEOT_OT0_, symObjAddr: 0x71024, symBinAddr: 0x100074398, symSize: 0x40 }
  - { offsetInCU: 0x3C920, offset: 0x3C920, size: 0x8, addend: 0x0, symName: __ZNSt3__122__compressed_pair_elemIPPNS_16__hash_node_baseIPNS_11__hash_nodeINS_17__hash_value_typeINS_12basic_stringIcNS_11char_traitsIcEENS_9allocatorIcEEEEjEEPvEEEELi0ELb0EEC2B8ue170006ENS_16__value_init_tagE, symObjAddr: 0x71064, symBinAddr: 0x1000743D8, symSize: 0x60 }
  - { offsetInCU: 0x3C955, offset: 0x3C955, size: 0x8, addend: 0x0, symName: __ZNSt3__122__compressed_pair_elemINS_25__bucket_list_deallocatorINS_9allocatorIPNS_16__hash_node_baseIPNS_11__hash_nodeINS_17__hash_value_typeINS_12basic_stringIcNS_11char_traitsIcEENS2_IcEEEEjEEPvEEEEEEEELi1ELb0EEC2B8ue170006ENS_16__value_init_tagE, symObjAddr: 0x710C4, symBinAddr: 0x100074438, symSize: 0x2C }
  - { offsetInCU: 0x3C98A, offset: 0x3C98A, size: 0x8, addend: 0x0, symName: __ZNSt3__125__bucket_list_deallocatorINS_9allocatorIPNS_16__hash_node_baseIPNS_11__hash_nodeINS_17__hash_value_typeINS_12basic_stringIcNS_11char_traitsIcEENS1_IcEEEEjEEPvEEEEEEEC1B8ue170006Ev, symObjAddr: 0x710F0, symBinAddr: 0x100074464, symSize: 0x2C }
  - { offsetInCU: 0x3C9B4, offset: 0x3C9B4, size: 0x8, addend: 0x0, symName: __ZNSt3__125__bucket_list_deallocatorINS_9allocatorIPNS_16__hash_node_baseIPNS_11__hash_nodeINS_17__hash_value_typeINS_12basic_stringIcNS_11char_traitsIcEENS1_IcEEEEjEEPvEEEEEEEC2B8ue170006Ev, symObjAddr: 0x7111C, symBinAddr: 0x100074490, symSize: 0x270 }
  - { offsetInCU: 0x3C9DF, offset: 0x3C9DF, size: 0x8, addend: 0x0, symName: __ZNSt3__117__compressed_pairImNS_9allocatorIPNS_16__hash_node_baseIPNS_11__hash_nodeINS_17__hash_value_typeINS_12basic_stringIcNS_11char_traitsIcEENS1_IcEEEEjEEPvEEEEEEEC1B8ue170006IiNS_18__default_init_tagEEEOT_OT0_, symObjAddr: 0x7138C, symBinAddr: 0x100074700, symSize: 0x3C }
  - { offsetInCU: 0x3CA37, offset: 0x3CA37, size: 0x8, addend: 0x0, symName: __ZNSt3__117__compressed_pairImNS_9allocatorIPNS_16__hash_node_baseIPNS_11__hash_nodeINS_17__hash_value_typeINS_12basic_stringIcNS_11char_traitsIcEENS1_IcEEEEjEEPvEEEEEEEC2B8ue170006IiNS_18__default_init_tagEEEOT_OT0_, symObjAddr: 0x713C8, symBinAddr: 0x10007473C, symSize: 0x40 }
  - { offsetInCU: 0x3CA8F, offset: 0x3CA8F, size: 0x8, addend: 0x0, symName: __ZNSt3__122__compressed_pair_elemImLi0ELb0EEC2B8ue170006IivEEOT_, symObjAddr: 0x71408, symBinAddr: 0x10007477C, symSize: 0xD8 }
  - { offsetInCU: 0x3CAD1, offset: 0x3CAD1, size: 0x8, addend: 0x0, symName: __ZNSt3__122__compressed_pair_elemINS_9allocatorIPNS_16__hash_node_baseIPNS_11__hash_nodeINS_17__hash_value_typeINS_12basic_stringIcNS_11char_traitsIcEENS1_IcEEEEjEEPvEEEEEELi1ELb1EEC2B8ue170006ENS_18__default_init_tagE, symObjAddr: 0x714E0, symBinAddr: 0x100074854, symSize: 0x2C }
  - { offsetInCU: 0x3CB06, offset: 0x3CB06, size: 0x8, addend: 0x0, symName: __ZNSt3__19allocatorIPNS_16__hash_node_baseIPNS_11__hash_nodeINS_17__hash_value_typeINS_12basic_stringIcNS_11char_traitsIcEENS0_IcEEEEjEEPvEEEEEC2B8ue170006Ev, symObjAddr: 0x7150C, symBinAddr: 0x100074880, symSize: 0x2C }
  - { offsetInCU: 0x3CB30, offset: 0x3CB30, size: 0x8, addend: 0x0, symName: __ZNSt3__116__non_trivial_ifILb1ENS_9allocatorIPNS_16__hash_node_baseIPNS_11__hash_nodeINS_17__hash_value_typeINS_12basic_stringIcNS_11char_traitsIcEENS1_IcEEEEjEEPvEEEEEEEC2B8ue170006Ev, symObjAddr: 0x71538, symBinAddr: 0x1000748AC, symSize: 0x14 }
  - { offsetInCU: 0x3CB5A, offset: 0x3CB5A, size: 0x8, addend: 0x0, symName: __ZNSt3__117__compressed_pairINS_16__hash_node_baseIPNS_11__hash_nodeINS_17__hash_value_typeINS_12basic_stringIcNS_11char_traitsIcEENS_9allocatorIcEEEEjEEPvEEEENS7_ISC_EEEC2B8ue170006ILb1EvEEv, symObjAddr: 0x7154C, symBinAddr: 0x1000748C0, symSize: 0x34 }
  - { offsetInCU: 0x3CB8F, offset: 0x3CB8F, size: 0x8, addend: 0x0, symName: __ZNSt3__122__compressed_pair_elemINS_16__hash_node_baseIPNS_11__hash_nodeINS_17__hash_value_typeINS_12basic_stringIcNS_11char_traitsIcEENS_9allocatorIcEEEEjEEPvEEEELi0ELb0EEC2B8ue170006ENS_16__value_init_tagE, symObjAddr: 0x71580, symBinAddr: 0x1000748F4, symSize: 0x2C }
  - { offsetInCU: 0x3CBC4, offset: 0x3CBC4, size: 0x8, addend: 0x0, symName: __ZNSt3__122__compressed_pair_elemINS_9allocatorINS_11__hash_nodeINS_17__hash_value_typeINS_12basic_stringIcNS_11char_traitsIcEENS1_IcEEEEjEEPvEEEELi1ELb1EEC2B8ue170006ENS_16__value_init_tagE, symObjAddr: 0x715AC, symBinAddr: 0x100074920, symSize: 0x2C }
  - { offsetInCU: 0x3CBF9, offset: 0x3CBF9, size: 0x8, addend: 0x0, symName: __ZNSt3__116__hash_node_baseIPNS_11__hash_nodeINS_17__hash_value_typeINS_12basic_stringIcNS_11char_traitsIcEENS_9allocatorIcEEEEjEEPvEEEC1B8ue170006Ev, symObjAddr: 0x715D8, symBinAddr: 0x10007494C, symSize: 0x2C }
  - { offsetInCU: 0x3CC23, offset: 0x3CC23, size: 0x8, addend: 0x0, symName: __ZNSt3__116__hash_node_baseIPNS_11__hash_nodeINS_17__hash_value_typeINS_12basic_stringIcNS_11char_traitsIcEENS_9allocatorIcEEEEjEEPvEEEC2B8ue170006Ev, symObjAddr: 0x71604, symBinAddr: 0x100074978, symSize: 0x60 }
  - { offsetInCU: 0x3CC4D, offset: 0x3CC4D, size: 0x8, addend: 0x0, symName: __ZNSt3__19allocatorINS_11__hash_nodeINS_17__hash_value_typeINS_12basic_stringIcNS_11char_traitsIcEENS0_IcEEEEjEEPvEEEC2B8ue170006Ev, symObjAddr: 0x71664, symBinAddr: 0x1000749D8, symSize: 0x2C }
  - { offsetInCU: 0x3CC77, offset: 0x3CC77, size: 0x8, addend: 0x0, symName: __ZNSt3__116__non_trivial_ifILb1ENS_9allocatorINS_11__hash_nodeINS_17__hash_value_typeINS_12basic_stringIcNS_11char_traitsIcEENS1_IcEEEEjEEPvEEEEEC2B8ue170006Ev, symObjAddr: 0x71690, symBinAddr: 0x100074A04, symSize: 0x14 }
  - { offsetInCU: 0x3CCA1, offset: 0x3CCA1, size: 0x8, addend: 0x0, symName: __ZNSt3__117__compressed_pairImNS_22__unordered_map_hasherINS_12basic_stringIcNS_11char_traitsIcEENS_9allocatorIcEEEENS_17__hash_value_typeIS7_jEENS_4hashIS7_EENS_8equal_toIS7_EELb1EEEEC2B8ue170006IiNS_18__default_init_tagEEEOT_OT0_, symObjAddr: 0x716A4, symBinAddr: 0x100074A18, symSize: 0x40 }
  - { offsetInCU: 0x3CCF9, offset: 0x3CCF9, size: 0x8, addend: 0x0, symName: __ZNSt3__122__compressed_pair_elemINS_22__unordered_map_hasherINS_12basic_stringIcNS_11char_traitsIcEENS_9allocatorIcEEEENS_17__hash_value_typeIS7_jEENS_4hashIS7_EENS_8equal_toIS7_EELb1EEELi1ELb1EEC2B8ue170006ENS_18__default_init_tagE, symObjAddr: 0x716E4, symBinAddr: 0x100074A58, symSize: 0x2C }
  - { offsetInCU: 0x3CD2E, offset: 0x3CD2E, size: 0x8, addend: 0x0, symName: __ZNSt3__122__unordered_map_hasherINS_12basic_stringIcNS_11char_traitsIcEENS_9allocatorIcEEEENS_17__hash_value_typeIS6_jEENS_4hashIS6_EENS_8equal_toIS6_EELb1EEC2B8ue170006Ev, symObjAddr: 0x71710, symBinAddr: 0x100074A84, symSize: 0x14 }
  - { offsetInCU: 0x3CD58, offset: 0x3CD58, size: 0x8, addend: 0x0, symName: __ZNSt3__117__compressed_pairIfNS_21__unordered_map_equalINS_12basic_stringIcNS_11char_traitsIcEENS_9allocatorIcEEEENS_17__hash_value_typeIS7_jEENS_8equal_toIS7_EENS_4hashIS7_EELb1EEEEC2B8ue170006IfNS_18__default_init_tagEEEOT_OT0_, symObjAddr: 0x71724, symBinAddr: 0x100074A98, symSize: 0x40 }
  - { offsetInCU: 0x3CDB0, offset: 0x3CDB0, size: 0x8, addend: 0x0, symName: __ZNSt3__122__compressed_pair_elemIfLi0ELb0EEC2B8ue170006IfvEEOT_, symObjAddr: 0x71764, symBinAddr: 0x100074AD8, symSize: 0x100 }
  - { offsetInCU: 0x3CDF2, offset: 0x3CDF2, size: 0x8, addend: 0x0, symName: __ZNSt3__122__compressed_pair_elemINS_21__unordered_map_equalINS_12basic_stringIcNS_11char_traitsIcEENS_9allocatorIcEEEENS_17__hash_value_typeIS7_jEENS_8equal_toIS7_EENS_4hashIS7_EELb1EEELi1ELb1EEC2B8ue170006ENS_18__default_init_tagE, symObjAddr: 0x71864, symBinAddr: 0x100074BD8, symSize: 0x2C }
  - { offsetInCU: 0x3CE27, offset: 0x3CE27, size: 0x8, addend: 0x0, symName: __ZNSt3__121__unordered_map_equalINS_12basic_stringIcNS_11char_traitsIcEENS_9allocatorIcEEEENS_17__hash_value_typeIS6_jEENS_8equal_toIS6_EENS_4hashIS6_EELb1EEC2B8ue170006Ev, symObjAddr: 0x71890, symBinAddr: 0x100074C04, symSize: 0x14 }
  - { offsetInCU: 0x3CE51, offset: 0x3CE51, size: 0x8, addend: 0x0, symName: __ZNSt3__113unordered_mapINS_12basic_stringIcNS_11char_traitsIcEENS_9allocatorIcEEEEjNS_4hashIS6_EENS_8equal_toIS6_EENS4_INS_4pairIKS6_jEEEEED2B8ue170006Ev, symObjAddr: 0x718A4, symBinAddr: 0x100074C18, symSize: 0x2C }
  - { offsetInCU: 0x3CE7B, offset: 0x3CE7B, size: 0x8, addend: 0x0, symName: __ZNSt3__112__hash_tableINS_17__hash_value_typeINS_12basic_stringIcNS_11char_traitsIcEENS_9allocatorIcEEEEjEENS_22__unordered_map_hasherIS7_S8_NS_4hashIS7_EENS_8equal_toIS7_EELb1EEENS_21__unordered_map_equalIS7_S8_SD_SB_Lb1EEENS5_IS8_EEED1Ev, symObjAddr: 0x718D0, symBinAddr: 0x100074C44, symSize: 0x2C }
  - { offsetInCU: 0x3CEA7, offset: 0x3CEA7, size: 0x8, addend: 0x0, symName: __ZNSt3__112__hash_tableINS_17__hash_value_typeINS_12basic_stringIcNS_11char_traitsIcEENS_9allocatorIcEEEEjEENS_22__unordered_map_hasherIS7_S8_NS_4hashIS7_EENS_8equal_toIS7_EELb1EEENS_21__unordered_map_equalIS7_S8_SD_SB_Lb1EEENS5_IS8_EEED2Ev, symObjAddr: 0x718FC, symBinAddr: 0x100074C70, symSize: 0x88 }
  - { offsetInCU: 0x3CED3, offset: 0x3CED3, size: 0x8, addend: 0x0, symName: __ZNSt3__112__hash_tableINS_17__hash_value_typeINS_12basic_stringIcNS_11char_traitsIcEENS_9allocatorIcEEEEjEENS_22__unordered_map_hasherIS7_S8_NS_4hashIS7_EENS_8equal_toIS7_EELb1EEENS_21__unordered_map_equalIS7_S8_SD_SB_Lb1EEENS5_IS8_EEE17__deallocate_nodeEPNS_16__hash_node_baseIPNS_11__hash_nodeIS8_PvEEEE, symObjAddr: 0x71984, symBinAddr: 0x100074CF8, symSize: 0xF8 }
  - { offsetInCU: 0x3CF3D, offset: 0x3CF3D, size: 0x8, addend: 0x0, symName: __ZNSt3__117__compressed_pairINS_16__hash_node_baseIPNS_11__hash_nodeINS_17__hash_value_typeINS_12basic_stringIcNS_11char_traitsIcEENS_9allocatorIcEEEEjEEPvEEEENS7_ISC_EEE5firstB8ue170006Ev, symObjAddr: 0x71A7C, symBinAddr: 0x100074DF0, symSize: 0x24 }
  - { offsetInCU: 0x3CF63, offset: 0x3CF63, size: 0x8, addend: 0x0, symName: __ZNSt3__110unique_ptrIA_PNS_16__hash_node_baseIPNS_11__hash_nodeINS_17__hash_value_typeINS_12basic_stringIcNS_11char_traitsIcEENS_9allocatorIcEEEEjEEPvEEEENS_25__bucket_list_deallocatorINS7_ISF_EEEEED1B8ue170006Ev, symObjAddr: 0x71AA0, symBinAddr: 0x100074E14, symSize: 0x2C }
  - { offsetInCU: 0x3CF8D, offset: 0x3CF8D, size: 0x8, addend: 0x0, symName: __ZNSt3__112__hash_tableINS_17__hash_value_typeINS_12basic_stringIcNS_11char_traitsIcEENS_9allocatorIcEEEEjEENS_22__unordered_map_hasherIS7_S8_NS_4hashIS7_EENS_8equal_toIS7_EELb1EEENS_21__unordered_map_equalIS7_S8_SD_SB_Lb1EEENS5_IS8_EEE12__node_allocB8ue170006Ev, symObjAddr: 0x71ACC, symBinAddr: 0x100074E40, symSize: 0x28 }
  - { offsetInCU: 0x3CFB3, offset: 0x3CFB3, size: 0x8, addend: 0x0, symName: __ZNSt3__116__hash_node_baseIPNS_11__hash_nodeINS_17__hash_value_typeINS_12basic_stringIcNS_11char_traitsIcEENS_9allocatorIcEEEEjEEPvEEE8__upcastB8ue170006Ev, symObjAddr: 0x71AF4, symBinAddr: 0x100074E68, symSize: 0x24 }
  - { offsetInCU: 0x3CFD9, offset: 0x3CFD9, size: 0x8, addend: 0x0, symName: __ZNSt3__116allocator_traitsINS_9allocatorINS_11__hash_nodeINS_17__hash_value_typeINS_12basic_stringIcNS_11char_traitsIcEENS1_IcEEEEjEEPvEEEEE7destroyB8ue170006INS_4pairIKS8_jEEvvEEvRSC_PT_, symObjAddr: 0x71B18, symBinAddr: 0x100074E8C, symSize: 0x28 }
  - { offsetInCU: 0x3D014, offset: 0x3D014, size: 0x8, addend: 0x0, symName: __ZNSt3__122__hash_key_value_typesINS_17__hash_value_typeINS_12basic_stringIcNS_11char_traitsIcEENS_9allocatorIcEEEEjEEE9__get_ptrB8ue170006ERS8_, symObjAddr: 0x71B40, symBinAddr: 0x100074EB4, symSize: 0x24 }
  - { offsetInCU: 0x3D037, offset: 0x3D037, size: 0x8, addend: 0x0, symName: __ZNSt3__116allocator_traitsINS_9allocatorINS_11__hash_nodeINS_17__hash_value_typeINS_12basic_stringIcNS_11char_traitsIcEENS1_IcEEEEjEEPvEEEEE10deallocateB8ue170006ERSC_PSB_m, symObjAddr: 0x71B64, symBinAddr: 0x100074ED8, symSize: 0x34 }
  - { offsetInCU: 0x3D079, offset: 0x3D079, size: 0x8, addend: 0x0, symName: __ZNSt3__117__compressed_pairINS_16__hash_node_baseIPNS_11__hash_nodeINS_17__hash_value_typeINS_12basic_stringIcNS_11char_traitsIcEENS_9allocatorIcEEEEjEEPvEEEENS7_ISC_EEE6secondB8ue170006Ev, symObjAddr: 0x71B98, symBinAddr: 0x100074F0C, symSize: 0x24 }
  - { offsetInCU: 0x3D09F, offset: 0x3D09F, size: 0x8, addend: 0x0, symName: __ZNSt3__122__compressed_pair_elemINS_9allocatorINS_11__hash_nodeINS_17__hash_value_typeINS_12basic_stringIcNS_11char_traitsIcEENS1_IcEEEEjEEPvEEEELi1ELb1EE5__getB8ue170006Ev, symObjAddr: 0x71BBC, symBinAddr: 0x100074F30, symSize: 0x14 }
  - { offsetInCU: 0x3D0C5, offset: 0x3D0C5, size: 0x8, addend: 0x0, symName: __ZNSt3__114pointer_traitsIPNS_16__hash_node_baseIPNS_11__hash_nodeINS_17__hash_value_typeINS_12basic_stringIcNS_11char_traitsIcEENS_9allocatorIcEEEEjEEPvEEEEE10pointer_toB8ue170006ERSE_, symObjAddr: 0x71BD0, symBinAddr: 0x100074F44, symSize: 0x14 }
  - { offsetInCU: 0x3D0E8, offset: 0x3D0E8, size: 0x8, addend: 0x0, symName: __ZNSt3__14pairIKNS_12basic_stringIcNS_11char_traitsIcEENS_9allocatorIcEEEEjED1Ev, symObjAddr: 0x71C2C, symBinAddr: 0x100074FA0, symSize: 0x2C }
  - { offsetInCU: 0x3D114, offset: 0x3D114, size: 0x8, addend: 0x0, symName: __ZNSt3__14pairIKNS_12basic_stringIcNS_11char_traitsIcEENS_9allocatorIcEEEEjED2Ev, symObjAddr: 0x71C58, symBinAddr: 0x100074FCC, symSize: 0x2C }
  - { offsetInCU: 0x3D140, offset: 0x3D140, size: 0x8, addend: 0x0, symName: __ZNSt3__117__hash_value_typeINS_12basic_stringIcNS_11char_traitsIcEENS_9allocatorIcEEEEjE11__get_valueB8ue170006Ev, symObjAddr: 0x71C84, symBinAddr: 0x100074FF8, symSize: 0x24 }
  - { offsetInCU: 0x3D166, offset: 0x3D166, size: 0x8, addend: 0x0, symName: __ZNSt3__19allocatorINS_11__hash_nodeINS_17__hash_value_typeINS_12basic_stringIcNS_11char_traitsIcEENS0_IcEEEEjEEPvEEE10deallocateB8ue170006EPSA_m, symObjAddr: 0x71CE0, symBinAddr: 0x100075054, symSize: 0x50 }
  - { offsetInCU: 0x3D1A8, offset: 0x3D1A8, size: 0x8, addend: 0x0, symName: __ZNSt3__122__compressed_pair_elemINS_16__hash_node_baseIPNS_11__hash_nodeINS_17__hash_value_typeINS_12basic_stringIcNS_11char_traitsIcEENS_9allocatorIcEEEEjEEPvEEEELi0ELb0EE5__getB8ue170006Ev, symObjAddr: 0x71D30, symBinAddr: 0x1000750A4, symSize: 0x14 }
  - { offsetInCU: 0x3D1CE, offset: 0x3D1CE, size: 0x8, addend: 0x0, symName: __ZNSt3__110unique_ptrIA_PNS_16__hash_node_baseIPNS_11__hash_nodeINS_17__hash_value_typeINS_12basic_stringIcNS_11char_traitsIcEENS_9allocatorIcEEEEjEEPvEEEENS_25__bucket_list_deallocatorINS7_ISF_EEEEED2B8ue170006Ev, symObjAddr: 0x71D44, symBinAddr: 0x1000750B8, symSize: 0x30 }
  - { offsetInCU: 0x3D1F8, offset: 0x3D1F8, size: 0x8, addend: 0x0, symName: __ZNSt3__110unique_ptrIA_PNS_16__hash_node_baseIPNS_11__hash_nodeINS_17__hash_value_typeINS_12basic_stringIcNS_11char_traitsIcEENS_9allocatorIcEEEEjEEPvEEEENS_25__bucket_list_deallocatorINS7_ISF_EEEEE5resetB8ue170006EDn, symObjAddr: 0x71D74, symBinAddr: 0x1000750E8, symSize: 0xE0 }
  - { offsetInCU: 0x3D239, offset: 0x3D239, size: 0x8, addend: 0x0, symName: __ZNSt3__117__compressed_pairIPPNS_16__hash_node_baseIPNS_11__hash_nodeINS_17__hash_value_typeINS_12basic_stringIcNS_11char_traitsIcEENS_9allocatorIcEEEEjEEPvEEEENS_25__bucket_list_deallocatorINS7_ISF_EEEEE5firstB8ue170006Ev, symObjAddr: 0x71E54, symBinAddr: 0x1000751C8, symSize: 0x24 }
  - { offsetInCU: 0x3D25F, offset: 0x3D25F, size: 0x8, addend: 0x0, symName: __ZNSt3__117__compressed_pairIPPNS_16__hash_node_baseIPNS_11__hash_nodeINS_17__hash_value_typeINS_12basic_stringIcNS_11char_traitsIcEENS_9allocatorIcEEEEjEEPvEEEENS_25__bucket_list_deallocatorINS7_ISF_EEEEE6secondB8ue170006Ev, symObjAddr: 0x71E78, symBinAddr: 0x1000751EC, symSize: 0x28 }
  - { offsetInCU: 0x3D285, offset: 0x3D285, size: 0x8, addend: 0x0, symName: __ZNSt3__125__bucket_list_deallocatorINS_9allocatorIPNS_16__hash_node_baseIPNS_11__hash_nodeINS_17__hash_value_typeINS_12basic_stringIcNS_11char_traitsIcEENS1_IcEEEEjEEPvEEEEEEEclB8ue170006EPSF_, symObjAddr: 0x71EA0, symBinAddr: 0x100075214, symSize: 0x98 }
  - { offsetInCU: 0x3D2BA, offset: 0x3D2BA, size: 0x8, addend: 0x0, symName: __ZNSt3__122__compressed_pair_elemIPPNS_16__hash_node_baseIPNS_11__hash_nodeINS_17__hash_value_typeINS_12basic_stringIcNS_11char_traitsIcEENS_9allocatorIcEEEEjEEPvEEEELi0ELb0EE5__getB8ue170006Ev, symObjAddr: 0x71F38, symBinAddr: 0x1000752AC, symSize: 0x14 }
  - { offsetInCU: 0x3D2E0, offset: 0x3D2E0, size: 0x8, addend: 0x0, symName: __ZNSt3__122__compressed_pair_elemINS_25__bucket_list_deallocatorINS_9allocatorIPNS_16__hash_node_baseIPNS_11__hash_nodeINS_17__hash_value_typeINS_12basic_stringIcNS_11char_traitsIcEENS2_IcEEEEjEEPvEEEEEEEELi1ELb0EE5__getB8ue170006Ev, symObjAddr: 0x71F4C, symBinAddr: 0x1000752C0, symSize: 0x14 }
  - { offsetInCU: 0x3D306, offset: 0x3D306, size: 0x8, addend: 0x0, symName: __ZNSt3__116allocator_traitsINS_9allocatorIPNS_16__hash_node_baseIPNS_11__hash_nodeINS_17__hash_value_typeINS_12basic_stringIcNS_11char_traitsIcEENS1_IcEEEEjEEPvEEEEEEE10deallocateB8ue170006ERSG_PSF_m, symObjAddr: 0x71F60, symBinAddr: 0x1000752D4, symSize: 0x34 }
  - { offsetInCU: 0x3D348, offset: 0x3D348, size: 0x8, addend: 0x0, symName: __ZNSt3__125__bucket_list_deallocatorINS_9allocatorIPNS_16__hash_node_baseIPNS_11__hash_nodeINS_17__hash_value_typeINS_12basic_stringIcNS_11char_traitsIcEENS1_IcEEEEjEEPvEEEEEEE7__allocB8ue170006Ev, symObjAddr: 0x71F94, symBinAddr: 0x100075308, symSize: 0x24 }
  - { offsetInCU: 0x3D36E, offset: 0x3D36E, size: 0x8, addend: 0x0, symName: __ZNSt3__125__bucket_list_deallocatorINS_9allocatorIPNS_16__hash_node_baseIPNS_11__hash_nodeINS_17__hash_value_typeINS_12basic_stringIcNS_11char_traitsIcEENS1_IcEEEEjEEPvEEEEEEE4sizeB8ue170006Ev, symObjAddr: 0x71FB8, symBinAddr: 0x10007532C, symSize: 0x24 }
  - { offsetInCU: 0x3D394, offset: 0x3D394, size: 0x8, addend: 0x0, symName: __ZNSt3__19allocatorIPNS_16__hash_node_baseIPNS_11__hash_nodeINS_17__hash_value_typeINS_12basic_stringIcNS_11char_traitsIcEENS0_IcEEEEjEEPvEEEEE10deallocateB8ue170006EPSE_m, symObjAddr: 0x71FDC, symBinAddr: 0x100075350, symSize: 0x4C }
  - { offsetInCU: 0x3D3D6, offset: 0x3D3D6, size: 0x8, addend: 0x0, symName: __ZNSt3__117__compressed_pairImNS_9allocatorIPNS_16__hash_node_baseIPNS_11__hash_nodeINS_17__hash_value_typeINS_12basic_stringIcNS_11char_traitsIcEENS1_IcEEEEjEEPvEEEEEEE6secondB8ue170006Ev, symObjAddr: 0x72028, symBinAddr: 0x10007539C, symSize: 0x24 }
  - { offsetInCU: 0x3D3FC, offset: 0x3D3FC, size: 0x8, addend: 0x0, symName: __ZNSt3__122__compressed_pair_elemINS_9allocatorIPNS_16__hash_node_baseIPNS_11__hash_nodeINS_17__hash_value_typeINS_12basic_stringIcNS_11char_traitsIcEENS1_IcEEEEjEEPvEEEEEELi1ELb1EE5__getB8ue170006Ev, symObjAddr: 0x7204C, symBinAddr: 0x1000753C0, symSize: 0x14 }
  - { offsetInCU: 0x3D422, offset: 0x3D422, size: 0x8, addend: 0x0, symName: __ZNSt3__117__compressed_pairImNS_9allocatorIPNS_16__hash_node_baseIPNS_11__hash_nodeINS_17__hash_value_typeINS_12basic_stringIcNS_11char_traitsIcEENS1_IcEEEEjEEPvEEEEEEE5firstB8ue170006Ev, symObjAddr: 0x72060, symBinAddr: 0x1000753D4, symSize: 0x24 }
  - { offsetInCU: 0x3D448, offset: 0x3D448, size: 0x8, addend: 0x0, symName: __ZNSt3__122__compressed_pair_elemImLi0ELb0EE5__getB8ue170006Ev, symObjAddr: 0x72084, symBinAddr: 0x1000753F8, symSize: 0x14 }
  - { offsetInCU: 0x3D485, offset: 0x3D485, size: 0x8, addend: 0x0, symName: __ZNSt3__112__hash_tableINS_17__hash_value_typeINS_12basic_stringIcNS_11char_traitsIcEENS_9allocatorIcEEEEjEENS_22__unordered_map_hasherIS7_S8_NS_4hashIS7_EENS_8equal_toIS7_EELb1EEENS_21__unordered_map_equalIS7_S8_SD_SB_Lb1EEENS5_IS8_EEE25__emplace_unique_key_argsIS7_JRKNS_21piecewise_construct_tENS_5tupleIJRKS7_EEENSN_IJEEEEEENS_4pairINS_15__hash_iteratorIPNS_11__hash_nodeIS8_PvEEEEbEERKT_DpOT0_, symObjAddr: 0x72098, symBinAddr: 0x10007540C, symSize: 0xE50 }
  - { offsetInCU: 0x3D599, offset: 0x3D599, size: 0x8, addend: 0x0, symName: __ZNKSt3__115__hash_iteratorIPNS_11__hash_nodeINS_17__hash_value_typeINS_12basic_stringIcNS_11char_traitsIcEENS_9allocatorIcEEEEjEEPvEEEptB8ue170006Ev, symObjAddr: 0x730E4, symBinAddr: 0x100076458, symSize: 0x6C }
  - { offsetInCU: 0x3D5BF, offset: 0x3D5BF, size: 0x8, addend: 0x0, symName: __ZNSt3__112__hash_tableINS_17__hash_value_typeINS_12basic_stringIcNS_11char_traitsIcEENS_9allocatorIcEEEEjEENS_22__unordered_map_hasherIS7_S8_NS_4hashIS7_EENS_8equal_toIS7_EELb1EEENS_21__unordered_map_equalIS7_S8_SD_SB_Lb1EEENS5_IS8_EEE13hash_functionB8ue170006Ev, symObjAddr: 0x73150, symBinAddr: 0x1000764C4, symSize: 0x28 }
  - { offsetInCU: 0x3D5E5, offset: 0x3D5E5, size: 0x8, addend: 0x0, symName: __ZNKSt3__122__unordered_map_hasherINS_12basic_stringIcNS_11char_traitsIcEENS_9allocatorIcEEEENS_17__hash_value_typeIS6_jEENS_4hashIS6_EENS_8equal_toIS6_EELb1EEclB8ue170006ERKS6_, symObjAddr: 0x73178, symBinAddr: 0x1000764EC, symSize: 0x2C }
  - { offsetInCU: 0x3D61A, offset: 0x3D61A, size: 0x8, addend: 0x0, symName: __ZNKSt3__112__hash_tableINS_17__hash_value_typeINS_12basic_stringIcNS_11char_traitsIcEENS_9allocatorIcEEEEjEENS_22__unordered_map_hasherIS7_S8_NS_4hashIS7_EENS_8equal_toIS7_EELb1EEENS_21__unordered_map_equalIS7_S8_SD_SB_Lb1EEENS5_IS8_EEE12bucket_countB8ue170006Ev, symObjAddr: 0x731A4, symBinAddr: 0x100076518, symSize: 0x28 }
  - { offsetInCU: 0x3D640, offset: 0x3D640, size: 0x8, addend: 0x0, symName: __ZNKSt3__110unique_ptrIA_PNS_16__hash_node_baseIPNS_11__hash_nodeINS_17__hash_value_typeINS_12basic_stringIcNS_11char_traitsIcEENS_9allocatorIcEEEEjEEPvEEEENS_25__bucket_list_deallocatorINS7_ISF_EEEEEixB8ue170006Em, symObjAddr: 0x73264, symBinAddr: 0x1000765D8, symSize: 0x78 }
  - { offsetInCU: 0x3D675, offset: 0x3D675, size: 0x8, addend: 0x0, symName: __ZNKSt3__116__hash_node_baseIPNS_11__hash_nodeINS_17__hash_value_typeINS_12basic_stringIcNS_11char_traitsIcEENS_9allocatorIcEEEEjEEPvEEE6__hashB8ue170006Ev, symObjAddr: 0x732DC, symBinAddr: 0x100076650, symSize: 0x64 }
  - { offsetInCU: 0x3D69B, offset: 0x3D69B, size: 0x8, addend: 0x0, symName: __ZNSt3__112__hash_tableINS_17__hash_value_typeINS_12basic_stringIcNS_11char_traitsIcEENS_9allocatorIcEEEEjEENS_22__unordered_map_hasherIS7_S8_NS_4hashIS7_EENS_8equal_toIS7_EELb1EEENS_21__unordered_map_equalIS7_S8_SD_SB_Lb1EEENS5_IS8_EEE6key_eqB8ue170006Ev, symObjAddr: 0x73340, symBinAddr: 0x1000766B4, symSize: 0x28 }
  - { offsetInCU: 0x3D6C1, offset: 0x3D6C1, size: 0x8, addend: 0x0, symName: __ZNKSt3__121__unordered_map_equalINS_12basic_stringIcNS_11char_traitsIcEENS_9allocatorIcEEEENS_17__hash_value_typeIS6_jEENS_8equal_toIS6_EENS_4hashIS6_EELb1EEclB8ue170006ERKS8_RKS6_, symObjAddr: 0x73368, symBinAddr: 0x1000766DC, symSize: 0x48 }
  - { offsetInCU: 0x3D705, offset: 0x3D705, size: 0x8, addend: 0x0, symName: __ZNSt3__112__hash_tableINS_17__hash_value_typeINS_12basic_stringIcNS_11char_traitsIcEENS_9allocatorIcEEEEjEENS_22__unordered_map_hasherIS7_S8_NS_4hashIS7_EENS_8equal_toIS7_EELb1EEENS_21__unordered_map_equalIS7_S8_SD_SB_Lb1EEENS5_IS8_EEE21__construct_node_hashIRKNS_21piecewise_construct_tEJNS_5tupleIJRKS7_EEENSN_IJEEEEEENS_10unique_ptrINS_11__hash_nodeIS8_PvEENS_22__hash_node_destructorINS5_ISV_EEEEEEmOT_DpOT0_, symObjAddr: 0x733B0, symBinAddr: 0x100076724, symSize: 0x428 }
  - { offsetInCU: 0x3D7A8, offset: 0x3D7A8, size: 0x8, addend: 0x0, symName: __ZNSt3__112__hash_tableINS_17__hash_value_typeINS_12basic_stringIcNS_11char_traitsIcEENS_9allocatorIcEEEEjEENS_22__unordered_map_hasherIS7_S8_NS_4hashIS7_EENS_8equal_toIS7_EELb1EEENS_21__unordered_map_equalIS7_S8_SD_SB_Lb1EEENS5_IS8_EEE4sizeB8ue170006Ev, symObjAddr: 0x737D8, symBinAddr: 0x100076B4C, symSize: 0x28 }
  - { offsetInCU: 0x3D7CE, offset: 0x3D7CE, size: 0x8, addend: 0x0, symName: __ZNSt3__112__hash_tableINS_17__hash_value_typeINS_12basic_stringIcNS_11char_traitsIcEENS_9allocatorIcEEEEjEENS_22__unordered_map_hasherIS7_S8_NS_4hashIS7_EENS_8equal_toIS7_EELb1EEENS_21__unordered_map_equalIS7_S8_SD_SB_Lb1EEENS5_IS8_EEE15max_load_factorB8ue170006Ev, symObjAddr: 0x73800, symBinAddr: 0x100076B74, symSize: 0x28 }
  - { offsetInCU: 0x3D7F4, offset: 0x3D7F4, size: 0x8, addend: 0x0, symName: __ZNSt3__112__hash_tableINS_17__hash_value_typeINS_12basic_stringIcNS_11char_traitsIcEENS_9allocatorIcEEEEjEENS_22__unordered_map_hasherIS7_S8_NS_4hashIS7_EENS_8equal_toIS7_EELb1EEENS_21__unordered_map_equalIS7_S8_SD_SB_Lb1EEENS5_IS8_EEE15__rehash_uniqueB8ue170006Em, symObjAddr: 0x73828, symBinAddr: 0x100076B9C, symSize: 0x2C }
  - { offsetInCU: 0x3D829, offset: 0x3D829, size: 0x8, addend: 0x0, symName: __Z4ceilB8ue170006f, symObjAddr: 0x738A4, symBinAddr: 0x100076C18, symSize: 0x18 }
  - { offsetInCU: 0x3D858, offset: 0x3D858, size: 0x8, addend: 0x0, symName: __ZNSt3__116__hash_node_baseIPNS_11__hash_nodeINS_17__hash_value_typeINS_12basic_stringIcNS_11char_traitsIcEENS_9allocatorIcEEEEjEEPvEEE5__ptrB8ue170006Ev, symObjAddr: 0x738BC, symBinAddr: 0x100076C30, symSize: 0x24 }
  - { offsetInCU: 0x3D87E, offset: 0x3D87E, size: 0x8, addend: 0x0, symName: __ZNKSt3__110unique_ptrINS_11__hash_nodeINS_17__hash_value_typeINS_12basic_stringIcNS_11char_traitsIcEENS_9allocatorIcEEEEjEEPvEENS_22__hash_node_destructorINS6_ISB_EEEEEptB8ue170006Ev, symObjAddr: 0x738E0, symBinAddr: 0x100076C54, symSize: 0x6C }
  - { offsetInCU: 0x3D8A4, offset: 0x3D8A4, size: 0x8, addend: 0x0, symName: __ZNKSt3__110unique_ptrINS_11__hash_nodeINS_17__hash_value_typeINS_12basic_stringIcNS_11char_traitsIcEENS_9allocatorIcEEEEjEEPvEENS_22__hash_node_destructorINS6_ISB_EEEEE3getB8ue170006Ev, symObjAddr: 0x7394C, symBinAddr: 0x100076CC0, symSize: 0x6C }
  - { offsetInCU: 0x3D8CA, offset: 0x3D8CA, size: 0x8, addend: 0x0, symName: __ZNSt3__110unique_ptrINS_11__hash_nodeINS_17__hash_value_typeINS_12basic_stringIcNS_11char_traitsIcEENS_9allocatorIcEEEEjEEPvEENS_22__hash_node_destructorINS6_ISB_EEEEE7releaseB8ue170006Ev, symObjAddr: 0x739B8, symBinAddr: 0x100076D2C, symSize: 0xB8 }
  - { offsetInCU: 0x3D8FF, offset: 0x3D8FF, size: 0x8, addend: 0x0, symName: __ZNSt3__110unique_ptrINS_11__hash_nodeINS_17__hash_value_typeINS_12basic_stringIcNS_11char_traitsIcEENS_9allocatorIcEEEEjEEPvEENS_22__hash_node_destructorINS6_ISB_EEEEED1B8ue170006Ev, symObjAddr: 0x73A70, symBinAddr: 0x100076DE4, symSize: 0x2C }
  - { offsetInCU: 0x3D929, offset: 0x3D929, size: 0x8, addend: 0x0, symName: __ZNSt3__115__hash_iteratorIPNS_11__hash_nodeINS_17__hash_value_typeINS_12basic_stringIcNS_11char_traitsIcEENS_9allocatorIcEEEEjEEPvEEEC1B8ue170006EPNS_16__hash_node_baseISC_EE, symObjAddr: 0x73A9C, symBinAddr: 0x100076E10, symSize: 0x34 }
  - { offsetInCU: 0x3D968, offset: 0x3D968, size: 0x8, addend: 0x0, symName: __ZNSt3__14pairINS_15__hash_iteratorIPNS_11__hash_nodeINS_17__hash_value_typeINS_12basic_stringIcNS_11char_traitsIcEENS_9allocatorIcEEEEjEEPvEEEEbEC1B8ue170006ISE_RbLSB_0EEEOT_OT0_, symObjAddr: 0x73AD0, symBinAddr: 0x100076E44, symSize: 0x3C }
  - { offsetInCU: 0x3D9C6, offset: 0x3D9C6, size: 0x8, addend: 0x0, symName: __ZNSt3__117__compressed_pairImNS_22__unordered_map_hasherINS_12basic_stringIcNS_11char_traitsIcEENS_9allocatorIcEEEENS_17__hash_value_typeIS7_jEENS_4hashIS7_EENS_8equal_toIS7_EELb1EEEE6secondB8ue170006Ev, symObjAddr: 0x73B0C, symBinAddr: 0x100076E80, symSize: 0x24 }
  - { offsetInCU: 0x3D9EC, offset: 0x3D9EC, size: 0x8, addend: 0x0, symName: __ZNSt3__122__compressed_pair_elemINS_22__unordered_map_hasherINS_12basic_stringIcNS_11char_traitsIcEENS_9allocatorIcEEEENS_17__hash_value_typeIS7_jEENS_4hashIS7_EENS_8equal_toIS7_EELb1EEELi1ELb1EE5__getB8ue170006Ev, symObjAddr: 0x73B30, symBinAddr: 0x100076EA4, symSize: 0x14 }
  - { offsetInCU: 0x3DA12, offset: 0x3DA12, size: 0x8, addend: 0x0, symName: __ZNKSt3__113__string_hashIcNS_9allocatorIcEEEclB8ue170006ERKNS_12basic_stringIcNS_11char_traitsIcEES2_EE, symObjAddr: 0x73B44, symBinAddr: 0x100076EB8, symSize: 0x70 }
  - { offsetInCU: 0x3DA47, offset: 0x3DA47, size: 0x8, addend: 0x0, symName: __ZNKSt3__121__murmur2_or_cityhashImLm64EEclB8ue170006EPKvm, symObjAddr: 0x73DA0, symBinAddr: 0x100077114, symSize: 0xE04 }
  - { offsetInCU: 0x3DAF3, offset: 0x3DAF3, size: 0x8, addend: 0x0, symName: __ZNSt3__121__murmur2_or_cityhashImLm64EE18__hash_len_0_to_16B8ue170006EPKcm, symObjAddr: 0x74BA4, symBinAddr: 0x100077F18, symSize: 0x2D8 }
  - { offsetInCU: 0x3DBCC, offset: 0x3DBCC, size: 0x8, addend: 0x0, symName: __ZNSt3__121__murmur2_or_cityhashImLm64EE19__hash_len_17_to_32B8ue170006EPKcm, symObjAddr: 0x74E7C, symBinAddr: 0x1000781F0, symSize: 0x130 }
  - { offsetInCU: 0x3DC35, offset: 0x3DC35, size: 0x8, addend: 0x0, symName: __ZNSt3__121__murmur2_or_cityhashImLm64EE19__hash_len_33_to_64B8ue170006EPKcm, symObjAddr: 0x74FAC, symBinAddr: 0x100078320, symSize: 0x2B8 }
  - { offsetInCU: 0x3DCEA, offset: 0x3DCEA, size: 0x8, addend: 0x0, symName: __ZNSt3__121__murmur2_or_cityhashImLm64EE13__hash_len_16B8ue170006Emm, symObjAddr: 0x75478, symBinAddr: 0x1000787EC, symSize: 0x80 }
  - { offsetInCU: 0x3DD45, offset: 0x3DD45, size: 0x8, addend: 0x0, symName: __ZNSt3__121__murmur2_or_cityhashImLm64EE29__weak_hash_len_32_with_seedsB8ue170006EPKcmm, symObjAddr: 0x754F8, symBinAddr: 0x10007886C, symSize: 0x270 }
  - { offsetInCU: 0x3DD87, offset: 0x3DD87, size: 0x8, addend: 0x0, symName: __ZNSt3__121__murmur2_or_cityhashImLm64EE8__rotateB8ue170006Emi, symObjAddr: 0x75768, symBinAddr: 0x100078ADC, symSize: 0x64 }
  - { offsetInCU: 0x3DDB8, offset: 0x3DDB8, size: 0x8, addend: 0x0, symName: __ZNSt3__14pairImmEaSB8ue170006EOS1_, symObjAddr: 0x757CC, symBinAddr: 0x100078B40, symSize: 0x134 }
  - { offsetInCU: 0x3DDED, offset: 0x3DDED, size: 0x8, addend: 0x0, symName: __ZNSt3__121__murmur2_or_cityhashImLm64EE11__shift_mixB8ue170006Em, symObjAddr: 0x75A34, symBinAddr: 0x100078DA8, symSize: 0x1C }
  - { offsetInCU: 0x3DE10, offset: 0x3DE10, size: 0x8, addend: 0x0, symName: __ZNSt3__121__murmur2_or_cityhashImLm64EE22__rotate_by_at_least_1B8ue170006Emi, symObjAddr: 0x75A50, symBinAddr: 0x100078DC4, symSize: 0x38 }
  - { offsetInCU: 0x3DE41, offset: 0x3DE41, size: 0x8, addend: 0x0, symName: __ZNSt3__121__murmur2_or_cityhashImLm64EE29__weak_hash_len_32_with_seedsB8ue170006Emmmmmm, symObjAddr: 0x75CC8, symBinAddr: 0x10007903C, symSize: 0x398 }
  - { offsetInCU: 0x3DEC5, offset: 0x3DEC5, size: 0x8, addend: 0x0, symName: __ZNSt3__14pairImmEC1B8ue170006ImmLPv0EEEOT_OT0_, symObjAddr: 0x76060, symBinAddr: 0x1000793D4, symSize: 0x3C }
  - { offsetInCU: 0x3DF23, offset: 0x3DF23, size: 0x8, addend: 0x0, symName: __ZNSt3__14pairImmEC2B8ue170006ImmLPv0EEEOT_OT0_, symObjAddr: 0x7609C, symBinAddr: 0x100079410, symSize: 0x138 }
  - { offsetInCU: 0x3DF81, offset: 0x3DF81, size: 0x8, addend: 0x0, symName: __ZNKSt3__110unique_ptrIA_PNS_16__hash_node_baseIPNS_11__hash_nodeINS_17__hash_value_typeINS_12basic_stringIcNS_11char_traitsIcEENS_9allocatorIcEEEEjEEPvEEEENS_25__bucket_list_deallocatorINS7_ISF_EEEEE11get_deleterB8ue170006Ev, symObjAddr: 0x761D4, symBinAddr: 0x100079548, symSize: 0x24 }
  - { offsetInCU: 0x3DFA7, offset: 0x3DFA7, size: 0x8, addend: 0x0, symName: __ZNKSt3__125__bucket_list_deallocatorINS_9allocatorIPNS_16__hash_node_baseIPNS_11__hash_nodeINS_17__hash_value_typeINS_12basic_stringIcNS_11char_traitsIcEENS1_IcEEEEjEEPvEEEEEEE4sizeB8ue170006Ev, symObjAddr: 0x761F8, symBinAddr: 0x10007956C, symSize: 0x6C }
  - { offsetInCU: 0x3DFCD, offset: 0x3DFCD, size: 0x8, addend: 0x0, symName: __ZNKSt3__117__compressed_pairIPPNS_16__hash_node_baseIPNS_11__hash_nodeINS_17__hash_value_typeINS_12basic_stringIcNS_11char_traitsIcEENS_9allocatorIcEEEEjEEPvEEEENS_25__bucket_list_deallocatorINS7_ISF_EEEEE6secondB8ue170006Ev, symObjAddr: 0x76264, symBinAddr: 0x1000795D8, symSize: 0x28 }
  - { offsetInCU: 0x3DFF3, offset: 0x3DFF3, size: 0x8, addend: 0x0, symName: __ZNKSt3__122__compressed_pair_elemINS_25__bucket_list_deallocatorINS_9allocatorIPNS_16__hash_node_baseIPNS_11__hash_nodeINS_17__hash_value_typeINS_12basic_stringIcNS_11char_traitsIcEENS2_IcEEEEjEEPvEEEEEEEELi1ELb0EE5__getB8ue170006Ev, symObjAddr: 0x7628C, symBinAddr: 0x100079600, symSize: 0x14 }
  - { offsetInCU: 0x3E019, offset: 0x3E019, size: 0x8, addend: 0x0, symName: __ZNKSt3__117__compressed_pairImNS_9allocatorIPNS_16__hash_node_baseIPNS_11__hash_nodeINS_17__hash_value_typeINS_12basic_stringIcNS_11char_traitsIcEENS1_IcEEEEjEEPvEEEEEEE5firstB8ue170006Ev, symObjAddr: 0x762A0, symBinAddr: 0x100079614, symSize: 0x24 }
  - { offsetInCU: 0x3E03F, offset: 0x3E03F, size: 0x8, addend: 0x0, symName: __ZNKSt3__122__compressed_pair_elemImLi0ELb0EE5__getB8ue170006Ev, symObjAddr: 0x762C4, symBinAddr: 0x100079638, symSize: 0x14 }
  - { offsetInCU: 0x3E065, offset: 0x3E065, size: 0x8, addend: 0x0, symName: __ZNKSt3__117__compressed_pairIPPNS_16__hash_node_baseIPNS_11__hash_nodeINS_17__hash_value_typeINS_12basic_stringIcNS_11char_traitsIcEENS_9allocatorIcEEEEjEEPvEEEENS_25__bucket_list_deallocatorINS7_ISF_EEEEE5firstB8ue170006Ev, symObjAddr: 0x762D8, symBinAddr: 0x10007964C, symSize: 0x24 }
  - { offsetInCU: 0x3E08B, offset: 0x3E08B, size: 0x8, addend: 0x0, symName: __ZNKSt3__122__compressed_pair_elemIPPNS_16__hash_node_baseIPNS_11__hash_nodeINS_17__hash_value_typeINS_12basic_stringIcNS_11char_traitsIcEENS_9allocatorIcEEEEjEEPvEEEELi0ELb0EE5__getB8ue170006Ev, symObjAddr: 0x762FC, symBinAddr: 0x100079670, symSize: 0x14 }
  - { offsetInCU: 0x3E0B1, offset: 0x3E0B1, size: 0x8, addend: 0x0, symName: __ZNSt3__117__compressed_pairIfNS_21__unordered_map_equalINS_12basic_stringIcNS_11char_traitsIcEENS_9allocatorIcEEEENS_17__hash_value_typeIS7_jEENS_8equal_toIS7_EENS_4hashIS7_EELb1EEEE6secondB8ue170006Ev, symObjAddr: 0x76310, symBinAddr: 0x100079684, symSize: 0x24 }
  - { offsetInCU: 0x3E0D7, offset: 0x3E0D7, size: 0x8, addend: 0x0, symName: __ZNSt3__122__compressed_pair_elemINS_21__unordered_map_equalINS_12basic_stringIcNS_11char_traitsIcEENS_9allocatorIcEEEENS_17__hash_value_typeIS7_jEENS_8equal_toIS7_EENS_4hashIS7_EELb1EEELi1ELb1EE5__getB8ue170006Ev, symObjAddr: 0x76334, symBinAddr: 0x1000796A8, symSize: 0x14 }
  - { offsetInCU: 0x3E0FD, offset: 0x3E0FD, size: 0x8, addend: 0x0, symName: __ZNKSt3__18equal_toINS_12basic_stringIcNS_11char_traitsIcEENS_9allocatorIcEEEEEclB8ue170006ERKS6_S9_, symObjAddr: 0x76348, symBinAddr: 0x1000796BC, symSize: 0x34 }
  - { offsetInCU: 0x3E141, offset: 0x3E141, size: 0x8, addend: 0x0, symName: __ZNKSt3__117__hash_value_typeINS_12basic_stringIcNS_11char_traitsIcEENS_9allocatorIcEEEEjE11__get_valueB8ue170006Ev, symObjAddr: 0x7637C, symBinAddr: 0x1000796F0, symSize: 0x24 }
  - { offsetInCU: 0x3E167, offset: 0x3E167, size: 0x8, addend: 0x0, symName: __ZNSt3__116allocator_traitsINS_9allocatorINS_11__hash_nodeINS_17__hash_value_typeINS_12basic_stringIcNS_11char_traitsIcEENS1_IcEEEEjEEPvEEEEE8allocateB8ue170006ERSC_m, symObjAddr: 0x763D8, symBinAddr: 0x10007974C, symSize: 0x2C }
  - { offsetInCU: 0x3E19A, offset: 0x3E19A, size: 0x8, addend: 0x0, symName: __ZNSt3__122__hash_node_destructorINS_9allocatorINS_11__hash_nodeINS_17__hash_value_typeINS_12basic_stringIcNS_11char_traitsIcEENS1_IcEEEEjEEPvEEEEEC1B8ue170006ERSC_b, symObjAddr: 0x76404, symBinAddr: 0x100079778, symSize: 0x48 }
  - { offsetInCU: 0x3E1E8, offset: 0x3E1E8, size: 0x8, addend: 0x0, symName: __ZNSt3__110unique_ptrINS_11__hash_nodeINS_17__hash_value_typeINS_12basic_stringIcNS_11char_traitsIcEENS_9allocatorIcEEEEjEEPvEENS_22__hash_node_destructorINS6_ISB_EEEEEC1B8ue170006ILb1EvEEPSB_NS_16__dependent_typeINS_27__unique_ptr_deleter_sfinaeISE_EEXT_EE20__good_rval_ref_typeE, symObjAddr: 0x7644C, symBinAddr: 0x1000797C0, symSize: 0x3C }
  - { offsetInCU: 0x3E239, offset: 0x3E239, size: 0x8, addend: 0x0, symName: __ZNSt3__116allocator_traitsINS_9allocatorINS_11__hash_nodeINS_17__hash_value_typeINS_12basic_stringIcNS_11char_traitsIcEENS1_IcEEEEjEEPvEEEEE9constructB8ue170006INS_4pairIKS8_jEEJRKNS_21piecewise_construct_tENS_5tupleIJRSG_EEENSL_IJEEEEvvEEvRSC_PT_DpOT0_, symObjAddr: 0x76488, symBinAddr: 0x1000797FC, symSize: 0x40 }
  - { offsetInCU: 0x3E2B6, offset: 0x3E2B6, size: 0x8, addend: 0x0, symName: __ZNSt3__110unique_ptrINS_11__hash_nodeINS_17__hash_value_typeINS_12basic_stringIcNS_11char_traitsIcEENS_9allocatorIcEEEEjEEPvEENS_22__hash_node_destructorINS6_ISB_EEEEE11get_deleterB8ue170006Ev, symObjAddr: 0x764C8, symBinAddr: 0x10007983C, symSize: 0x24 }
  - { offsetInCU: 0x3E2DC, offset: 0x3E2DC, size: 0x8, addend: 0x0, symName: __ZNSt3__19allocatorINS_11__hash_nodeINS_17__hash_value_typeINS_12basic_stringIcNS_11char_traitsIcEENS0_IcEEEEjEEPvEEE8allocateB8ue170006Em, symObjAddr: 0x764EC, symBinAddr: 0x100079860, symSize: 0x60 }
  - { offsetInCU: 0x3E31B, offset: 0x3E31B, size: 0x8, addend: 0x0, symName: __ZNSt3__116allocator_traitsINS_9allocatorINS_11__hash_nodeINS_17__hash_value_typeINS_12basic_stringIcNS_11char_traitsIcEENS1_IcEEEEjEEPvEEEEE8max_sizeB8ue170006ISC_vvEEmRKSC_, symObjAddr: 0x7654C, symBinAddr: 0x1000798C0, symSize: 0x28 }
  - { offsetInCU: 0x3E347, offset: 0x3E347, size: 0x8, addend: 0x0, symName: __ZNSt3__122__hash_node_destructorINS_9allocatorINS_11__hash_nodeINS_17__hash_value_typeINS_12basic_stringIcNS_11char_traitsIcEENS1_IcEEEEjEEPvEEEEEC2B8ue170006ERSC_b, symObjAddr: 0x76574, symBinAddr: 0x1000798E8, symSize: 0xF0 }
  - { offsetInCU: 0x3E38F, offset: 0x3E38F, size: 0x8, addend: 0x0, symName: __ZNSt3__110unique_ptrINS_11__hash_nodeINS_17__hash_value_typeINS_12basic_stringIcNS_11char_traitsIcEENS_9allocatorIcEEEEjEEPvEENS_22__hash_node_destructorINS6_ISB_EEEEEC2B8ue170006ILb1EvEEPSB_NS_16__dependent_typeINS_27__unique_ptr_deleter_sfinaeISE_EEXT_EE20__good_rval_ref_typeE, symObjAddr: 0x76664, symBinAddr: 0x1000799D8, symSize: 0x21C }
  - { offsetInCU: 0x3E3E6, offset: 0x3E3E6, size: 0x8, addend: 0x0, symName: __ZNSt3__117__compressed_pairIPNS_11__hash_nodeINS_17__hash_value_typeINS_12basic_stringIcNS_11char_traitsIcEENS_9allocatorIcEEEEjEEPvEENS_22__hash_node_destructorINS6_ISB_EEEEEC1B8ue170006IRSC_SF_EEOT_OT0_, symObjAddr: 0x76880, symBinAddr: 0x100079BF4, symSize: 0x3C }
  - { offsetInCU: 0x3E43E, offset: 0x3E43E, size: 0x8, addend: 0x0, symName: __ZNSt3__117__compressed_pairIPNS_11__hash_nodeINS_17__hash_value_typeINS_12basic_stringIcNS_11char_traitsIcEENS_9allocatorIcEEEEjEEPvEENS_22__hash_node_destructorINS6_ISB_EEEEEC2B8ue170006IRSC_SF_EEOT_OT0_, symObjAddr: 0x768BC, symBinAddr: 0x100079C30, symSize: 0x48 }
  - { offsetInCU: 0x3E496, offset: 0x3E496, size: 0x8, addend: 0x0, symName: __ZNSt3__122__compressed_pair_elemIPNS_11__hash_nodeINS_17__hash_value_typeINS_12basic_stringIcNS_11char_traitsIcEENS_9allocatorIcEEEEjEEPvEELi0ELb0EEC2B8ue170006IRSC_vEEOT_, symObjAddr: 0x76904, symBinAddr: 0x100079C78, symSize: 0xB0 }
  - { offsetInCU: 0x3E4D8, offset: 0x3E4D8, size: 0x8, addend: 0x0, symName: __ZNSt3__122__compressed_pair_elemINS_22__hash_node_destructorINS_9allocatorINS_11__hash_nodeINS_17__hash_value_typeINS_12basic_stringIcNS_11char_traitsIcEENS2_IcEEEEjEEPvEEEEEELi1ELb0EEC2B8ue170006ISE_vEEOT_, symObjAddr: 0x769B4, symBinAddr: 0x100079D28, symSize: 0x38 }
  - { offsetInCU: 0x3E51A, offset: 0x3E51A, size: 0x8, addend: 0x0, symName: __ZNSt3__14pairIKNS_12basic_stringIcNS_11char_traitsIcEENS_9allocatorIcEEEEjEC1B8ue170006IJRS7_EJEEENS_21piecewise_construct_tENS_5tupleIJDpT_EEENSC_IJDpT0_EEE, symObjAddr: 0x76C08, symBinAddr: 0x100079F7C, symSize: 0x234 }
  - { offsetInCU: 0x3E58C, offset: 0x3E58C, size: 0x8, addend: 0x0, symName: __ZNSt3__14pairIKNS_12basic_stringIcNS_11char_traitsIcEENS_9allocatorIcEEEEjEC1B8ue170006IJRS7_EJEJLm0EEJEEENS_21piecewise_construct_tERNS_5tupleIJDpT_EEERNSC_IJDpT0_EEENS_15__tuple_indicesIJXspT1_EEEENSL_IJXspT2_EEEE, symObjAddr: 0x76E3C, symBinAddr: 0x10007A1B0, symSize: 0x3C }
  - { offsetInCU: 0x3E61E, offset: 0x3E61E, size: 0x8, addend: 0x0, symName: __ZNSt3__14pairIKNS_12basic_stringIcNS_11char_traitsIcEENS_9allocatorIcEEEEjEC2B8ue170006IJRS7_EJEJLm0EEJEEENS_21piecewise_construct_tERNS_5tupleIJDpT_EEERNSC_IJDpT0_EEENS_15__tuple_indicesIJXspT1_EEEENSL_IJXspT2_EEEE, symObjAddr: 0x76E78, symBinAddr: 0x10007A1EC, symSize: 0xB4 }
  - { offsetInCU: 0x3E6B0, offset: 0x3E6B0, size: 0x8, addend: 0x0, symName: __ZNSt3__112__tuple_leafILm0ERKNS_12basic_stringIcNS_11char_traitsIcEENS_9allocatorIcEEEELb0EE3getB8ue170006Ev, symObjAddr: 0x76F50, symBinAddr: 0x10007A2C4, symSize: 0x60 }
  - { offsetInCU: 0x3E6D6, offset: 0x3E6D6, size: 0x8, addend: 0x0, symName: __ZNSt3__117__compressed_pairIPNS_11__hash_nodeINS_17__hash_value_typeINS_12basic_stringIcNS_11char_traitsIcEENS_9allocatorIcEEEEjEEPvEENS_22__hash_node_destructorINS6_ISB_EEEEE6secondB8ue170006Ev, symObjAddr: 0x76FB0, symBinAddr: 0x10007A324, symSize: 0x28 }
  - { offsetInCU: 0x3E6FC, offset: 0x3E6FC, size: 0x8, addend: 0x0, symName: __ZNSt3__122__compressed_pair_elemINS_22__hash_node_destructorINS_9allocatorINS_11__hash_nodeINS_17__hash_value_typeINS_12basic_stringIcNS_11char_traitsIcEENS2_IcEEEEjEEPvEEEEEELi1ELb0EE5__getB8ue170006Ev, symObjAddr: 0x76FD8, symBinAddr: 0x10007A34C, symSize: 0x14 }
  - { offsetInCU: 0x3E722, offset: 0x3E722, size: 0x8, addend: 0x0, symName: __ZNSt3__117__compressed_pairImNS_22__unordered_map_hasherINS_12basic_stringIcNS_11char_traitsIcEENS_9allocatorIcEEEENS_17__hash_value_typeIS7_jEENS_4hashIS7_EENS_8equal_toIS7_EELb1EEEE5firstB8ue170006Ev, symObjAddr: 0x76FEC, symBinAddr: 0x10007A360, symSize: 0x24 }
  - { offsetInCU: 0x3E748, offset: 0x3E748, size: 0x8, addend: 0x0, symName: __ZNSt3__117__compressed_pairIfNS_21__unordered_map_equalINS_12basic_stringIcNS_11char_traitsIcEENS_9allocatorIcEEEENS_17__hash_value_typeIS7_jEENS_8equal_toIS7_EENS_4hashIS7_EELb1EEEE5firstB8ue170006Ev, symObjAddr: 0x77010, symBinAddr: 0x10007A384, symSize: 0x24 }
  - { offsetInCU: 0x3E76E, offset: 0x3E76E, size: 0x8, addend: 0x0, symName: __ZNSt3__122__compressed_pair_elemIfLi0ELb0EE5__getB8ue170006Ev, symObjAddr: 0x77034, symBinAddr: 0x10007A3A8, symSize: 0x14 }
  - { offsetInCU: 0x3E794, offset: 0x3E794, size: 0x8, addend: 0x0, symName: __ZNSt3__112__hash_tableINS_17__hash_value_typeINS_12basic_stringIcNS_11char_traitsIcEENS_9allocatorIcEEEEjEENS_22__unordered_map_hasherIS7_S8_NS_4hashIS7_EENS_8equal_toIS7_EELb1EEENS_21__unordered_map_equalIS7_S8_SD_SB_Lb1EEENS5_IS8_EEE8__rehashILb1EEEvm, symObjAddr: 0x77048, symBinAddr: 0x10007A3BC, symSize: 0x784 }
  - { offsetInCU: 0x3E7EA, offset: 0x3E7EA, size: 0x8, addend: 0x0, symName: __ZNSt3__112__hash_tableINS_17__hash_value_typeINS_12basic_stringIcNS_11char_traitsIcEENS_9allocatorIcEEEEjEENS_22__unordered_map_hasherIS7_S8_NS_4hashIS7_EENS_8equal_toIS7_EELb1EEENS_21__unordered_map_equalIS7_S8_SD_SB_Lb1EEENS5_IS8_EEE11__do_rehashILb1EEEvm, symObjAddr: 0x777CC, symBinAddr: 0x10007AB40, symSize: 0x5BC }
  - { offsetInCU: 0x3E8CF, offset: 0x3E8CF, size: 0x8, addend: 0x0, symName: __ZNSt3__110unique_ptrIA_PNS_16__hash_node_baseIPNS_11__hash_nodeINS_17__hash_value_typeINS_12basic_stringIcNS_11char_traitsIcEENS_9allocatorIcEEEEjEEPvEEEENS_25__bucket_list_deallocatorINS7_ISF_EEEEE11get_deleterB8ue170006Ev, symObjAddr: 0x77DF4, symBinAddr: 0x10007B168, symSize: 0x24 }
  - { offsetInCU: 0x3E8F5, offset: 0x3E8F5, size: 0x8, addend: 0x0, symName: __ZNSt3__110unique_ptrIA_PNS_16__hash_node_baseIPNS_11__hash_nodeINS_17__hash_value_typeINS_12basic_stringIcNS_11char_traitsIcEENS_9allocatorIcEEEEjEEPvEEEENS_25__bucket_list_deallocatorINS7_ISF_EEEEE5resetB8ue170006IPSF_EENS_9enable_ifIXsr28_CheckArrayPointerConversionIT_EE5valueEvE4typeESO_, symObjAddr: 0x77E18, symBinAddr: 0x10007B18C, symSize: 0xEC }
  - { offsetInCU: 0x3E942, offset: 0x3E942, size: 0x8, addend: 0x0, symName: __ZNSt3__116allocator_traitsINS_9allocatorIPNS_16__hash_node_baseIPNS_11__hash_nodeINS_17__hash_value_typeINS_12basic_stringIcNS_11char_traitsIcEENS1_IcEEEEjEEPvEEEEEEE8allocateB8ue170006ERSG_m, symObjAddr: 0x77F04, symBinAddr: 0x10007B278, symSize: 0x2C }
  - { offsetInCU: 0x3E975, offset: 0x3E975, size: 0x8, addend: 0x0, symName: __ZNSt3__19allocatorIPNS_16__hash_node_baseIPNS_11__hash_nodeINS_17__hash_value_typeINS_12basic_stringIcNS_11char_traitsIcEENS0_IcEEEEjEEPvEEEEE8allocateB8ue170006Em, symObjAddr: 0x77F30, symBinAddr: 0x10007B2A4, symSize: 0x5C }
  - { offsetInCU: 0x3E9B4, offset: 0x3E9B4, size: 0x8, addend: 0x0, symName: __ZNSt3__116allocator_traitsINS_9allocatorIPNS_16__hash_node_baseIPNS_11__hash_nodeINS_17__hash_value_typeINS_12basic_stringIcNS_11char_traitsIcEENS1_IcEEEEjEEPvEEEEEEE8max_sizeB8ue170006ISG_vvEEmRKSG_, symObjAddr: 0x77F8C, symBinAddr: 0x10007B300, symSize: 0x28 }
  - { offsetInCU: 0x3E9E0, offset: 0x3E9E0, size: 0x8, addend: 0x0, symName: __ZNKSt3__117__compressed_pairIPNS_11__hash_nodeINS_17__hash_value_typeINS_12basic_stringIcNS_11char_traitsIcEENS_9allocatorIcEEEEjEEPvEENS_22__hash_node_destructorINS6_ISB_EEEEE5firstB8ue170006Ev, symObjAddr: 0x77FB4, symBinAddr: 0x10007B328, symSize: 0x24 }
  - { offsetInCU: 0x3EA06, offset: 0x3EA06, size: 0x8, addend: 0x0, symName: __ZNKSt3__122__compressed_pair_elemIPNS_11__hash_nodeINS_17__hash_value_typeINS_12basic_stringIcNS_11char_traitsIcEENS_9allocatorIcEEEEjEEPvEELi0ELb0EE5__getB8ue170006Ev, symObjAddr: 0x77FD8, symBinAddr: 0x10007B34C, symSize: 0x14 }
  - { offsetInCU: 0x3EA2C, offset: 0x3EA2C, size: 0x8, addend: 0x0, symName: __ZNSt3__117__compressed_pairIPNS_11__hash_nodeINS_17__hash_value_typeINS_12basic_stringIcNS_11char_traitsIcEENS_9allocatorIcEEEEjEEPvEENS_22__hash_node_destructorINS6_ISB_EEEEE5firstB8ue170006Ev, symObjAddr: 0x77FEC, symBinAddr: 0x10007B360, symSize: 0x24 }
  - { offsetInCU: 0x3EA52, offset: 0x3EA52, size: 0x8, addend: 0x0, symName: __ZNSt3__122__compressed_pair_elemIPNS_11__hash_nodeINS_17__hash_value_typeINS_12basic_stringIcNS_11char_traitsIcEENS_9allocatorIcEEEEjEEPvEELi0ELb0EE5__getB8ue170006Ev, symObjAddr: 0x78010, symBinAddr: 0x10007B384, symSize: 0x14 }
  - { offsetInCU: 0x3EA78, offset: 0x3EA78, size: 0x8, addend: 0x0, symName: __ZNSt3__110unique_ptrINS_11__hash_nodeINS_17__hash_value_typeINS_12basic_stringIcNS_11char_traitsIcEENS_9allocatorIcEEEEjEEPvEENS_22__hash_node_destructorINS6_ISB_EEEEED2B8ue170006Ev, symObjAddr: 0x78024, symBinAddr: 0x10007B398, symSize: 0x30 }
  - { offsetInCU: 0x3EAA2, offset: 0x3EAA2, size: 0x8, addend: 0x0, symName: __ZNSt3__110unique_ptrINS_11__hash_nodeINS_17__hash_value_typeINS_12basic_stringIcNS_11char_traitsIcEENS_9allocatorIcEEEEjEEPvEENS_22__hash_node_destructorINS6_ISB_EEEEE5resetB8ue170006EPSB_, symObjAddr: 0x78054, symBinAddr: 0x10007B3C8, symSize: 0xEC }
  - { offsetInCU: 0x3EAE6, offset: 0x3EAE6, size: 0x8, addend: 0x0, symName: __ZNSt3__122__hash_node_destructorINS_9allocatorINS_11__hash_nodeINS_17__hash_value_typeINS_12basic_stringIcNS_11char_traitsIcEENS1_IcEEEEjEEPvEEEEEclB8ue170006EPSB_, symObjAddr: 0x78140, symBinAddr: 0x10007B4B4, symSize: 0x168 }
  - { offsetInCU: 0x3EB1B, offset: 0x3EB1B, size: 0x8, addend: 0x0, symName: __ZNSt3__115__hash_iteratorIPNS_11__hash_nodeINS_17__hash_value_typeINS_12basic_stringIcNS_11char_traitsIcEENS_9allocatorIcEEEEjEEPvEEEC2B8ue170006EPNS_16__hash_node_baseISC_EE, symObjAddr: 0x782A8, symBinAddr: 0x10007B61C, symSize: 0x70 }
  - { offsetInCU: 0x3EB54, offset: 0x3EB54, size: 0x8, addend: 0x0, symName: __ZNSt3__14pairINS_15__hash_iteratorIPNS_11__hash_nodeINS_17__hash_value_typeINS_12basic_stringIcNS_11char_traitsIcEENS_9allocatorIcEEEEjEEPvEEEEbEC2B8ue170006ISE_RbLSB_0EEEOT_OT0_, symObjAddr: 0x78318, symBinAddr: 0x10007B68C, symSize: 0x120 }
  - { offsetInCU: 0x3EBB2, offset: 0x3EBB2, size: 0x8, addend: 0x0, symName: __ZNSt3__15tupleIJRKNS_12basic_stringIcNS_11char_traitsIcEENS_9allocatorIcEEEEEEC1B8ue170006INS_4_AndELi0EEES8_, symObjAddr: 0x78438, symBinAddr: 0x10007B7AC, symSize: 0x34 }
  - { offsetInCU: 0x3EBFB, offset: 0x3EBFB, size: 0x8, addend: 0x0, symName: __ZNSt3__15tupleIJRKNS_12basic_stringIcNS_11char_traitsIcEENS_9allocatorIcEEEEEEC2B8ue170006INS_4_AndELi0EEES8_, symObjAddr: 0x7846C, symBinAddr: 0x10007B7E0, symSize: 0x34 }
  - { offsetInCU: 0x3EC44, offset: 0x3EC44, size: 0x8, addend: 0x0, symName: __ZNSt3__112__tuple_implINS_15__tuple_indicesIJLm0EEEEJRKNS_12basic_stringIcNS_11char_traitsIcEENS_9allocatorIcEEEEEEC1B8ue170006IJLm0EEJSA_EJEJEJSA_EEENS1_IJXspT_EEEENS_13__tuple_typesIJDpT0_EEENS1_IJXspT1_EEEENSE_IJDpT2_EEEDpOT3_, symObjAddr: 0x784A0, symBinAddr: 0x10007B814, symSize: 0x34 }
  - { offsetInCU: 0x3ECDB, offset: 0x3ECDB, size: 0x8, addend: 0x0, symName: __ZNSt3__112__tuple_implINS_15__tuple_indicesIJLm0EEEEJRKNS_12basic_stringIcNS_11char_traitsIcEENS_9allocatorIcEEEEEEC2B8ue170006IJLm0EEJSA_EJEJEJSA_EEENS1_IJXspT_EEEENS_13__tuple_typesIJDpT0_EEENS1_IJXspT1_EEEENSE_IJDpT2_EEEDpOT3_, symObjAddr: 0x784D4, symBinAddr: 0x10007B848, symSize: 0x34 }
  - { offsetInCU: 0x3ED72, offset: 0x3ED72, size: 0x8, addend: 0x0, symName: __ZNSt3__112__tuple_leafILm0ERKNS_12basic_stringIcNS_11char_traitsIcEENS_9allocatorIcEEEELb0EEC2B8ue170006IS8_vEEOT_, symObjAddr: 0x78508, symBinAddr: 0x10007B87C, symSize: 0x70 }
  - { offsetInCU: 0x3EDB5, offset: 0x3EDB5, size: 0x8, addend: 0x0, symName: __ZNSt3__114pointer_traitsIPNS_17__hash_value_typeINS_12basic_stringIcNS_11char_traitsIcEENS_9allocatorIcEEEEjEEE10pointer_toB8ue170006ERS8_, symObjAddr: 0x78578, symBinAddr: 0x10007B8EC, symSize: 0x14 }
  - { offsetInCU: 0x3EDD8, offset: 0x3EDD8, size: 0x8, addend: 0x0, symName: __ZNSt3__112__hash_tableINS_17__hash_value_typeINS_12basic_stringIcNS_11char_traitsIcEENS_9allocatorIcEEEEjEENS_22__unordered_map_hasherIS7_S8_NS_4hashIS7_EENS_8equal_toIS7_EELb1EEENS_21__unordered_map_equalIS7_S8_SD_SB_Lb1EEENS5_IS8_EEE5beginEv, symObjAddr: 0x7858C, symBinAddr: 0x10007B900, symSize: 0x23C }
  - { offsetInCU: 0x3EE01, offset: 0x3EE01, size: 0x8, addend: 0x0, symName: __ZNSt3__119__hash_map_iteratorINS_15__hash_iteratorIPNS_11__hash_nodeINS_17__hash_value_typeINS_12basic_stringIcNS_11char_traitsIcEENS_9allocatorIcEEEEjEEPvEEEEEC1B8ue170006ESE_, symObjAddr: 0x787C8, symBinAddr: 0x10007BB3C, symSize: 0x238 }
  - { offsetInCU: 0x3EE3F, offset: 0x3EE3F, size: 0x8, addend: 0x0, symName: __ZNSt3__119__hash_map_iteratorINS_15__hash_iteratorIPNS_11__hash_nodeINS_17__hash_value_typeINS_12basic_stringIcNS_11char_traitsIcEENS_9allocatorIcEEEEjEEPvEEEEEC2B8ue170006ESE_, symObjAddr: 0x78A00, symBinAddr: 0x10007BD74, symSize: 0x204 }
  - { offsetInCU: 0x3EE7D, offset: 0x3EE7D, size: 0x8, addend: 0x0, symName: __ZNSt3__112__hash_tableINS_17__hash_value_typeINS_12basic_stringIcNS_11char_traitsIcEENS_9allocatorIcEEEEjEENS_22__unordered_map_hasherIS7_S8_NS_4hashIS7_EENS_8equal_toIS7_EELb1EEENS_21__unordered_map_equalIS7_S8_SD_SB_Lb1EEENS5_IS8_EEE3endEv, symObjAddr: 0x78C04, symBinAddr: 0x10007BF78, symSize: 0x1F8 }
  - { offsetInCU: 0x3EEA6, offset: 0x3EEA6, size: 0x8, addend: 0x0, symName: __ZNSt3__115__hash_iteratorIPNS_11__hash_nodeINS_17__hash_value_typeINS_12basic_stringIcNS_11char_traitsIcEENS_9allocatorIcEEEEjEEPvEEEppB8ue170006Ev, symObjAddr: 0x78EB4, symBinAddr: 0x10007C228, symSize: 0xDC }
  - { offsetInCU: 0x3EECC, offset: 0x3EECC, size: 0x8, addend: 0x0, symName: __ZNSt3__112__hash_tableINS_17__hash_value_typeINS_12basic_stringIcNS_11char_traitsIcEENS_9allocatorIcEEEEjEENS_22__unordered_map_hasherIS7_S8_NS_4hashIS7_EENS_8equal_toIS7_EELb1EEENS_21__unordered_map_equalIS7_S8_SD_SB_Lb1EEENS5_IS8_EEE14__erase_uniqueIS7_EEmRKT_, symObjAddr: 0x78F90, symBinAddr: 0x10007C304, symSize: 0x3D0 }
  - { offsetInCU: 0x3EF21, offset: 0x3EF21, size: 0x8, addend: 0x0, symName: __ZNSt3__112__hash_tableINS_17__hash_value_typeINS_12basic_stringIcNS_11char_traitsIcEENS_9allocatorIcEEEEjEENS_22__unordered_map_hasherIS7_S8_NS_4hashIS7_EENS_8equal_toIS7_EELb1EEENS_21__unordered_map_equalIS7_S8_SD_SB_Lb1EEENS5_IS8_EEE4findIS7_EENS_15__hash_iteratorIPNS_11__hash_nodeIS8_PvEEEERKT_, symObjAddr: 0x79360, symBinAddr: 0x10007C6D4, symSize: 0x484 }
  - { offsetInCU: 0x3EFA9, offset: 0x3EFA9, size: 0x8, addend: 0x0, symName: __ZNSt3__112__hash_tableINS_17__hash_value_typeINS_12basic_stringIcNS_11char_traitsIcEENS_9allocatorIcEEEEjEENS_22__unordered_map_hasherIS7_S8_NS_4hashIS7_EENS_8equal_toIS7_EELb1EEENS_21__unordered_map_equalIS7_S8_SD_SB_Lb1EEENS5_IS8_EEE5eraseENS_21__hash_const_iteratorIPNS_11__hash_nodeIS8_PvEEEE, symObjAddr: 0x797E4, symBinAddr: 0x10007CB58, symSize: 0x378 }
  - { offsetInCU: 0x3F008, offset: 0x3F008, size: 0x8, addend: 0x0, symName: __ZNSt3__121__hash_const_iteratorIPNS_11__hash_nodeINS_17__hash_value_typeINS_12basic_stringIcNS_11char_traitsIcEENS_9allocatorIcEEEEjEEPvEEEC1B8ue170006ERKNS_15__hash_iteratorISC_EE, symObjAddr: 0x79B5C, symBinAddr: 0x10007CED0, symSize: 0x34 }
  - { offsetInCU: 0x3F041, offset: 0x3F041, size: 0x8, addend: 0x0, symName: __ZNSt3__112__hash_tableINS_17__hash_value_typeINS_12basic_stringIcNS_11char_traitsIcEENS_9allocatorIcEEEEjEENS_22__unordered_map_hasherIS7_S8_NS_4hashIS7_EENS_8equal_toIS7_EELb1EEENS_21__unordered_map_equalIS7_S8_SD_SB_Lb1EEENS5_IS8_EEE6removeENS_21__hash_const_iteratorIPNS_11__hash_nodeIS8_PvEEEE, symObjAddr: 0x79B90, symBinAddr: 0x10007CF04, symSize: 0x718 }
  - { offsetInCU: 0x3F0DB, offset: 0x3F0DB, size: 0x8, addend: 0x0, symName: __ZNSt3__121__hash_const_iteratorIPNS_11__hash_nodeINS_17__hash_value_typeINS_12basic_stringIcNS_11char_traitsIcEENS_9allocatorIcEEEEjEEPvEEEC2B8ue170006ERKNS_15__hash_iteratorISC_EE, symObjAddr: 0x7A2A8, symBinAddr: 0x10007D61C, symSize: 0xB0 }
  - { offsetInCU: 0x3F114, offset: 0x3F114, size: 0x8, addend: 0x0, symName: __ZNSt3__113unordered_setINS_12basic_stringIcNS_11char_traitsIcEENS_9allocatorIcEEEENS_4hashIS6_EENS_8equal_toIS6_EENS4_IS6_EEEC2B8ue170006Ev, symObjAddr: 0x7A358, symBinAddr: 0x10007D6CC, symSize: 0x2C }
  - { offsetInCU: 0x3F13E, offset: 0x3F13E, size: 0x8, addend: 0x0, symName: __ZNSt3__112__hash_tableINS_12basic_stringIcNS_11char_traitsIcEENS_9allocatorIcEEEENS_4hashIS6_EENS_8equal_toIS6_EENS4_IS6_EEEC1Ev, symObjAddr: 0x7A384, symBinAddr: 0x10007D6F8, symSize: 0x2C }
  - { offsetInCU: 0x3F16A, offset: 0x3F16A, size: 0x8, addend: 0x0, symName: __ZNSt3__112__hash_tableINS_12basic_stringIcNS_11char_traitsIcEENS_9allocatorIcEEEENS_4hashIS6_EENS_8equal_toIS6_EENS4_IS6_EEEC2Ev, symObjAddr: 0x7A3B0, symBinAddr: 0x10007D724, symSize: 0x38C }
  - { offsetInCU: 0x3F197, offset: 0x3F197, size: 0x8, addend: 0x0, symName: __ZNSt3__110unique_ptrIA_PNS_16__hash_node_baseIPNS_11__hash_nodeINS_12basic_stringIcNS_11char_traitsIcEENS_9allocatorIcEEEEPvEEEENS_25__bucket_list_deallocatorINS6_ISD_EEEEEC1B8ue170006ILb1EvEEv, symObjAddr: 0x7A73C, symBinAddr: 0x10007DAB0, symSize: 0x2C }
  - { offsetInCU: 0x3F1CC, offset: 0x3F1CC, size: 0x8, addend: 0x0, symName: __ZNSt3__117__compressed_pairINS_16__hash_node_baseIPNS_11__hash_nodeINS_12basic_stringIcNS_11char_traitsIcEENS_9allocatorIcEEEEPvEEEENS6_ISA_EEEC1B8ue170006ILb1EvEEv, symObjAddr: 0x7A768, symBinAddr: 0x10007DADC, symSize: 0x2C }
  - { offsetInCU: 0x3F201, offset: 0x3F201, size: 0x8, addend: 0x0, symName: __ZNSt3__117__compressed_pairImNS_4hashINS_12basic_stringIcNS_11char_traitsIcEENS_9allocatorIcEEEEEEEC1B8ue170006IiNS_18__default_init_tagEEEOT_OT0_, symObjAddr: 0x7A794, symBinAddr: 0x10007DB08, symSize: 0x3C }
  - { offsetInCU: 0x3F259, offset: 0x3F259, size: 0x8, addend: 0x0, symName: __ZNSt3__117__compressed_pairIfNS_8equal_toINS_12basic_stringIcNS_11char_traitsIcEENS_9allocatorIcEEEEEEEC1B8ue170006IfNS_18__default_init_tagEEEOT_OT0_, symObjAddr: 0x7A7D0, symBinAddr: 0x10007DB44, symSize: 0x3C }
  - { offsetInCU: 0x3F2B1, offset: 0x3F2B1, size: 0x8, addend: 0x0, symName: __ZNSt3__110unique_ptrIA_PNS_16__hash_node_baseIPNS_11__hash_nodeINS_12basic_stringIcNS_11char_traitsIcEENS_9allocatorIcEEEEPvEEEENS_25__bucket_list_deallocatorINS6_ISD_EEEEEC2B8ue170006ILb1EvEEv, symObjAddr: 0x7A80C, symBinAddr: 0x10007DB80, symSize: 0x200 }
  - { offsetInCU: 0x3F2E7, offset: 0x3F2E7, size: 0x8, addend: 0x0, symName: __ZNSt3__117__compressed_pairIPPNS_16__hash_node_baseIPNS_11__hash_nodeINS_12basic_stringIcNS_11char_traitsIcEENS_9allocatorIcEEEEPvEEEENS_25__bucket_list_deallocatorINS6_ISD_EEEEEC1B8ue170006INS_16__value_init_tagESK_EEOT_OT0_, symObjAddr: 0x7AA0C, symBinAddr: 0x10007DD80, symSize: 0x3C }
  - { offsetInCU: 0x3F33F, offset: 0x3F33F, size: 0x8, addend: 0x0, symName: __ZNSt3__117__compressed_pairIPPNS_16__hash_node_baseIPNS_11__hash_nodeINS_12basic_stringIcNS_11char_traitsIcEENS_9allocatorIcEEEEPvEEEENS_25__bucket_list_deallocatorINS6_ISD_EEEEEC2B8ue170006INS_16__value_init_tagESK_EEOT_OT0_, symObjAddr: 0x7AA48, symBinAddr: 0x10007DDBC, symSize: 0x40 }
  - { offsetInCU: 0x3F397, offset: 0x3F397, size: 0x8, addend: 0x0, symName: __ZNSt3__122__compressed_pair_elemIPPNS_16__hash_node_baseIPNS_11__hash_nodeINS_12basic_stringIcNS_11char_traitsIcEENS_9allocatorIcEEEEPvEEEELi0ELb0EEC2B8ue170006ENS_16__value_init_tagE, symObjAddr: 0x7AA88, symBinAddr: 0x10007DDFC, symSize: 0x60 }
  - { offsetInCU: 0x3F3CC, offset: 0x3F3CC, size: 0x8, addend: 0x0, symName: __ZNSt3__122__compressed_pair_elemINS_25__bucket_list_deallocatorINS_9allocatorIPNS_16__hash_node_baseIPNS_11__hash_nodeINS_12basic_stringIcNS_11char_traitsIcEENS2_IcEEEEPvEEEEEEEELi1ELb0EEC2B8ue170006ENS_16__value_init_tagE, symObjAddr: 0x7AAE8, symBinAddr: 0x10007DE5C, symSize: 0x2C }
  - { offsetInCU: 0x3F401, offset: 0x3F401, size: 0x8, addend: 0x0, symName: __ZNSt3__125__bucket_list_deallocatorINS_9allocatorIPNS_16__hash_node_baseIPNS_11__hash_nodeINS_12basic_stringIcNS_11char_traitsIcEENS1_IcEEEEPvEEEEEEEC1B8ue170006Ev, symObjAddr: 0x7AB14, symBinAddr: 0x10007DE88, symSize: 0x2C }
  - { offsetInCU: 0x3F42B, offset: 0x3F42B, size: 0x8, addend: 0x0, symName: __ZNSt3__125__bucket_list_deallocatorINS_9allocatorIPNS_16__hash_node_baseIPNS_11__hash_nodeINS_12basic_stringIcNS_11char_traitsIcEENS1_IcEEEEPvEEEEEEEC2B8ue170006Ev, symObjAddr: 0x7AB40, symBinAddr: 0x10007DEB4, symSize: 0x270 }
  - { offsetInCU: 0x3F456, offset: 0x3F456, size: 0x8, addend: 0x0, symName: __ZNSt3__117__compressed_pairImNS_9allocatorIPNS_16__hash_node_baseIPNS_11__hash_nodeINS_12basic_stringIcNS_11char_traitsIcEENS1_IcEEEEPvEEEEEEEC1B8ue170006IiNS_18__default_init_tagEEEOT_OT0_, symObjAddr: 0x7ADB0, symBinAddr: 0x10007E124, symSize: 0x3C }
  - { offsetInCU: 0x3F4AE, offset: 0x3F4AE, size: 0x8, addend: 0x0, symName: __ZNSt3__117__compressed_pairImNS_9allocatorIPNS_16__hash_node_baseIPNS_11__hash_nodeINS_12basic_stringIcNS_11char_traitsIcEENS1_IcEEEEPvEEEEEEEC2B8ue170006IiNS_18__default_init_tagEEEOT_OT0_, symObjAddr: 0x7ADEC, symBinAddr: 0x10007E160, symSize: 0x40 }
  - { offsetInCU: 0x3F506, offset: 0x3F506, size: 0x8, addend: 0x0, symName: __ZNSt3__122__compressed_pair_elemINS_9allocatorIPNS_16__hash_node_baseIPNS_11__hash_nodeINS_12basic_stringIcNS_11char_traitsIcEENS1_IcEEEEPvEEEEEELi1ELb1EEC2B8ue170006ENS_18__default_init_tagE, symObjAddr: 0x7AE2C, symBinAddr: 0x10007E1A0, symSize: 0x2C }
  - { offsetInCU: 0x3F53B, offset: 0x3F53B, size: 0x8, addend: 0x0, symName: __ZNSt3__19allocatorIPNS_16__hash_node_baseIPNS_11__hash_nodeINS_12basic_stringIcNS_11char_traitsIcEENS0_IcEEEEPvEEEEEC2B8ue170006Ev, symObjAddr: 0x7AE58, symBinAddr: 0x10007E1CC, symSize: 0x2C }
  - { offsetInCU: 0x3F565, offset: 0x3F565, size: 0x8, addend: 0x0, symName: __ZNSt3__116__non_trivial_ifILb1ENS_9allocatorIPNS_16__hash_node_baseIPNS_11__hash_nodeINS_12basic_stringIcNS_11char_traitsIcEENS1_IcEEEEPvEEEEEEEC2B8ue170006Ev, symObjAddr: 0x7AE84, symBinAddr: 0x10007E1F8, symSize: 0x14 }
  - { offsetInCU: 0x3F58F, offset: 0x3F58F, size: 0x8, addend: 0x0, symName: __ZNSt3__117__compressed_pairINS_16__hash_node_baseIPNS_11__hash_nodeINS_12basic_stringIcNS_11char_traitsIcEENS_9allocatorIcEEEEPvEEEENS6_ISA_EEEC2B8ue170006ILb1EvEEv, symObjAddr: 0x7AE98, symBinAddr: 0x10007E20C, symSize: 0x34 }
  - { offsetInCU: 0x3F5C4, offset: 0x3F5C4, size: 0x8, addend: 0x0, symName: __ZNSt3__122__compressed_pair_elemINS_16__hash_node_baseIPNS_11__hash_nodeINS_12basic_stringIcNS_11char_traitsIcEENS_9allocatorIcEEEEPvEEEELi0ELb0EEC2B8ue170006ENS_16__value_init_tagE, symObjAddr: 0x7AECC, symBinAddr: 0x10007E240, symSize: 0x2C }
  - { offsetInCU: 0x3F5F9, offset: 0x3F5F9, size: 0x8, addend: 0x0, symName: __ZNSt3__122__compressed_pair_elemINS_9allocatorINS_11__hash_nodeINS_12basic_stringIcNS_11char_traitsIcEENS1_IcEEEEPvEEEELi1ELb1EEC2B8ue170006ENS_16__value_init_tagE, symObjAddr: 0x7AEF8, symBinAddr: 0x10007E26C, symSize: 0x2C }
  - { offsetInCU: 0x3F62E, offset: 0x3F62E, size: 0x8, addend: 0x0, symName: __ZNSt3__116__hash_node_baseIPNS_11__hash_nodeINS_12basic_stringIcNS_11char_traitsIcEENS_9allocatorIcEEEEPvEEEC1B8ue170006Ev, symObjAddr: 0x7AF24, symBinAddr: 0x10007E298, symSize: 0x2C }
  - { offsetInCU: 0x3F658, offset: 0x3F658, size: 0x8, addend: 0x0, symName: __ZNSt3__116__hash_node_baseIPNS_11__hash_nodeINS_12basic_stringIcNS_11char_traitsIcEENS_9allocatorIcEEEEPvEEEC2B8ue170006Ev, symObjAddr: 0x7AF50, symBinAddr: 0x10007E2C4, symSize: 0x60 }
  - { offsetInCU: 0x3F682, offset: 0x3F682, size: 0x8, addend: 0x0, symName: __ZNSt3__19allocatorINS_11__hash_nodeINS_12basic_stringIcNS_11char_traitsIcEENS0_IcEEEEPvEEEC2B8ue170006Ev, symObjAddr: 0x7AFB0, symBinAddr: 0x10007E324, symSize: 0x2C }
  - { offsetInCU: 0x3F6AC, offset: 0x3F6AC, size: 0x8, addend: 0x0, symName: __ZNSt3__116__non_trivial_ifILb1ENS_9allocatorINS_11__hash_nodeINS_12basic_stringIcNS_11char_traitsIcEENS1_IcEEEEPvEEEEEC2B8ue170006Ev, symObjAddr: 0x7AFDC, symBinAddr: 0x10007E350, symSize: 0x14 }
  - { offsetInCU: 0x3F6D6, offset: 0x3F6D6, size: 0x8, addend: 0x0, symName: __ZNSt3__117__compressed_pairImNS_4hashINS_12basic_stringIcNS_11char_traitsIcEENS_9allocatorIcEEEEEEEC2B8ue170006IiNS_18__default_init_tagEEEOT_OT0_, symObjAddr: 0x7AFF0, symBinAddr: 0x10007E364, symSize: 0x40 }
  - { offsetInCU: 0x3F72E, offset: 0x3F72E, size: 0x8, addend: 0x0, symName: __ZNSt3__122__compressed_pair_elemINS_4hashINS_12basic_stringIcNS_11char_traitsIcEENS_9allocatorIcEEEEEELi1ELb1EEC2B8ue170006ENS_18__default_init_tagE, symObjAddr: 0x7B030, symBinAddr: 0x10007E3A4, symSize: 0x14 }
  - { offsetInCU: 0x3F763, offset: 0x3F763, size: 0x8, addend: 0x0, symName: __ZNSt3__117__compressed_pairIfNS_8equal_toINS_12basic_stringIcNS_11char_traitsIcEENS_9allocatorIcEEEEEEEC2B8ue170006IfNS_18__default_init_tagEEEOT_OT0_, symObjAddr: 0x7B044, symBinAddr: 0x10007E3B8, symSize: 0x40 }
  - { offsetInCU: 0x3F7BB, offset: 0x3F7BB, size: 0x8, addend: 0x0, symName: __ZNSt3__122__compressed_pair_elemINS_8equal_toINS_12basic_stringIcNS_11char_traitsIcEENS_9allocatorIcEEEEEELi1ELb1EEC2B8ue170006ENS_18__default_init_tagE, symObjAddr: 0x7B084, symBinAddr: 0x10007E3F8, symSize: 0x14 }
  - { offsetInCU: 0x3F7F0, offset: 0x3F7F0, size: 0x8, addend: 0x0, symName: __ZNSt3__113unordered_setINS_12basic_stringIcNS_11char_traitsIcEENS_9allocatorIcEEEENS_4hashIS6_EENS_8equal_toIS6_EENS4_IS6_EEED2B8ue170006Ev, symObjAddr: 0x7B098, symBinAddr: 0x10007E40C, symSize: 0x2C }
  - { offsetInCU: 0x3F81A, offset: 0x3F81A, size: 0x8, addend: 0x0, symName: __ZNSt3__112__hash_tableINS_12basic_stringIcNS_11char_traitsIcEENS_9allocatorIcEEEENS_4hashIS6_EENS_8equal_toIS6_EENS4_IS6_EEED1Ev, symObjAddr: 0x7B0C4, symBinAddr: 0x10007E438, symSize: 0x2C }
  - { offsetInCU: 0x3F846, offset: 0x3F846, size: 0x8, addend: 0x0, symName: __ZNSt3__112__hash_tableINS_12basic_stringIcNS_11char_traitsIcEENS_9allocatorIcEEEENS_4hashIS6_EENS_8equal_toIS6_EENS4_IS6_EEED2Ev, symObjAddr: 0x7B0F0, symBinAddr: 0x10007E464, symSize: 0x88 }
  - { offsetInCU: 0x3F872, offset: 0x3F872, size: 0x8, addend: 0x0, symName: __ZNSt3__112__hash_tableINS_12basic_stringIcNS_11char_traitsIcEENS_9allocatorIcEEEENS_4hashIS6_EENS_8equal_toIS6_EENS4_IS6_EEE17__deallocate_nodeEPNS_16__hash_node_baseIPNS_11__hash_nodeIS6_PvEEEE, symObjAddr: 0x7B178, symBinAddr: 0x10007E4EC, symSize: 0xF8 }
  - { offsetInCU: 0x3F8DC, offset: 0x3F8DC, size: 0x8, addend: 0x0, symName: __ZNSt3__117__compressed_pairINS_16__hash_node_baseIPNS_11__hash_nodeINS_12basic_stringIcNS_11char_traitsIcEENS_9allocatorIcEEEEPvEEEENS6_ISA_EEE5firstB8ue170006Ev, symObjAddr: 0x7B270, symBinAddr: 0x10007E5E4, symSize: 0x24 }
  - { offsetInCU: 0x3F902, offset: 0x3F902, size: 0x8, addend: 0x0, symName: __ZNSt3__110unique_ptrIA_PNS_16__hash_node_baseIPNS_11__hash_nodeINS_12basic_stringIcNS_11char_traitsIcEENS_9allocatorIcEEEEPvEEEENS_25__bucket_list_deallocatorINS6_ISD_EEEEED1B8ue170006Ev, symObjAddr: 0x7B294, symBinAddr: 0x10007E608, symSize: 0x2C }
  - { offsetInCU: 0x3F92C, offset: 0x3F92C, size: 0x8, addend: 0x0, symName: __ZNSt3__112__hash_tableINS_12basic_stringIcNS_11char_traitsIcEENS_9allocatorIcEEEENS_4hashIS6_EENS_8equal_toIS6_EENS4_IS6_EEE12__node_allocB8ue170006Ev, symObjAddr: 0x7B2C0, symBinAddr: 0x10007E634, symSize: 0x28 }
  - { offsetInCU: 0x3F952, offset: 0x3F952, size: 0x8, addend: 0x0, symName: __ZNSt3__116__hash_node_baseIPNS_11__hash_nodeINS_12basic_stringIcNS_11char_traitsIcEENS_9allocatorIcEEEEPvEEE8__upcastB8ue170006Ev, symObjAddr: 0x7B2E8, symBinAddr: 0x10007E65C, symSize: 0x24 }
  - { offsetInCU: 0x3F978, offset: 0x3F978, size: 0x8, addend: 0x0, symName: __ZNSt3__116allocator_traitsINS_9allocatorINS_11__hash_nodeINS_12basic_stringIcNS_11char_traitsIcEENS1_IcEEEEPvEEEEE7destroyB8ue170006IS7_vvEEvRSA_PT_, symObjAddr: 0x7B30C, symBinAddr: 0x10007E680, symSize: 0x28 }
  - { offsetInCU: 0x3F9B3, offset: 0x3F9B3, size: 0x8, addend: 0x0, symName: __ZNSt3__122__hash_key_value_typesINS_12basic_stringIcNS_11char_traitsIcEENS_9allocatorIcEEEEE9__get_ptrB8ue170006ERS6_, symObjAddr: 0x7B334, symBinAddr: 0x10007E6A8, symSize: 0x14 }
  - { offsetInCU: 0x3F9D6, offset: 0x3F9D6, size: 0x8, addend: 0x0, symName: __ZNSt3__116allocator_traitsINS_9allocatorINS_11__hash_nodeINS_12basic_stringIcNS_11char_traitsIcEENS1_IcEEEEPvEEEEE10deallocateB8ue170006ERSA_PS9_m, symObjAddr: 0x7B348, symBinAddr: 0x10007E6BC, symSize: 0x34 }
  - { offsetInCU: 0x3FA18, offset: 0x3FA18, size: 0x8, addend: 0x0, symName: __ZNSt3__117__compressed_pairINS_16__hash_node_baseIPNS_11__hash_nodeINS_12basic_stringIcNS_11char_traitsIcEENS_9allocatorIcEEEEPvEEEENS6_ISA_EEE6secondB8ue170006Ev, symObjAddr: 0x7B37C, symBinAddr: 0x10007E6F0, symSize: 0x24 }
  - { offsetInCU: 0x3FA3E, offset: 0x3FA3E, size: 0x8, addend: 0x0, symName: __ZNSt3__122__compressed_pair_elemINS_9allocatorINS_11__hash_nodeINS_12basic_stringIcNS_11char_traitsIcEENS1_IcEEEEPvEEEELi1ELb1EE5__getB8ue170006Ev, symObjAddr: 0x7B3A0, symBinAddr: 0x10007E714, symSize: 0x14 }
  - { offsetInCU: 0x3FA64, offset: 0x3FA64, size: 0x8, addend: 0x0, symName: __ZNSt3__114pointer_traitsIPNS_16__hash_node_baseIPNS_11__hash_nodeINS_12basic_stringIcNS_11char_traitsIcEENS_9allocatorIcEEEEPvEEEEE10pointer_toB8ue170006ERSC_, symObjAddr: 0x7B3B4, symBinAddr: 0x10007E728, symSize: 0x14 }
  - { offsetInCU: 0x3FA87, offset: 0x3FA87, size: 0x8, addend: 0x0, symName: __ZNSt3__19allocatorINS_11__hash_nodeINS_12basic_stringIcNS_11char_traitsIcEENS0_IcEEEEPvEEE10deallocateB8ue170006EPS8_m, symObjAddr: 0x7B3C8, symBinAddr: 0x10007E73C, symSize: 0x50 }
  - { offsetInCU: 0x3FAC9, offset: 0x3FAC9, size: 0x8, addend: 0x0, symName: __ZNSt3__122__compressed_pair_elemINS_16__hash_node_baseIPNS_11__hash_nodeINS_12basic_stringIcNS_11char_traitsIcEENS_9allocatorIcEEEEPvEEEELi0ELb0EE5__getB8ue170006Ev, symObjAddr: 0x7B418, symBinAddr: 0x10007E78C, symSize: 0x14 }
  - { offsetInCU: 0x3FAEF, offset: 0x3FAEF, size: 0x8, addend: 0x0, symName: __ZNSt3__110unique_ptrIA_PNS_16__hash_node_baseIPNS_11__hash_nodeINS_12basic_stringIcNS_11char_traitsIcEENS_9allocatorIcEEEEPvEEEENS_25__bucket_list_deallocatorINS6_ISD_EEEEED2B8ue170006Ev, symObjAddr: 0x7B42C, symBinAddr: 0x10007E7A0, symSize: 0x30 }
  - { offsetInCU: 0x3FB19, offset: 0x3FB19, size: 0x8, addend: 0x0, symName: __ZNSt3__110unique_ptrIA_PNS_16__hash_node_baseIPNS_11__hash_nodeINS_12basic_stringIcNS_11char_traitsIcEENS_9allocatorIcEEEEPvEEEENS_25__bucket_list_deallocatorINS6_ISD_EEEEE5resetB8ue170006EDn, symObjAddr: 0x7B45C, symBinAddr: 0x10007E7D0, symSize: 0xE0 }
  - { offsetInCU: 0x3FB5A, offset: 0x3FB5A, size: 0x8, addend: 0x0, symName: __ZNSt3__117__compressed_pairIPPNS_16__hash_node_baseIPNS_11__hash_nodeINS_12basic_stringIcNS_11char_traitsIcEENS_9allocatorIcEEEEPvEEEENS_25__bucket_list_deallocatorINS6_ISD_EEEEE5firstB8ue170006Ev, symObjAddr: 0x7B53C, symBinAddr: 0x10007E8B0, symSize: 0x24 }
  - { offsetInCU: 0x3FB80, offset: 0x3FB80, size: 0x8, addend: 0x0, symName: __ZNSt3__117__compressed_pairIPPNS_16__hash_node_baseIPNS_11__hash_nodeINS_12basic_stringIcNS_11char_traitsIcEENS_9allocatorIcEEEEPvEEEENS_25__bucket_list_deallocatorINS6_ISD_EEEEE6secondB8ue170006Ev, symObjAddr: 0x7B560, symBinAddr: 0x10007E8D4, symSize: 0x28 }
  - { offsetInCU: 0x3FBA6, offset: 0x3FBA6, size: 0x8, addend: 0x0, symName: __ZNSt3__125__bucket_list_deallocatorINS_9allocatorIPNS_16__hash_node_baseIPNS_11__hash_nodeINS_12basic_stringIcNS_11char_traitsIcEENS1_IcEEEEPvEEEEEEEclB8ue170006EPSD_, symObjAddr: 0x7B588, symBinAddr: 0x10007E8FC, symSize: 0x98 }
  - { offsetInCU: 0x3FBDB, offset: 0x3FBDB, size: 0x8, addend: 0x0, symName: __ZNSt3__122__compressed_pair_elemIPPNS_16__hash_node_baseIPNS_11__hash_nodeINS_12basic_stringIcNS_11char_traitsIcEENS_9allocatorIcEEEEPvEEEELi0ELb0EE5__getB8ue170006Ev, symObjAddr: 0x7B620, symBinAddr: 0x10007E994, symSize: 0x14 }
  - { offsetInCU: 0x3FC01, offset: 0x3FC01, size: 0x8, addend: 0x0, symName: __ZNSt3__122__compressed_pair_elemINS_25__bucket_list_deallocatorINS_9allocatorIPNS_16__hash_node_baseIPNS_11__hash_nodeINS_12basic_stringIcNS_11char_traitsIcEENS2_IcEEEEPvEEEEEEEELi1ELb0EE5__getB8ue170006Ev, symObjAddr: 0x7B634, symBinAddr: 0x10007E9A8, symSize: 0x14 }
  - { offsetInCU: 0x3FC27, offset: 0x3FC27, size: 0x8, addend: 0x0, symName: __ZNSt3__116allocator_traitsINS_9allocatorIPNS_16__hash_node_baseIPNS_11__hash_nodeINS_12basic_stringIcNS_11char_traitsIcEENS1_IcEEEEPvEEEEEEE10deallocateB8ue170006ERSE_PSD_m, symObjAddr: 0x7B648, symBinAddr: 0x10007E9BC, symSize: 0x34 }
  - { offsetInCU: 0x3FC69, offset: 0x3FC69, size: 0x8, addend: 0x0, symName: __ZNSt3__125__bucket_list_deallocatorINS_9allocatorIPNS_16__hash_node_baseIPNS_11__hash_nodeINS_12basic_stringIcNS_11char_traitsIcEENS1_IcEEEEPvEEEEEEE7__allocB8ue170006Ev, symObjAddr: 0x7B67C, symBinAddr: 0x10007E9F0, symSize: 0x24 }
  - { offsetInCU: 0x3FC8F, offset: 0x3FC8F, size: 0x8, addend: 0x0, symName: __ZNSt3__125__bucket_list_deallocatorINS_9allocatorIPNS_16__hash_node_baseIPNS_11__hash_nodeINS_12basic_stringIcNS_11char_traitsIcEENS1_IcEEEEPvEEEEEEE4sizeB8ue170006Ev, symObjAddr: 0x7B6A0, symBinAddr: 0x10007EA14, symSize: 0x24 }
  - { offsetInCU: 0x3FCB5, offset: 0x3FCB5, size: 0x8, addend: 0x0, symName: __ZNSt3__19allocatorIPNS_16__hash_node_baseIPNS_11__hash_nodeINS_12basic_stringIcNS_11char_traitsIcEENS0_IcEEEEPvEEEEE10deallocateB8ue170006EPSC_m, symObjAddr: 0x7B6C4, symBinAddr: 0x10007EA38, symSize: 0x4C }
  - { offsetInCU: 0x3FCF7, offset: 0x3FCF7, size: 0x8, addend: 0x0, symName: __ZNSt3__117__compressed_pairImNS_9allocatorIPNS_16__hash_node_baseIPNS_11__hash_nodeINS_12basic_stringIcNS_11char_traitsIcEENS1_IcEEEEPvEEEEEEE6secondB8ue170006Ev, symObjAddr: 0x7B710, symBinAddr: 0x10007EA84, symSize: 0x24 }
  - { offsetInCU: 0x3FD1D, offset: 0x3FD1D, size: 0x8, addend: 0x0, symName: __ZNSt3__122__compressed_pair_elemINS_9allocatorIPNS_16__hash_node_baseIPNS_11__hash_nodeINS_12basic_stringIcNS_11char_traitsIcEENS1_IcEEEEPvEEEEEELi1ELb1EE5__getB8ue170006Ev, symObjAddr: 0x7B734, symBinAddr: 0x10007EAA8, symSize: 0x14 }
  - { offsetInCU: 0x3FD43, offset: 0x3FD43, size: 0x8, addend: 0x0, symName: __ZNSt3__117__compressed_pairImNS_9allocatorIPNS_16__hash_node_baseIPNS_11__hash_nodeINS_12basic_stringIcNS_11char_traitsIcEENS1_IcEEEEPvEEEEEEE5firstB8ue170006Ev, symObjAddr: 0x7B748, symBinAddr: 0x10007EABC, symSize: 0x24 }
  - { offsetInCU: 0x3FD69, offset: 0x3FD69, size: 0x8, addend: 0x0, symName: __ZNSt3__112__hash_tableINS_12basic_stringIcNS_11char_traitsIcEENS_9allocatorIcEEEENS_4hashIS6_EENS_8equal_toIS6_EENS4_IS6_EEE15__insert_uniqueB8ue170006ERKS6_, symObjAddr: 0x7B76C, symBinAddr: 0x10007EAE0, symSize: 0x238 }
  - { offsetInCU: 0x3FDA0, offset: 0x3FDA0, size: 0x8, addend: 0x0, symName: __ZNSt3__14pairINS_21__hash_const_iteratorIPNS_11__hash_nodeINS_12basic_stringIcNS_11char_traitsIcEENS_9allocatorIcEEEEPvEEEEbEC1B8ue170006INS_15__hash_iteratorISB_EEbLS9_0EEEONS0_IT_T0_EE, symObjAddr: 0x7B9A4, symBinAddr: 0x10007ED18, symSize: 0x34 }
  - { offsetInCU: 0x3FDF1, offset: 0x3FDF1, size: 0x8, addend: 0x0, symName: __ZNSt3__112__hash_tableINS_12basic_stringIcNS_11char_traitsIcEENS_9allocatorIcEEEENS_4hashIS6_EENS_8equal_toIS6_EENS4_IS6_EEE25__emplace_unique_key_argsIS6_JRKS6_EEENS_4pairINS_15__hash_iteratorIPNS_11__hash_nodeIS6_PvEEEEbEERKT_DpOT0_, symObjAddr: 0x7B9D8, symBinAddr: 0x10007ED4C, symSize: 0xDF4 }
  - { offsetInCU: 0x3FEDB, offset: 0x3FEDB, size: 0x8, addend: 0x0, symName: __ZNSt3__122__hash_key_value_typesINS_12basic_stringIcNS_11char_traitsIcEENS_9allocatorIcEEEEE9__get_keyB8ue170006ERKS6_, symObjAddr: 0x7C7CC, symBinAddr: 0x10007FB40, symSize: 0x14 }
  - { offsetInCU: 0x3FEFE, offset: 0x3FEFE, size: 0x8, addend: 0x0, symName: __ZNSt3__112__hash_tableINS_12basic_stringIcNS_11char_traitsIcEENS_9allocatorIcEEEENS_4hashIS6_EENS_8equal_toIS6_EENS4_IS6_EEE13hash_functionB8ue170006Ev, symObjAddr: 0x7C7E0, symBinAddr: 0x10007FB54, symSize: 0x28 }
  - { offsetInCU: 0x3FF24, offset: 0x3FF24, size: 0x8, addend: 0x0, symName: __ZNKSt3__112__hash_tableINS_12basic_stringIcNS_11char_traitsIcEENS_9allocatorIcEEEENS_4hashIS6_EENS_8equal_toIS6_EENS4_IS6_EEE12bucket_countB8ue170006Ev, symObjAddr: 0x7C808, symBinAddr: 0x10007FB7C, symSize: 0x28 }
  - { offsetInCU: 0x3FF4A, offset: 0x3FF4A, size: 0x8, addend: 0x0, symName: __ZNKSt3__110unique_ptrIA_PNS_16__hash_node_baseIPNS_11__hash_nodeINS_12basic_stringIcNS_11char_traitsIcEENS_9allocatorIcEEEEPvEEEENS_25__bucket_list_deallocatorINS6_ISD_EEEEEixB8ue170006Em, symObjAddr: 0x7C830, symBinAddr: 0x10007FBA4, symSize: 0x78 }
  - { offsetInCU: 0x3FF7F, offset: 0x3FF7F, size: 0x8, addend: 0x0, symName: __ZNKSt3__116__hash_node_baseIPNS_11__hash_nodeINS_12basic_stringIcNS_11char_traitsIcEENS_9allocatorIcEEEEPvEEE6__hashB8ue170006Ev, symObjAddr: 0x7C8A8, symBinAddr: 0x10007FC1C, symSize: 0x64 }
  - { offsetInCU: 0x3FFA5, offset: 0x3FFA5, size: 0x8, addend: 0x0, symName: __ZNSt3__112__hash_tableINS_12basic_stringIcNS_11char_traitsIcEENS_9allocatorIcEEEENS_4hashIS6_EENS_8equal_toIS6_EENS4_IS6_EEE6key_eqB8ue170006Ev, symObjAddr: 0x7C90C, symBinAddr: 0x10007FC80, symSize: 0x28 }
  - { offsetInCU: 0x3FFCB, offset: 0x3FFCB, size: 0x8, addend: 0x0, symName: __ZNSt3__112__hash_tableINS_12basic_stringIcNS_11char_traitsIcEENS_9allocatorIcEEEENS_4hashIS6_EENS_8equal_toIS6_EENS4_IS6_EEE21__construct_node_hashIRKS6_JEEENS_10unique_ptrINS_11__hash_nodeIS6_PvEENS_22__hash_node_destructorINS4_ISJ_EEEEEEmOT_DpOT0_, symObjAddr: 0x7C934, symBinAddr: 0x10007FCA8, symSize: 0x410 }
  - { offsetInCU: 0x40044, offset: 0x40044, size: 0x8, addend: 0x0, symName: __ZNSt3__112__hash_tableINS_12basic_stringIcNS_11char_traitsIcEENS_9allocatorIcEEEENS_4hashIS6_EENS_8equal_toIS6_EENS4_IS6_EEE4sizeB8ue170006Ev, symObjAddr: 0x7CD44, symBinAddr: 0x1000800B8, symSize: 0x28 }
  - { offsetInCU: 0x4006A, offset: 0x4006A, size: 0x8, addend: 0x0, symName: __ZNSt3__112__hash_tableINS_12basic_stringIcNS_11char_traitsIcEENS_9allocatorIcEEEENS_4hashIS6_EENS_8equal_toIS6_EENS4_IS6_EEE15max_load_factorB8ue170006Ev, symObjAddr: 0x7CD6C, symBinAddr: 0x1000800E0, symSize: 0x28 }
  - { offsetInCU: 0x40090, offset: 0x40090, size: 0x8, addend: 0x0, symName: __ZNSt3__112__hash_tableINS_12basic_stringIcNS_11char_traitsIcEENS_9allocatorIcEEEENS_4hashIS6_EENS_8equal_toIS6_EENS4_IS6_EEE15__rehash_uniqueB8ue170006Em, symObjAddr: 0x7CD94, symBinAddr: 0x100080108, symSize: 0x2C }
  - { offsetInCU: 0x400C5, offset: 0x400C5, size: 0x8, addend: 0x0, symName: __ZNSt3__116__hash_node_baseIPNS_11__hash_nodeINS_12basic_stringIcNS_11char_traitsIcEENS_9allocatorIcEEEEPvEEE5__ptrB8ue170006Ev, symObjAddr: 0x7CDC0, symBinAddr: 0x100080134, symSize: 0x24 }
  - { offsetInCU: 0x400EB, offset: 0x400EB, size: 0x8, addend: 0x0, symName: __ZNKSt3__110unique_ptrINS_11__hash_nodeINS_12basic_stringIcNS_11char_traitsIcEENS_9allocatorIcEEEEPvEENS_22__hash_node_destructorINS5_IS9_EEEEEptB8ue170006Ev, symObjAddr: 0x7CDE4, symBinAddr: 0x100080158, symSize: 0x6C }
  - { offsetInCU: 0x40111, offset: 0x40111, size: 0x8, addend: 0x0, symName: __ZNKSt3__110unique_ptrINS_11__hash_nodeINS_12basic_stringIcNS_11char_traitsIcEENS_9allocatorIcEEEEPvEENS_22__hash_node_destructorINS5_IS9_EEEEE3getB8ue170006Ev, symObjAddr: 0x7CE50, symBinAddr: 0x1000801C4, symSize: 0x6C }
  - { offsetInCU: 0x40137, offset: 0x40137, size: 0x8, addend: 0x0, symName: __ZNSt3__110unique_ptrINS_11__hash_nodeINS_12basic_stringIcNS_11char_traitsIcEENS_9allocatorIcEEEEPvEENS_22__hash_node_destructorINS5_IS9_EEEEE7releaseB8ue170006Ev, symObjAddr: 0x7CEBC, symBinAddr: 0x100080230, symSize: 0xB8 }
  - { offsetInCU: 0x4016C, offset: 0x4016C, size: 0x8, addend: 0x0, symName: __ZNSt3__110unique_ptrINS_11__hash_nodeINS_12basic_stringIcNS_11char_traitsIcEENS_9allocatorIcEEEEPvEENS_22__hash_node_destructorINS5_IS9_EEEEED1B8ue170006Ev, symObjAddr: 0x7CF74, symBinAddr: 0x1000802E8, symSize: 0x2C }
  - { offsetInCU: 0x40196, offset: 0x40196, size: 0x8, addend: 0x0, symName: __ZNSt3__115__hash_iteratorIPNS_11__hash_nodeINS_12basic_stringIcNS_11char_traitsIcEENS_9allocatorIcEEEEPvEEEC1B8ue170006EPNS_16__hash_node_baseISA_EE, symObjAddr: 0x7CFA0, symBinAddr: 0x100080314, symSize: 0x34 }
  - { offsetInCU: 0x401D5, offset: 0x401D5, size: 0x8, addend: 0x0, symName: __ZNSt3__14pairINS_15__hash_iteratorIPNS_11__hash_nodeINS_12basic_stringIcNS_11char_traitsIcEENS_9allocatorIcEEEEPvEEEEbEC1B8ue170006ISC_RbLS9_0EEEOT_OT0_, symObjAddr: 0x7CFD4, symBinAddr: 0x100080348, symSize: 0x3C }
  - { offsetInCU: 0x40233, offset: 0x40233, size: 0x8, addend: 0x0, symName: __ZNSt3__117__compressed_pairImNS_4hashINS_12basic_stringIcNS_11char_traitsIcEENS_9allocatorIcEEEEEEE6secondB8ue170006Ev, symObjAddr: 0x7D010, symBinAddr: 0x100080384, symSize: 0x24 }
  - { offsetInCU: 0x40259, offset: 0x40259, size: 0x8, addend: 0x0, symName: __ZNSt3__122__compressed_pair_elemINS_4hashINS_12basic_stringIcNS_11char_traitsIcEENS_9allocatorIcEEEEEELi1ELb1EE5__getB8ue170006Ev, symObjAddr: 0x7D034, symBinAddr: 0x1000803A8, symSize: 0x14 }
  - { offsetInCU: 0x4027F, offset: 0x4027F, size: 0x8, addend: 0x0, symName: __ZNKSt3__110unique_ptrIA_PNS_16__hash_node_baseIPNS_11__hash_nodeINS_12basic_stringIcNS_11char_traitsIcEENS_9allocatorIcEEEEPvEEEENS_25__bucket_list_deallocatorINS6_ISD_EEEEE11get_deleterB8ue170006Ev, symObjAddr: 0x7D048, symBinAddr: 0x1000803BC, symSize: 0x24 }
  - { offsetInCU: 0x402A5, offset: 0x402A5, size: 0x8, addend: 0x0, symName: __ZNKSt3__125__bucket_list_deallocatorINS_9allocatorIPNS_16__hash_node_baseIPNS_11__hash_nodeINS_12basic_stringIcNS_11char_traitsIcEENS1_IcEEEEPvEEEEEEE4sizeB8ue170006Ev, symObjAddr: 0x7D06C, symBinAddr: 0x1000803E0, symSize: 0x6C }
  - { offsetInCU: 0x402CB, offset: 0x402CB, size: 0x8, addend: 0x0, symName: __ZNKSt3__117__compressed_pairIPPNS_16__hash_node_baseIPNS_11__hash_nodeINS_12basic_stringIcNS_11char_traitsIcEENS_9allocatorIcEEEEPvEEEENS_25__bucket_list_deallocatorINS6_ISD_EEEEE6secondB8ue170006Ev, symObjAddr: 0x7D0D8, symBinAddr: 0x10008044C, symSize: 0x28 }
  - { offsetInCU: 0x402F1, offset: 0x402F1, size: 0x8, addend: 0x0, symName: __ZNKSt3__122__compressed_pair_elemINS_25__bucket_list_deallocatorINS_9allocatorIPNS_16__hash_node_baseIPNS_11__hash_nodeINS_12basic_stringIcNS_11char_traitsIcEENS2_IcEEEEPvEEEEEEEELi1ELb0EE5__getB8ue170006Ev, symObjAddr: 0x7D100, symBinAddr: 0x100080474, symSize: 0x14 }
  - { offsetInCU: 0x40317, offset: 0x40317, size: 0x8, addend: 0x0, symName: __ZNKSt3__117__compressed_pairImNS_9allocatorIPNS_16__hash_node_baseIPNS_11__hash_nodeINS_12basic_stringIcNS_11char_traitsIcEENS1_IcEEEEPvEEEEEEE5firstB8ue170006Ev, symObjAddr: 0x7D114, symBinAddr: 0x100080488, symSize: 0x24 }
  - { offsetInCU: 0x4033D, offset: 0x4033D, size: 0x8, addend: 0x0, symName: __ZNKSt3__117__compressed_pairIPPNS_16__hash_node_baseIPNS_11__hash_nodeINS_12basic_stringIcNS_11char_traitsIcEENS_9allocatorIcEEEEPvEEEENS_25__bucket_list_deallocatorINS6_ISD_EEEEE5firstB8ue170006Ev, symObjAddr: 0x7D138, symBinAddr: 0x1000804AC, symSize: 0x24 }
  - { offsetInCU: 0x40363, offset: 0x40363, size: 0x8, addend: 0x0, symName: __ZNKSt3__122__compressed_pair_elemIPPNS_16__hash_node_baseIPNS_11__hash_nodeINS_12basic_stringIcNS_11char_traitsIcEENS_9allocatorIcEEEEPvEEEELi0ELb0EE5__getB8ue170006Ev, symObjAddr: 0x7D15C, symBinAddr: 0x1000804D0, symSize: 0x14 }
  - { offsetInCU: 0x40389, offset: 0x40389, size: 0x8, addend: 0x0, symName: __ZNSt3__117__compressed_pairIfNS_8equal_toINS_12basic_stringIcNS_11char_traitsIcEENS_9allocatorIcEEEEEEE6secondB8ue170006Ev, symObjAddr: 0x7D170, symBinAddr: 0x1000804E4, symSize: 0x24 }
  - { offsetInCU: 0x403AF, offset: 0x403AF, size: 0x8, addend: 0x0, symName: __ZNSt3__122__compressed_pair_elemINS_8equal_toINS_12basic_stringIcNS_11char_traitsIcEENS_9allocatorIcEEEEEELi1ELb1EE5__getB8ue170006Ev, symObjAddr: 0x7D194, symBinAddr: 0x100080508, symSize: 0x14 }
  - { offsetInCU: 0x403D5, offset: 0x403D5, size: 0x8, addend: 0x0, symName: __ZNSt3__116allocator_traitsINS_9allocatorINS_11__hash_nodeINS_12basic_stringIcNS_11char_traitsIcEENS1_IcEEEEPvEEEEE8allocateB8ue170006ERSA_m, symObjAddr: 0x7D1A8, symBinAddr: 0x10008051C, symSize: 0x2C }
  - { offsetInCU: 0x40408, offset: 0x40408, size: 0x8, addend: 0x0, symName: __ZNSt3__122__hash_node_destructorINS_9allocatorINS_11__hash_nodeINS_12basic_stringIcNS_11char_traitsIcEENS1_IcEEEEPvEEEEEC1B8ue170006ERSA_b, symObjAddr: 0x7D1D4, symBinAddr: 0x100080548, symSize: 0x48 }
  - { offsetInCU: 0x40456, offset: 0x40456, size: 0x8, addend: 0x0, symName: __ZNSt3__110unique_ptrINS_11__hash_nodeINS_12basic_stringIcNS_11char_traitsIcEENS_9allocatorIcEEEEPvEENS_22__hash_node_destructorINS5_IS9_EEEEEC1B8ue170006ILb1EvEEPS9_NS_16__dependent_typeINS_27__unique_ptr_deleter_sfinaeISC_EEXT_EE20__good_rval_ref_typeE, symObjAddr: 0x7D21C, symBinAddr: 0x100080590, symSize: 0x3C }
  - { offsetInCU: 0x404A7, offset: 0x404A7, size: 0x8, addend: 0x0, symName: __ZNSt3__116allocator_traitsINS_9allocatorINS_11__hash_nodeINS_12basic_stringIcNS_11char_traitsIcEENS1_IcEEEEPvEEEEE9constructB8ue170006IS7_JRKS7_EvvEEvRSA_PT_DpOT0_, symObjAddr: 0x7D258, symBinAddr: 0x1000805CC, symSize: 0x30 }
  - { offsetInCU: 0x404FC, offset: 0x404FC, size: 0x8, addend: 0x0, symName: __ZNSt3__110unique_ptrINS_11__hash_nodeINS_12basic_stringIcNS_11char_traitsIcEENS_9allocatorIcEEEEPvEENS_22__hash_node_destructorINS5_IS9_EEEEE11get_deleterB8ue170006Ev, symObjAddr: 0x7D288, symBinAddr: 0x1000805FC, symSize: 0x24 }
  - { offsetInCU: 0x40522, offset: 0x40522, size: 0x8, addend: 0x0, symName: __ZNSt3__19allocatorINS_11__hash_nodeINS_12basic_stringIcNS_11char_traitsIcEENS0_IcEEEEPvEEE8allocateB8ue170006Em, symObjAddr: 0x7D2AC, symBinAddr: 0x100080620, symSize: 0x60 }
  - { offsetInCU: 0x40561, offset: 0x40561, size: 0x8, addend: 0x0, symName: __ZNSt3__116allocator_traitsINS_9allocatorINS_11__hash_nodeINS_12basic_stringIcNS_11char_traitsIcEENS1_IcEEEEPvEEEEE8max_sizeB8ue170006ISA_vvEEmRKSA_, symObjAddr: 0x7D30C, symBinAddr: 0x100080680, symSize: 0x28 }
  - { offsetInCU: 0x4058D, offset: 0x4058D, size: 0x8, addend: 0x0, symName: __ZNSt3__122__hash_node_destructorINS_9allocatorINS_11__hash_nodeINS_12basic_stringIcNS_11char_traitsIcEENS1_IcEEEEPvEEEEEC2B8ue170006ERSA_b, symObjAddr: 0x7D334, symBinAddr: 0x1000806A8, symSize: 0xF0 }
  - { offsetInCU: 0x405D5, offset: 0x405D5, size: 0x8, addend: 0x0, symName: __ZNSt3__110unique_ptrINS_11__hash_nodeINS_12basic_stringIcNS_11char_traitsIcEENS_9allocatorIcEEEEPvEENS_22__hash_node_destructorINS5_IS9_EEEEEC2B8ue170006ILb1EvEEPS9_NS_16__dependent_typeINS_27__unique_ptr_deleter_sfinaeISC_EEXT_EE20__good_rval_ref_typeE, symObjAddr: 0x7D424, symBinAddr: 0x100080798, symSize: 0x21C }
  - { offsetInCU: 0x4062C, offset: 0x4062C, size: 0x8, addend: 0x0, symName: __ZNSt3__117__compressed_pairIPNS_11__hash_nodeINS_12basic_stringIcNS_11char_traitsIcEENS_9allocatorIcEEEEPvEENS_22__hash_node_destructorINS5_IS9_EEEEEC1B8ue170006IRSA_SD_EEOT_OT0_, symObjAddr: 0x7D640, symBinAddr: 0x1000809B4, symSize: 0x3C }
  - { offsetInCU: 0x40684, offset: 0x40684, size: 0x8, addend: 0x0, symName: __ZNSt3__117__compressed_pairIPNS_11__hash_nodeINS_12basic_stringIcNS_11char_traitsIcEENS_9allocatorIcEEEEPvEENS_22__hash_node_destructorINS5_IS9_EEEEEC2B8ue170006IRSA_SD_EEOT_OT0_, symObjAddr: 0x7D67C, symBinAddr: 0x1000809F0, symSize: 0x48 }
  - { offsetInCU: 0x406DC, offset: 0x406DC, size: 0x8, addend: 0x0, symName: __ZNSt3__122__compressed_pair_elemIPNS_11__hash_nodeINS_12basic_stringIcNS_11char_traitsIcEENS_9allocatorIcEEEEPvEELi0ELb0EEC2B8ue170006IRSA_vEEOT_, symObjAddr: 0x7D6C4, symBinAddr: 0x100080A38, symSize: 0xB0 }
  - { offsetInCU: 0x4071E, offset: 0x4071E, size: 0x8, addend: 0x0, symName: __ZNSt3__122__compressed_pair_elemINS_22__hash_node_destructorINS_9allocatorINS_11__hash_nodeINS_12basic_stringIcNS_11char_traitsIcEENS2_IcEEEEPvEEEEEELi1ELb0EEC2B8ue170006ISC_vEEOT_, symObjAddr: 0x7D774, symBinAddr: 0x100080AE8, symSize: 0x38 }
  - { offsetInCU: 0x40760, offset: 0x40760, size: 0x8, addend: 0x0, symName: __ZNSt3__117__compressed_pairIPNS_11__hash_nodeINS_12basic_stringIcNS_11char_traitsIcEENS_9allocatorIcEEEEPvEENS_22__hash_node_destructorINS5_IS9_EEEEE6secondB8ue170006Ev, symObjAddr: 0x7D7AC, symBinAddr: 0x100080B20, symSize: 0x28 }
  - { offsetInCU: 0x40786, offset: 0x40786, size: 0x8, addend: 0x0, symName: __ZNSt3__122__compressed_pair_elemINS_22__hash_node_destructorINS_9allocatorINS_11__hash_nodeINS_12basic_stringIcNS_11char_traitsIcEENS2_IcEEEEPvEEEEEELi1ELb0EE5__getB8ue170006Ev, symObjAddr: 0x7D7D4, symBinAddr: 0x100080B48, symSize: 0x14 }
  - { offsetInCU: 0x407AC, offset: 0x407AC, size: 0x8, addend: 0x0, symName: __ZNSt3__117__compressed_pairImNS_4hashINS_12basic_stringIcNS_11char_traitsIcEENS_9allocatorIcEEEEEEE5firstB8ue170006Ev, symObjAddr: 0x7D7E8, symBinAddr: 0x100080B5C, symSize: 0x24 }
  - { offsetInCU: 0x407D2, offset: 0x407D2, size: 0x8, addend: 0x0, symName: __ZNSt3__117__compressed_pairIfNS_8equal_toINS_12basic_stringIcNS_11char_traitsIcEENS_9allocatorIcEEEEEEE5firstB8ue170006Ev, symObjAddr: 0x7D80C, symBinAddr: 0x100080B80, symSize: 0x24 }
  - { offsetInCU: 0x407F8, offset: 0x407F8, size: 0x8, addend: 0x0, symName: __ZNSt3__112__hash_tableINS_12basic_stringIcNS_11char_traitsIcEENS_9allocatorIcEEEENS_4hashIS6_EENS_8equal_toIS6_EENS4_IS6_EEE8__rehashILb1EEEvm, symObjAddr: 0x7D830, symBinAddr: 0x100080BA4, symSize: 0x784 }
  - { offsetInCU: 0x4084E, offset: 0x4084E, size: 0x8, addend: 0x0, symName: __ZNSt3__112__hash_tableINS_12basic_stringIcNS_11char_traitsIcEENS_9allocatorIcEEEENS_4hashIS6_EENS_8equal_toIS6_EENS4_IS6_EEE11__do_rehashILb1EEEvm, symObjAddr: 0x7DFB4, symBinAddr: 0x100081328, symSize: 0x5BC }
  - { offsetInCU: 0x40933, offset: 0x40933, size: 0x8, addend: 0x0, symName: __ZNSt3__110unique_ptrIA_PNS_16__hash_node_baseIPNS_11__hash_nodeINS_12basic_stringIcNS_11char_traitsIcEENS_9allocatorIcEEEEPvEEEENS_25__bucket_list_deallocatorINS6_ISD_EEEEE11get_deleterB8ue170006Ev, symObjAddr: 0x7E570, symBinAddr: 0x1000818E4, symSize: 0x24 }
  - { offsetInCU: 0x40959, offset: 0x40959, size: 0x8, addend: 0x0, symName: __ZNSt3__110unique_ptrIA_PNS_16__hash_node_baseIPNS_11__hash_nodeINS_12basic_stringIcNS_11char_traitsIcEENS_9allocatorIcEEEEPvEEEENS_25__bucket_list_deallocatorINS6_ISD_EEEEE5resetB8ue170006IPSD_EENS_9enable_ifIXsr28_CheckArrayPointerConversionIT_EE5valueEvE4typeESM_, symObjAddr: 0x7E594, symBinAddr: 0x100081908, symSize: 0xEC }
  - { offsetInCU: 0x409A6, offset: 0x409A6, size: 0x8, addend: 0x0, symName: __ZNSt3__116allocator_traitsINS_9allocatorIPNS_16__hash_node_baseIPNS_11__hash_nodeINS_12basic_stringIcNS_11char_traitsIcEENS1_IcEEEEPvEEEEEEE8allocateB8ue170006ERSE_m, symObjAddr: 0x7E680, symBinAddr: 0x1000819F4, symSize: 0x2C }
  - { offsetInCU: 0x409D9, offset: 0x409D9, size: 0x8, addend: 0x0, symName: __ZNSt3__19allocatorIPNS_16__hash_node_baseIPNS_11__hash_nodeINS_12basic_stringIcNS_11char_traitsIcEENS0_IcEEEEPvEEEEE8allocateB8ue170006Em, symObjAddr: 0x7E6AC, symBinAddr: 0x100081A20, symSize: 0x5C }
  - { offsetInCU: 0x40A18, offset: 0x40A18, size: 0x8, addend: 0x0, symName: __ZNSt3__116allocator_traitsINS_9allocatorIPNS_16__hash_node_baseIPNS_11__hash_nodeINS_12basic_stringIcNS_11char_traitsIcEENS1_IcEEEEPvEEEEEEE8max_sizeB8ue170006ISE_vvEEmRKSE_, symObjAddr: 0x7E708, symBinAddr: 0x100081A7C, symSize: 0x28 }
  - { offsetInCU: 0x40A44, offset: 0x40A44, size: 0x8, addend: 0x0, symName: __ZNKSt3__117__compressed_pairIPNS_11__hash_nodeINS_12basic_stringIcNS_11char_traitsIcEENS_9allocatorIcEEEEPvEENS_22__hash_node_destructorINS5_IS9_EEEEE5firstB8ue170006Ev, symObjAddr: 0x7E730, symBinAddr: 0x100081AA4, symSize: 0x24 }
  - { offsetInCU: 0x40A6A, offset: 0x40A6A, size: 0x8, addend: 0x0, symName: __ZNKSt3__122__compressed_pair_elemIPNS_11__hash_nodeINS_12basic_stringIcNS_11char_traitsIcEENS_9allocatorIcEEEEPvEELi0ELb0EE5__getB8ue170006Ev, symObjAddr: 0x7E754, symBinAddr: 0x100081AC8, symSize: 0x14 }
  - { offsetInCU: 0x40A90, offset: 0x40A90, size: 0x8, addend: 0x0, symName: __ZNSt3__117__compressed_pairIPNS_11__hash_nodeINS_12basic_stringIcNS_11char_traitsIcEENS_9allocatorIcEEEEPvEENS_22__hash_node_destructorINS5_IS9_EEEEE5firstB8ue170006Ev, symObjAddr: 0x7E768, symBinAddr: 0x100081ADC, symSize: 0x24 }
  - { offsetInCU: 0x40AB6, offset: 0x40AB6, size: 0x8, addend: 0x0, symName: __ZNSt3__122__compressed_pair_elemIPNS_11__hash_nodeINS_12basic_stringIcNS_11char_traitsIcEENS_9allocatorIcEEEEPvEELi0ELb0EE5__getB8ue170006Ev, symObjAddr: 0x7E78C, symBinAddr: 0x100081B00, symSize: 0x14 }
  - { offsetInCU: 0x40ADC, offset: 0x40ADC, size: 0x8, addend: 0x0, symName: __ZNSt3__110unique_ptrINS_11__hash_nodeINS_12basic_stringIcNS_11char_traitsIcEENS_9allocatorIcEEEEPvEENS_22__hash_node_destructorINS5_IS9_EEEEED2B8ue170006Ev, symObjAddr: 0x7E7A0, symBinAddr: 0x100081B14, symSize: 0x30 }
  - { offsetInCU: 0x40B06, offset: 0x40B06, size: 0x8, addend: 0x0, symName: __ZNSt3__110unique_ptrINS_11__hash_nodeINS_12basic_stringIcNS_11char_traitsIcEENS_9allocatorIcEEEEPvEENS_22__hash_node_destructorINS5_IS9_EEEEE5resetB8ue170006EPS9_, symObjAddr: 0x7E7D0, symBinAddr: 0x100081B44, symSize: 0xEC }
  - { offsetInCU: 0x40B4A, offset: 0x40B4A, size: 0x8, addend: 0x0, symName: __ZNSt3__122__hash_node_destructorINS_9allocatorINS_11__hash_nodeINS_12basic_stringIcNS_11char_traitsIcEENS1_IcEEEEPvEEEEEclB8ue170006EPS9_, symObjAddr: 0x7E8BC, symBinAddr: 0x100081C30, symSize: 0x160 }
  - { offsetInCU: 0x40B7F, offset: 0x40B7F, size: 0x8, addend: 0x0, symName: __ZNSt3__115__hash_iteratorIPNS_11__hash_nodeINS_12basic_stringIcNS_11char_traitsIcEENS_9allocatorIcEEEEPvEEEC2B8ue170006EPNS_16__hash_node_baseISA_EE, symObjAddr: 0x7EA1C, symBinAddr: 0x100081D90, symSize: 0x70 }
  - { offsetInCU: 0x40BB8, offset: 0x40BB8, size: 0x8, addend: 0x0, symName: __ZNSt3__14pairINS_15__hash_iteratorIPNS_11__hash_nodeINS_12basic_stringIcNS_11char_traitsIcEENS_9allocatorIcEEEEPvEEEEbEC2B8ue170006ISC_RbLS9_0EEEOT_OT0_, symObjAddr: 0x7EA8C, symBinAddr: 0x100081E00, symSize: 0x120 }
  - { offsetInCU: 0x40C16, offset: 0x40C16, size: 0x8, addend: 0x0, symName: __ZNSt3__14pairINS_21__hash_const_iteratorIPNS_11__hash_nodeINS_12basic_stringIcNS_11char_traitsIcEENS_9allocatorIcEEEEPvEEEEbEC2B8ue170006INS_15__hash_iteratorISB_EEbLS9_0EEEONS0_IT_T0_EE, symObjAddr: 0x7EBAC, symBinAddr: 0x100081F20, symSize: 0x11C }
  - { offsetInCU: 0x40C67, offset: 0x40C67, size: 0x8, addend: 0x0, symName: __ZNSt3__121__hash_const_iteratorIPNS_11__hash_nodeINS_12basic_stringIcNS_11char_traitsIcEENS_9allocatorIcEEEEPvEEEC1B8ue170006ERKNS_15__hash_iteratorISA_EE, symObjAddr: 0x7ECC8, symBinAddr: 0x10008203C, symSize: 0x34 }
  - { offsetInCU: 0x40CA0, offset: 0x40CA0, size: 0x8, addend: 0x0, symName: __ZNSt3__121__hash_const_iteratorIPNS_11__hash_nodeINS_12basic_stringIcNS_11char_traitsIcEENS_9allocatorIcEEEEPvEEEC2B8ue170006ERKNS_15__hash_iteratorISA_EE, symObjAddr: 0x7ECFC, symBinAddr: 0x100082070, symSize: 0xB0 }
  - { offsetInCU: 0x40CD9, offset: 0x40CD9, size: 0x8, addend: 0x0, symName: __ZNSt3__113unordered_setINS_12basic_stringIcNS_11char_traitsIcEENS_9allocatorIcEEEENS_4hashIS6_EENS_8equal_toIS6_EENS4_IS6_EEEC2INS_11__wrap_iterIPS6_EEEET_SH_, symObjAddr: 0x7EDAC, symBinAddr: 0x100082120, symSize: 0x420 }
  - { offsetInCU: 0x40D35, offset: 0x40D35, size: 0x8, addend: 0x0, symName: __ZNSt3__113unordered_setINS_12basic_stringIcNS_11char_traitsIcEENS_9allocatorIcEEEENS_4hashIS6_EENS_8equal_toIS6_EENS4_IS6_EEE6insertINS_11__wrap_iterIPS6_EEEEvT_SH_, symObjAddr: 0x7F1CC, symBinAddr: 0x100082540, symSize: 0x310 }
  - { offsetInCU: 0x40D8D, offset: 0x40D8D, size: 0x8, addend: 0x0, symName: __ZN14FlashRadixTreeINSt3__112basic_stringIcNS0_11char_traitsIcEENS0_9allocatorIcEEEE4DataL9MatchMode0EEC2Ev, symObjAddr: 0x7F4DC, symBinAddr: 0x100082850, symSize: 0xC0 }
  - { offsetInCU: 0x40DB7, offset: 0x40DB7, size: 0x8, addend: 0x0, symName: __ZN14FlashRadixTreeINSt3__112basic_stringIcNS0_11char_traitsIcEENS0_9allocatorIcEEEE4DataL9MatchMode0EE18FlashRadixTreeNodeC1Ev, symObjAddr: 0x7F59C, symBinAddr: 0x100082910, symSize: 0x2C }
  - { offsetInCU: 0x40DE1, offset: 0x40DE1, size: 0x8, addend: 0x0, symName: __ZN14FlashRadixTreeINSt3__112basic_stringIcNS0_11char_traitsIcEENS0_9allocatorIcEEEE4DataL9MatchMode0EE23XFlashRadixTreeIteratorILNS9_17IteratorDirectionE0EEC1EPNS9_18FlashRadixTreeNodeEPKS9_, symObjAddr: 0x7F5C8, symBinAddr: 0x10008293C, symSize: 0x3C }
  - { offsetInCU: 0x40E27, offset: 0x40E27, size: 0x8, addend: 0x0, symName: __ZN14FlashRadixTreeINSt3__112basic_stringIcNS0_11char_traitsIcEENS0_9allocatorIcEEEE4DataL9MatchMode0EE23XFlashRadixTreeIteratorILNS9_17IteratorDirectionE1EEC1EPNS9_18FlashRadixTreeNodeEPKS9_, symObjAddr: 0x7F604, symBinAddr: 0x100082978, symSize: 0x3C }
  - { offsetInCU: 0x40E6D, offset: 0x40E6D, size: 0x8, addend: 0x0, symName: __ZN14FlashRadixTreeINSt3__112basic_stringIcNS0_11char_traitsIcEENS0_9allocatorIcEEEE4DataL9MatchMode0EE18FlashRadixTreeNodeC2Ev, symObjAddr: 0x7F640, symBinAddr: 0x1000829B4, symSize: 0x1D4 }
  - { offsetInCU: 0x40E97, offset: 0x40E97, size: 0x8, addend: 0x0, symName: __ZN9SplayTreeIcPN14FlashRadixTreeINSt3__112basic_stringIcNS1_11char_traitsIcEENS1_9allocatorIcEEEE4DataL9MatchMode0EE18FlashRadixTreeNodeEEC1Ev, symObjAddr: 0x7F814, symBinAddr: 0x100082B88, symSize: 0x2C }
  - { offsetInCU: 0x40EC1, offset: 0x40EC1, size: 0x8, addend: 0x0, symName: __ZN9SplayTreeIcPN14FlashRadixTreeINSt3__112basic_stringIcNS1_11char_traitsIcEENS1_9allocatorIcEEEE4DataL9MatchMode0EE18FlashRadixTreeNodeEE9XiteratorILNSD_17IteratorDirectionE0EEC1Ev, symObjAddr: 0x7F840, symBinAddr: 0x100082BB4, symSize: 0x2C }
  - { offsetInCU: 0x40EEB, offset: 0x40EEB, size: 0x8, addend: 0x0, symName: __ZN9SplayTreeIcPN14FlashRadixTreeINSt3__112basic_stringIcNS1_11char_traitsIcEENS1_9allocatorIcEEEE4DataL9MatchMode0EE18FlashRadixTreeNodeEEC2Ev, symObjAddr: 0x7F86C, symBinAddr: 0x100082BE0, symSize: 0xC8 }
  - { offsetInCU: 0x40F15, offset: 0x40F15, size: 0x8, addend: 0x0, symName: __ZN9SplayTreeIcPN14FlashRadixTreeINSt3__112basic_stringIcNS1_11char_traitsIcEENS1_9allocatorIcEEEE4DataL9MatchMode0EE18FlashRadixTreeNodeEE9XiteratorILNSD_17IteratorDirectionE0EEC1EPNSD_5splayEPKSD_, symObjAddr: 0x7F934, symBinAddr: 0x100082CA8, symSize: 0x3C }
  - { offsetInCU: 0x40F5B, offset: 0x40F5B, size: 0x8, addend: 0x0, symName: __ZN9SplayTreeIcPN14FlashRadixTreeINSt3__112basic_stringIcNS1_11char_traitsIcEENS1_9allocatorIcEEEE4DataL9MatchMode0EE18FlashRadixTreeNodeEE9XiteratorILNSD_17IteratorDirectionE1EEC1EPNSD_5splayEPKSD_, symObjAddr: 0x7F970, symBinAddr: 0x100082CE4, symSize: 0x3C }
  - { offsetInCU: 0x40FA1, offset: 0x40FA1, size: 0x8, addend: 0x0, symName: __ZN9SplayTreeIcPN14FlashRadixTreeINSt3__112basic_stringIcNS1_11char_traitsIcEENS1_9allocatorIcEEEE4DataL9MatchMode0EE18FlashRadixTreeNodeEE9XiteratorILNSD_17IteratorDirectionE0EEC2EPNSD_5splayEPKSD_, symObjAddr: 0x7F9AC, symBinAddr: 0x100082D20, symSize: 0x1D0 }
  - { offsetInCU: 0x40FE7, offset: 0x40FE7, size: 0x8, addend: 0x0, symName: __ZN9SplayTreeIcPN14FlashRadixTreeINSt3__112basic_stringIcNS1_11char_traitsIcEENS1_9allocatorIcEEEE4DataL9MatchMode0EE18FlashRadixTreeNodeEE9XiteratorILNSD_17IteratorDirectionE1EEC2EPNSD_5splayEPKSD_, symObjAddr: 0x7FB7C, symBinAddr: 0x100082EF0, symSize: 0x1D4 }
  - { offsetInCU: 0x4102D, offset: 0x4102D, size: 0x8, addend: 0x0, symName: __ZN9SplayTreeIcPN14FlashRadixTreeINSt3__112basic_stringIcNS1_11char_traitsIcEENS1_9allocatorIcEEEE4DataL9MatchMode0EE18FlashRadixTreeNodeEE9XiteratorILNSD_17IteratorDirectionE0EEC2Ev, symObjAddr: 0x7FD50, symBinAddr: 0x1000830C4, symSize: 0x15C }
  - { offsetInCU: 0x41057, offset: 0x41057, size: 0x8, addend: 0x0, symName: __ZN14FlashRadixTreeINSt3__112basic_stringIcNS0_11char_traitsIcEENS0_9allocatorIcEEEE4DataL9MatchMode0EE23XFlashRadixTreeIteratorILNS9_17IteratorDirectionE0EEC2EPNS9_18FlashRadixTreeNodeEPKS9_, symObjAddr: 0x7FEAC, symBinAddr: 0x100083220, symSize: 0x1D0 }
  - { offsetInCU: 0x4109D, offset: 0x4109D, size: 0x8, addend: 0x0, symName: __ZN14FlashRadixTreeINSt3__112basic_stringIcNS0_11char_traitsIcEENS0_9allocatorIcEEEE4DataL9MatchMode0EE23XFlashRadixTreeIteratorILNS9_17IteratorDirectionE1EEC2EPNS9_18FlashRadixTreeNodeEPKS9_, symObjAddr: 0x8007C, symBinAddr: 0x1000833F0, symSize: 0x1D4 }
  - { offsetInCU: 0x410E3, offset: 0x410E3, size: 0x8, addend: 0x0, symName: __ZN14FlashRadixTreeINSt3__112basic_stringIcNS0_11char_traitsIcEENS0_9allocatorIcEEEE4DataL9MatchMode0EED2Ev, symObjAddr: 0x80250, symBinAddr: 0x1000835C4, symSize: 0x2C }
  - { offsetInCU: 0x4110D, offset: 0x4110D, size: 0x8, addend: 0x0, symName: __ZN14FlashRadixTreeINSt3__112basic_stringIcNS0_11char_traitsIcEENS0_9allocatorIcEEEE4DataL9MatchMode0EE5clearEv, symObjAddr: 0x8027C, symBinAddr: 0x1000835F0, symSize: 0x100 }
  - { offsetInCU: 0x41133, offset: 0x41133, size: 0x8, addend: 0x0, symName: __ZN14FlashRadixTreeINSt3__112basic_stringIcNS0_11char_traitsIcEENS0_9allocatorIcEEEE4DataL9MatchMode0EE18FlashRadixTreeNode5clearEv, symObjAddr: 0x8037C, symBinAddr: 0x1000836F0, symSize: 0x574 }
  - { offsetInCU: 0x411D4, offset: 0x411D4, size: 0x8, addend: 0x0, symName: __ZNK9SplayTreeIcPN14FlashRadixTreeINSt3__112basic_stringIcNS1_11char_traitsIcEENS1_9allocatorIcEEEE4DataL9MatchMode0EE18FlashRadixTreeNodeEE5beginEv, symObjAddr: 0x808F0, symBinAddr: 0x100083C64, symSize: 0x154 }
  - { offsetInCU: 0x411FA, offset: 0x411FA, size: 0x8, addend: 0x0, symName: __ZNK9SplayTreeIcPN14FlashRadixTreeINSt3__112basic_stringIcNS1_11char_traitsIcEENS1_9allocatorIcEEEE4DataL9MatchMode0EE18FlashRadixTreeNodeEE3endEv, symObjAddr: 0x80A44, symBinAddr: 0x100083DB8, symSize: 0x18 }
  - { offsetInCU: 0x41220, offset: 0x41220, size: 0x8, addend: 0x0, symName: __ZN9SplayTreeIcPN14FlashRadixTreeINSt3__112basic_stringIcNS1_11char_traitsIcEENS1_9allocatorIcEEEE4DataL9MatchMode0EE18FlashRadixTreeNodeEE9XiteratorILNSD_17IteratorDirectionE0EEC1ERKSG_, symObjAddr: 0x80A5C, symBinAddr: 0x100083DD0, symSize: 0x34 }
  - { offsetInCU: 0x41258, offset: 0x41258, size: 0x8, addend: 0x0, symName: __ZNK9SplayTreeIcPN14FlashRadixTreeINSt3__112basic_stringIcNS1_11char_traitsIcEENS1_9allocatorIcEEEE4DataL9MatchMode0EE18FlashRadixTreeNodeEE9XiteratorILNSD_17IteratorDirectionE0EEneERKSG_, symObjAddr: 0x80A90, symBinAddr: 0x100083E04, symSize: 0x310 }
  - { offsetInCU: 0x4128C, offset: 0x4128C, size: 0x8, addend: 0x0, symName: __ZNK9SplayTreeIcPN14FlashRadixTreeINSt3__112basic_stringIcNS1_11char_traitsIcEENS1_9allocatorIcEEEE4DataL9MatchMode0EE18FlashRadixTreeNodeEE9XiteratorILNSD_17IteratorDirectionE0EEdeEv, symObjAddr: 0x80DA0, symBinAddr: 0x100084114, symSize: 0x60 }
  - { offsetInCU: 0x412B2, offset: 0x412B2, size: 0x8, addend: 0x0, symName: __ZN14FlashRadixTreeINSt3__112basic_stringIcNS0_11char_traitsIcEENS0_9allocatorIcEEEE4DataL9MatchMode0EE18FlashRadixTreeNodeD1Ev, symObjAddr: 0x80E00, symBinAddr: 0x100084174, symSize: 0x2C }
  - { offsetInCU: 0x412DC, offset: 0x412DC, size: 0x8, addend: 0x0, symName: __ZN9SplayTreeIcPN14FlashRadixTreeINSt3__112basic_stringIcNS1_11char_traitsIcEENS1_9allocatorIcEEEE4DataL9MatchMode0EE18FlashRadixTreeNodeEE9XiteratorILNSD_17IteratorDirectionE0EEppEv, symObjAddr: 0x80E2C, symBinAddr: 0x1000841A0, symSize: 0xA00 }
  - { offsetInCU: 0x41303, offset: 0x41303, size: 0x8, addend: 0x0, symName: __ZN9SplayTreeIcPN14FlashRadixTreeINSt3__112basic_stringIcNS1_11char_traitsIcEENS1_9allocatorIcEEEE4DataL9MatchMode0EE18FlashRadixTreeNodeEE5clearEv, symObjAddr: 0x8182C, symBinAddr: 0x100084BA0, symSize: 0x36C }
  - { offsetInCU: 0x41330, offset: 0x41330, size: 0x8, addend: 0x0, symName: __ZN4DataaSEOS_, symObjAddr: 0x81B98, symBinAddr: 0x100084F0C, symSize: 0x4C }
  - { offsetInCU: 0x41361, offset: 0x41361, size: 0x8, addend: 0x0, symName: __ZNK9SplayTreeIcPN14FlashRadixTreeINSt3__112basic_stringIcNS1_11char_traitsIcEENS1_9allocatorIcEEEE4DataL9MatchMode0EE18FlashRadixTreeNodeEE19_getMinimumAndSplayEPNSD_5splayE, symObjAddr: 0x81BE4, symBinAddr: 0x100084F58, symSize: 0x264 }
  - { offsetInCU: 0x413A5, offset: 0x413A5, size: 0x8, addend: 0x0, symName: __ZNK9SplayTreeIcPN14FlashRadixTreeINSt3__112basic_stringIcNS1_11char_traitsIcEENS1_9allocatorIcEEEE4DataL9MatchMode0EE18FlashRadixTreeNodeEE10_RR_RotateEPNSD_5splayE, symObjAddr: 0x81E48, symBinAddr: 0x1000851BC, symSize: 0x148 }
  - { offsetInCU: 0x413E9, offset: 0x413E9, size: 0x8, addend: 0x0, symName: __ZN9SplayTreeIcPN14FlashRadixTreeINSt3__112basic_stringIcNS1_11char_traitsIcEENS1_9allocatorIcEEEE4DataL9MatchMode0EE18FlashRadixTreeNodeEE9XiteratorILNSD_17IteratorDirectionE0EEC2ERKSG_, symObjAddr: 0x81F90, symBinAddr: 0x100085304, symSize: 0x270 }
  - { offsetInCU: 0x41421, offset: 0x41421, size: 0x8, addend: 0x0, symName: __ZNK9SplayTreeIcPN14FlashRadixTreeINSt3__112basic_stringIcNS1_11char_traitsIcEENS1_9allocatorIcEEEE4DataL9MatchMode0EE18FlashRadixTreeNodeEE5splayneERKSE_, symObjAddr: 0x82200, symBinAddr: 0x100085574, symSize: 0x34 }
  - { offsetInCU: 0x41455, offset: 0x41455, size: 0x8, addend: 0x0, symName: __ZNK9SplayTreeIcPN14FlashRadixTreeINSt3__112basic_stringIcNS1_11char_traitsIcEENS1_9allocatorIcEEEE4DataL9MatchMode0EE18FlashRadixTreeNodeEE5splayeqERKSE_, symObjAddr: 0x82234, symBinAddr: 0x1000855A8, symSize: 0x100 }
  - { offsetInCU: 0x41489, offset: 0x41489, size: 0x8, addend: 0x0, symName: __ZN14FlashRadixTreeINSt3__112basic_stringIcNS0_11char_traitsIcEENS0_9allocatorIcEEEE4DataL9MatchMode0EE18FlashRadixTreeNodeD2Ev, symObjAddr: 0x82334, symBinAddr: 0x1000856A8, symSize: 0x50 }
  - { offsetInCU: 0x414B3, offset: 0x414B3, size: 0x8, addend: 0x0, symName: __ZN9SplayTreeIcPN14FlashRadixTreeINSt3__112basic_stringIcNS1_11char_traitsIcEENS1_9allocatorIcEEEE4DataL9MatchMode0EE18FlashRadixTreeNodeEED1Ev, symObjAddr: 0x82384, symBinAddr: 0x1000856F8, symSize: 0x2C }
  - { offsetInCU: 0x414DD, offset: 0x414DD, size: 0x8, addend: 0x0, symName: __ZN9SplayTreeIcPN14FlashRadixTreeINSt3__112basic_stringIcNS1_11char_traitsIcEENS1_9allocatorIcEEEE4DataL9MatchMode0EE18FlashRadixTreeNodeEED2Ev, symObjAddr: 0x823B0, symBinAddr: 0x100085724, symSize: 0x2C }
  - { offsetInCU: 0x41507, offset: 0x41507, size: 0x8, addend: 0x0, symName: __ZNK9SplayTreeIcPN14FlashRadixTreeINSt3__112basic_stringIcNS1_11char_traitsIcEENS1_9allocatorIcEEEE4DataL9MatchMode0EE18FlashRadixTreeNodeEE4findEc, symObjAddr: 0x823DC, symBinAddr: 0x100085750, symSize: 0x250 }
  - { offsetInCU: 0x4153C, offset: 0x4153C, size: 0x8, addend: 0x0, symName: __ZNK9SplayTreeIcPN14FlashRadixTreeINSt3__112basic_stringIcNS1_11char_traitsIcEENS1_9allocatorIcEEEE4DataL9MatchMode0EE18FlashRadixTreeNodeEE19_rotateToNextLargerEv, symObjAddr: 0x8262C, symBinAddr: 0x1000859A0, symSize: 0x434 }
  - { offsetInCU: 0x41562, offset: 0x41562, size: 0x8, addend: 0x0, symName: __ZNK9SplayTreeIcPN14FlashRadixTreeINSt3__112basic_stringIcNS1_11char_traitsIcEENS1_9allocatorIcEEEE4DataL9MatchMode0EE18FlashRadixTreeNodeEE20_rotateToNextSmallerEv, symObjAddr: 0x82A60, symBinAddr: 0x100085DD4, symSize: 0x434 }
  - { offsetInCU: 0x41588, offset: 0x41588, size: 0x8, addend: 0x0, symName: __ZNK9SplayTreeIcPN14FlashRadixTreeINSt3__112basic_stringIcNS1_11char_traitsIcEENS1_9allocatorIcEEEE4DataL9MatchMode0EE18FlashRadixTreeNodeEE5_findEcPNSD_5splayE, symObjAddr: 0x82E94, symBinAddr: 0x100086208, symSize: 0x34 }
  - { offsetInCU: 0x415CC, offset: 0x415CC, size: 0x8, addend: 0x0, symName: __ZNK9SplayTreeIcPN14FlashRadixTreeINSt3__112basic_stringIcNS1_11char_traitsIcEENS1_9allocatorIcEEEE4DataL9MatchMode0EE18FlashRadixTreeNodeEE6_splayEcPNSD_5splayE, symObjAddr: 0x82EC8, symBinAddr: 0x10008623C, symSize: 0xD04 }
  - { offsetInCU: 0x4167F, offset: 0x4167F, size: 0x8, addend: 0x0, symName: __ZN9SplayTreeIcPN14FlashRadixTreeINSt3__112basic_stringIcNS1_11char_traitsIcEENS1_9allocatorIcEEEE4DataL9MatchMode0EE18FlashRadixTreeNodeEE5splayC1Ev, symObjAddr: 0x83BCC, symBinAddr: 0x100086F40, symSize: 0x2C }
  - { offsetInCU: 0x416A9, offset: 0x416A9, size: 0x8, addend: 0x0, symName: __ZNK9SplayTreeIcPN14FlashRadixTreeINSt3__112basic_stringIcNS1_11char_traitsIcEENS1_9allocatorIcEEEE4DataL9MatchMode0EE18FlashRadixTreeNodeEE10_LL_RotateEPNSD_5splayE, symObjAddr: 0x83BF8, symBinAddr: 0x100086F6C, symSize: 0x148 }
  - { offsetInCU: 0x416ED, offset: 0x416ED, size: 0x8, addend: 0x0, symName: __ZN9SplayTreeIcPN14FlashRadixTreeINSt3__112basic_stringIcNS1_11char_traitsIcEENS1_9allocatorIcEEEE4DataL9MatchMode0EE18FlashRadixTreeNodeEE5splayC2Ev, symObjAddr: 0x83D40, symBinAddr: 0x1000870B4, symSize: 0xA0 }
  - { offsetInCU: 0x41717, offset: 0x41717, size: 0x8, addend: 0x0, symName: __ZN9SplayTreeIcPN14FlashRadixTreeINSt3__112basic_stringIcNS1_11char_traitsIcEENS1_9allocatorIcEEEE4DataL9MatchMode0EE18FlashRadixTreeNodeEE5eraseEc, symObjAddr: 0x83DE0, symBinAddr: 0x100087154, symSize: 0x164 }
  - { offsetInCU: 0x4174C, offset: 0x4174C, size: 0x8, addend: 0x0, symName: __ZN9SplayTreeIcPN14FlashRadixTreeINSt3__112basic_stringIcNS1_11char_traitsIcEENS1_9allocatorIcEEEE4DataL9MatchMode0EE18FlashRadixTreeNodeEE6_eraseEcPNSD_5splayE, symObjAddr: 0x83F44, symBinAddr: 0x1000872B8, symSize: 0x30C }
  - { offsetInCU: 0x4179F, offset: 0x4179F, size: 0x8, addend: 0x0, symName: __ZN14FlashRadixTreeINSt3__112basic_stringIcNS0_11char_traitsIcEENS0_9allocatorIcEEEE4DataL9MatchMode1EEC2Ev, symObjAddr: 0x84250, symBinAddr: 0x1000875C4, symSize: 0xC0 }
  - { offsetInCU: 0x417C9, offset: 0x417C9, size: 0x8, addend: 0x0, symName: __ZN14FlashRadixTreeINSt3__112basic_stringIcNS0_11char_traitsIcEENS0_9allocatorIcEEEE4DataL9MatchMode1EE18FlashRadixTreeNodeC1Ev, symObjAddr: 0x84310, symBinAddr: 0x100087684, symSize: 0x2C }
  - { offsetInCU: 0x417F3, offset: 0x417F3, size: 0x8, addend: 0x0, symName: __ZN14FlashRadixTreeINSt3__112basic_stringIcNS0_11char_traitsIcEENS0_9allocatorIcEEEE4DataL9MatchMode1EE23XFlashRadixTreeIteratorILNS9_17IteratorDirectionE0EEC1EPNS9_18FlashRadixTreeNodeEPKS9_, symObjAddr: 0x8433C, symBinAddr: 0x1000876B0, symSize: 0x3C }
  - { offsetInCU: 0x41839, offset: 0x41839, size: 0x8, addend: 0x0, symName: __ZN14FlashRadixTreeINSt3__112basic_stringIcNS0_11char_traitsIcEENS0_9allocatorIcEEEE4DataL9MatchMode1EE23XFlashRadixTreeIteratorILNS9_17IteratorDirectionE1EEC1EPNS9_18FlashRadixTreeNodeEPKS9_, symObjAddr: 0x84378, symBinAddr: 0x1000876EC, symSize: 0x3C }
  - { offsetInCU: 0x4187F, offset: 0x4187F, size: 0x8, addend: 0x0, symName: __ZN14FlashRadixTreeINSt3__112basic_stringIcNS0_11char_traitsIcEENS0_9allocatorIcEEEE4DataL9MatchMode1EE18FlashRadixTreeNodeC2Ev, symObjAddr: 0x843B4, symBinAddr: 0x100087728, symSize: 0x1D4 }
  - { offsetInCU: 0x418A9, offset: 0x418A9, size: 0x8, addend: 0x0, symName: __ZN9SplayTreeIcPN14FlashRadixTreeINSt3__112basic_stringIcNS1_11char_traitsIcEENS1_9allocatorIcEEEE4DataL9MatchMode1EE18FlashRadixTreeNodeEEC1Ev, symObjAddr: 0x84588, symBinAddr: 0x1000878FC, symSize: 0x2C }
  - { offsetInCU: 0x418D3, offset: 0x418D3, size: 0x8, addend: 0x0, symName: __ZN9SplayTreeIcPN14FlashRadixTreeINSt3__112basic_stringIcNS1_11char_traitsIcEENS1_9allocatorIcEEEE4DataL9MatchMode1EE18FlashRadixTreeNodeEE9XiteratorILNSD_17IteratorDirectionE0EEC1Ev, symObjAddr: 0x845B4, symBinAddr: 0x100087928, symSize: 0x2C }
  - { offsetInCU: 0x418FD, offset: 0x418FD, size: 0x8, addend: 0x0, symName: __ZN9SplayTreeIcPN14FlashRadixTreeINSt3__112basic_stringIcNS1_11char_traitsIcEENS1_9allocatorIcEEEE4DataL9MatchMode1EE18FlashRadixTreeNodeEEC2Ev, symObjAddr: 0x845E0, symBinAddr: 0x100087954, symSize: 0xC8 }
  - { offsetInCU: 0x41927, offset: 0x41927, size: 0x8, addend: 0x0, symName: __ZN9SplayTreeIcPN14FlashRadixTreeINSt3__112basic_stringIcNS1_11char_traitsIcEENS1_9allocatorIcEEEE4DataL9MatchMode1EE18FlashRadixTreeNodeEE9XiteratorILNSD_17IteratorDirectionE0EEC1EPNSD_5splayEPKSD_, symObjAddr: 0x846A8, symBinAddr: 0x100087A1C, symSize: 0x3C }
  - { offsetInCU: 0x4196D, offset: 0x4196D, size: 0x8, addend: 0x0, symName: __ZN9SplayTreeIcPN14FlashRadixTreeINSt3__112basic_stringIcNS1_11char_traitsIcEENS1_9allocatorIcEEEE4DataL9MatchMode1EE18FlashRadixTreeNodeEE9XiteratorILNSD_17IteratorDirectionE1EEC1EPNSD_5splayEPKSD_, symObjAddr: 0x846E4, symBinAddr: 0x100087A58, symSize: 0x3C }
  - { offsetInCU: 0x419B3, offset: 0x419B3, size: 0x8, addend: 0x0, symName: __ZN9SplayTreeIcPN14FlashRadixTreeINSt3__112basic_stringIcNS1_11char_traitsIcEENS1_9allocatorIcEEEE4DataL9MatchMode1EE18FlashRadixTreeNodeEE9XiteratorILNSD_17IteratorDirectionE0EEC2EPNSD_5splayEPKSD_, symObjAddr: 0x84720, symBinAddr: 0x100087A94, symSize: 0x1D0 }
  - { offsetInCU: 0x419F9, offset: 0x419F9, size: 0x8, addend: 0x0, symName: __ZN9SplayTreeIcPN14FlashRadixTreeINSt3__112basic_stringIcNS1_11char_traitsIcEENS1_9allocatorIcEEEE4DataL9MatchMode1EE18FlashRadixTreeNodeEE9XiteratorILNSD_17IteratorDirectionE1EEC2EPNSD_5splayEPKSD_, symObjAddr: 0x848F0, symBinAddr: 0x100087C64, symSize: 0x1D4 }
  - { offsetInCU: 0x41A3F, offset: 0x41A3F, size: 0x8, addend: 0x0, symName: __ZN9SplayTreeIcPN14FlashRadixTreeINSt3__112basic_stringIcNS1_11char_traitsIcEENS1_9allocatorIcEEEE4DataL9MatchMode1EE18FlashRadixTreeNodeEE9XiteratorILNSD_17IteratorDirectionE0EEC2Ev, symObjAddr: 0x84AC4, symBinAddr: 0x100087E38, symSize: 0x15C }
  - { offsetInCU: 0x41A69, offset: 0x41A69, size: 0x8, addend: 0x0, symName: __ZN14FlashRadixTreeINSt3__112basic_stringIcNS0_11char_traitsIcEENS0_9allocatorIcEEEE4DataL9MatchMode1EE23XFlashRadixTreeIteratorILNS9_17IteratorDirectionE0EEC2EPNS9_18FlashRadixTreeNodeEPKS9_, symObjAddr: 0x84C20, symBinAddr: 0x100087F94, symSize: 0x1D0 }
  - { offsetInCU: 0x41AAF, offset: 0x41AAF, size: 0x8, addend: 0x0, symName: __ZN14FlashRadixTreeINSt3__112basic_stringIcNS0_11char_traitsIcEENS0_9allocatorIcEEEE4DataL9MatchMode1EE23XFlashRadixTreeIteratorILNS9_17IteratorDirectionE1EEC2EPNS9_18FlashRadixTreeNodeEPKS9_, symObjAddr: 0x84DF0, symBinAddr: 0x100088164, symSize: 0x1D4 }
  - { offsetInCU: 0x41AF5, offset: 0x41AF5, size: 0x8, addend: 0x0, symName: __ZN14FlashRadixTreeINSt3__112basic_stringIcNS0_11char_traitsIcEENS0_9allocatorIcEEEE4DataL9MatchMode1EED2Ev, symObjAddr: 0x84FC4, symBinAddr: 0x100088338, symSize: 0x2C }
  - { offsetInCU: 0x41B1F, offset: 0x41B1F, size: 0x8, addend: 0x0, symName: __ZN14FlashRadixTreeINSt3__112basic_stringIcNS0_11char_traitsIcEENS0_9allocatorIcEEEE4DataL9MatchMode1EE5clearEv, symObjAddr: 0x84FF0, symBinAddr: 0x100088364, symSize: 0x100 }
  - { offsetInCU: 0x41B45, offset: 0x41B45, size: 0x8, addend: 0x0, symName: __ZN14FlashRadixTreeINSt3__112basic_stringIcNS0_11char_traitsIcEENS0_9allocatorIcEEEE4DataL9MatchMode1EE18FlashRadixTreeNode5clearEv, symObjAddr: 0x850F0, symBinAddr: 0x100088464, symSize: 0x574 }
  - { offsetInCU: 0x41BE6, offset: 0x41BE6, size: 0x8, addend: 0x0, symName: __ZNK9SplayTreeIcPN14FlashRadixTreeINSt3__112basic_stringIcNS1_11char_traitsIcEENS1_9allocatorIcEEEE4DataL9MatchMode1EE18FlashRadixTreeNodeEE5beginEv, symObjAddr: 0x85664, symBinAddr: 0x1000889D8, symSize: 0x154 }
  - { offsetInCU: 0x41C0C, offset: 0x41C0C, size: 0x8, addend: 0x0, symName: __ZNK9SplayTreeIcPN14FlashRadixTreeINSt3__112basic_stringIcNS1_11char_traitsIcEENS1_9allocatorIcEEEE4DataL9MatchMode1EE18FlashRadixTreeNodeEE3endEv, symObjAddr: 0x857B8, symBinAddr: 0x100088B2C, symSize: 0x18 }
  - { offsetInCU: 0x41C32, offset: 0x41C32, size: 0x8, addend: 0x0, symName: __ZN9SplayTreeIcPN14FlashRadixTreeINSt3__112basic_stringIcNS1_11char_traitsIcEENS1_9allocatorIcEEEE4DataL9MatchMode1EE18FlashRadixTreeNodeEE9XiteratorILNSD_17IteratorDirectionE0EEC1ERKSG_, symObjAddr: 0x857D0, symBinAddr: 0x100088B44, symSize: 0x34 }
  - { offsetInCU: 0x41C6A, offset: 0x41C6A, size: 0x8, addend: 0x0, symName: __ZNK9SplayTreeIcPN14FlashRadixTreeINSt3__112basic_stringIcNS1_11char_traitsIcEENS1_9allocatorIcEEEE4DataL9MatchMode1EE18FlashRadixTreeNodeEE9XiteratorILNSD_17IteratorDirectionE0EEneERKSG_, symObjAddr: 0x85804, symBinAddr: 0x100088B78, symSize: 0x310 }
  - { offsetInCU: 0x41C9E, offset: 0x41C9E, size: 0x8, addend: 0x0, symName: __ZNK9SplayTreeIcPN14FlashRadixTreeINSt3__112basic_stringIcNS1_11char_traitsIcEENS1_9allocatorIcEEEE4DataL9MatchMode1EE18FlashRadixTreeNodeEE9XiteratorILNSD_17IteratorDirectionE0EEdeEv, symObjAddr: 0x85B14, symBinAddr: 0x100088E88, symSize: 0x60 }
  - { offsetInCU: 0x41CC4, offset: 0x41CC4, size: 0x8, addend: 0x0, symName: __ZN14FlashRadixTreeINSt3__112basic_stringIcNS0_11char_traitsIcEENS0_9allocatorIcEEEE4DataL9MatchMode1EE18FlashRadixTreeNodeD1Ev, symObjAddr: 0x85B74, symBinAddr: 0x100088EE8, symSize: 0x2C }
  - { offsetInCU: 0x41CEE, offset: 0x41CEE, size: 0x8, addend: 0x0, symName: __ZN9SplayTreeIcPN14FlashRadixTreeINSt3__112basic_stringIcNS1_11char_traitsIcEENS1_9allocatorIcEEEE4DataL9MatchMode1EE18FlashRadixTreeNodeEE9XiteratorILNSD_17IteratorDirectionE0EEppEv, symObjAddr: 0x85BA0, symBinAddr: 0x100088F14, symSize: 0xA00 }
  - { offsetInCU: 0x41D15, offset: 0x41D15, size: 0x8, addend: 0x0, symName: __ZN9SplayTreeIcPN14FlashRadixTreeINSt3__112basic_stringIcNS1_11char_traitsIcEENS1_9allocatorIcEEEE4DataL9MatchMode1EE18FlashRadixTreeNodeEE5clearEv, symObjAddr: 0x865A0, symBinAddr: 0x100089914, symSize: 0x36C }
  - { offsetInCU: 0x41D3C, offset: 0x41D3C, size: 0x8, addend: 0x0, symName: __ZNK9SplayTreeIcPN14FlashRadixTreeINSt3__112basic_stringIcNS1_11char_traitsIcEENS1_9allocatorIcEEEE4DataL9MatchMode1EE18FlashRadixTreeNodeEE19_getMinimumAndSplayEPNSD_5splayE, symObjAddr: 0x8690C, symBinAddr: 0x100089C80, symSize: 0x264 }
  - { offsetInCU: 0x41D80, offset: 0x41D80, size: 0x8, addend: 0x0, symName: __ZNK9SplayTreeIcPN14FlashRadixTreeINSt3__112basic_stringIcNS1_11char_traitsIcEENS1_9allocatorIcEEEE4DataL9MatchMode1EE18FlashRadixTreeNodeEE10_RR_RotateEPNSD_5splayE, symObjAddr: 0x86B70, symBinAddr: 0x100089EE4, symSize: 0x148 }
  - { offsetInCU: 0x41DC4, offset: 0x41DC4, size: 0x8, addend: 0x0, symName: __ZN9SplayTreeIcPN14FlashRadixTreeINSt3__112basic_stringIcNS1_11char_traitsIcEENS1_9allocatorIcEEEE4DataL9MatchMode1EE18FlashRadixTreeNodeEE9XiteratorILNSD_17IteratorDirectionE0EEC2ERKSG_, symObjAddr: 0x86CB8, symBinAddr: 0x10008A02C, symSize: 0x270 }
  - { offsetInCU: 0x41DFC, offset: 0x41DFC, size: 0x8, addend: 0x0, symName: __ZNK9SplayTreeIcPN14FlashRadixTreeINSt3__112basic_stringIcNS1_11char_traitsIcEENS1_9allocatorIcEEEE4DataL9MatchMode1EE18FlashRadixTreeNodeEE5splayneERKSE_, symObjAddr: 0x86F28, symBinAddr: 0x10008A29C, symSize: 0x34 }
  - { offsetInCU: 0x41E30, offset: 0x41E30, size: 0x8, addend: 0x0, symName: __ZNK9SplayTreeIcPN14FlashRadixTreeINSt3__112basic_stringIcNS1_11char_traitsIcEENS1_9allocatorIcEEEE4DataL9MatchMode1EE18FlashRadixTreeNodeEE5splayeqERKSE_, symObjAddr: 0x86F5C, symBinAddr: 0x10008A2D0, symSize: 0x100 }
  - { offsetInCU: 0x41E64, offset: 0x41E64, size: 0x8, addend: 0x0, symName: __ZN14FlashRadixTreeINSt3__112basic_stringIcNS0_11char_traitsIcEENS0_9allocatorIcEEEE4DataL9MatchMode1EE18FlashRadixTreeNodeD2Ev, symObjAddr: 0x8705C, symBinAddr: 0x10008A3D0, symSize: 0x50 }
  - { offsetInCU: 0x41E8E, offset: 0x41E8E, size: 0x8, addend: 0x0, symName: __ZN9SplayTreeIcPN14FlashRadixTreeINSt3__112basic_stringIcNS1_11char_traitsIcEENS1_9allocatorIcEEEE4DataL9MatchMode1EE18FlashRadixTreeNodeEED1Ev, symObjAddr: 0x870AC, symBinAddr: 0x10008A420, symSize: 0x2C }
  - { offsetInCU: 0x41EB8, offset: 0x41EB8, size: 0x8, addend: 0x0, symName: __ZN9SplayTreeIcPN14FlashRadixTreeINSt3__112basic_stringIcNS1_11char_traitsIcEENS1_9allocatorIcEEEE4DataL9MatchMode1EE18FlashRadixTreeNodeEED2Ev, symObjAddr: 0x870D8, symBinAddr: 0x10008A44C, symSize: 0x2C }
  - { offsetInCU: 0x41EE2, offset: 0x41EE2, size: 0x8, addend: 0x0, symName: __ZNK9SplayTreeIcPN14FlashRadixTreeINSt3__112basic_stringIcNS1_11char_traitsIcEENS1_9allocatorIcEEEE4DataL9MatchMode1EE18FlashRadixTreeNodeEE4findEc, symObjAddr: 0x87104, symBinAddr: 0x10008A478, symSize: 0x250 }
  - { offsetInCU: 0x41F17, offset: 0x41F17, size: 0x8, addend: 0x0, symName: __ZNK9SplayTreeIcPN14FlashRadixTreeINSt3__112basic_stringIcNS1_11char_traitsIcEENS1_9allocatorIcEEEE4DataL9MatchMode1EE18FlashRadixTreeNodeEE19_rotateToNextLargerEv, symObjAddr: 0x87354, symBinAddr: 0x10008A6C8, symSize: 0x434 }
  - { offsetInCU: 0x41F3D, offset: 0x41F3D, size: 0x8, addend: 0x0, symName: __ZNK9SplayTreeIcPN14FlashRadixTreeINSt3__112basic_stringIcNS1_11char_traitsIcEENS1_9allocatorIcEEEE4DataL9MatchMode1EE18FlashRadixTreeNodeEE20_rotateToNextSmallerEv, symObjAddr: 0x87788, symBinAddr: 0x10008AAFC, symSize: 0x434 }
  - { offsetInCU: 0x41F63, offset: 0x41F63, size: 0x8, addend: 0x0, symName: __ZNK9SplayTreeIcPN14FlashRadixTreeINSt3__112basic_stringIcNS1_11char_traitsIcEENS1_9allocatorIcEEEE4DataL9MatchMode1EE18FlashRadixTreeNodeEE5_findEcPNSD_5splayE, symObjAddr: 0x87BBC, symBinAddr: 0x10008AF30, symSize: 0x34 }
  - { offsetInCU: 0x41FA7, offset: 0x41FA7, size: 0x8, addend: 0x0, symName: __ZNK9SplayTreeIcPN14FlashRadixTreeINSt3__112basic_stringIcNS1_11char_traitsIcEENS1_9allocatorIcEEEE4DataL9MatchMode1EE18FlashRadixTreeNodeEE6_splayEcPNSD_5splayE, symObjAddr: 0x87BF0, symBinAddr: 0x10008AF64, symSize: 0xD04 }
  - { offsetInCU: 0x4205A, offset: 0x4205A, size: 0x8, addend: 0x0, symName: __ZN9SplayTreeIcPN14FlashRadixTreeINSt3__112basic_stringIcNS1_11char_traitsIcEENS1_9allocatorIcEEEE4DataL9MatchMode1EE18FlashRadixTreeNodeEE5splayC1Ev, symObjAddr: 0x888F4, symBinAddr: 0x10008BC68, symSize: 0x2C }
  - { offsetInCU: 0x42084, offset: 0x42084, size: 0x8, addend: 0x0, symName: __ZNK9SplayTreeIcPN14FlashRadixTreeINSt3__112basic_stringIcNS1_11char_traitsIcEENS1_9allocatorIcEEEE4DataL9MatchMode1EE18FlashRadixTreeNodeEE10_LL_RotateEPNSD_5splayE, symObjAddr: 0x88920, symBinAddr: 0x10008BC94, symSize: 0x148 }
  - { offsetInCU: 0x420C8, offset: 0x420C8, size: 0x8, addend: 0x0, symName: __ZN9SplayTreeIcPN14FlashRadixTreeINSt3__112basic_stringIcNS1_11char_traitsIcEENS1_9allocatorIcEEEE4DataL9MatchMode1EE18FlashRadixTreeNodeEE5splayC2Ev, symObjAddr: 0x88A68, symBinAddr: 0x10008BDDC, symSize: 0xA0 }
  - { offsetInCU: 0x420F2, offset: 0x420F2, size: 0x8, addend: 0x0, symName: __ZN9SplayTreeIcPN14FlashRadixTreeINSt3__112basic_stringIcNS1_11char_traitsIcEENS1_9allocatorIcEEEE4DataL9MatchMode1EE18FlashRadixTreeNodeEE5eraseEc, symObjAddr: 0x88B08, symBinAddr: 0x10008BE7C, symSize: 0x164 }
  - { offsetInCU: 0x42127, offset: 0x42127, size: 0x8, addend: 0x0, symName: __ZN9SplayTreeIcPN14FlashRadixTreeINSt3__112basic_stringIcNS1_11char_traitsIcEENS1_9allocatorIcEEEE4DataL9MatchMode1EE18FlashRadixTreeNodeEE6_eraseEcPNSD_5splayE, symObjAddr: 0x88C6C, symBinAddr: 0x10008BFE0, symSize: 0x30C }
  - { offsetInCU: 0x4217A, offset: 0x4217A, size: 0x8, addend: 0x0, symName: __ZNSt3__113unordered_mapINS_12basic_stringIcNS_11char_traitsIcEENS_9allocatorIcEEEE4DataNS_4hashIS6_EENS_8equal_toIS6_EENS4_INS_4pairIKS6_S7_EEEEEC2B8ue170006Ev, symObjAddr: 0x88F78, symBinAddr: 0x10008C2EC, symSize: 0x2C }
  - { offsetInCU: 0x421A4, offset: 0x421A4, size: 0x8, addend: 0x0, symName: __ZNSt3__112__hash_tableINS_17__hash_value_typeINS_12basic_stringIcNS_11char_traitsIcEENS_9allocatorIcEEEE4DataEENS_22__unordered_map_hasherIS7_S9_NS_4hashIS7_EENS_8equal_toIS7_EELb1EEENS_21__unordered_map_equalIS7_S9_SE_SC_Lb1EEENS5_IS9_EEEC1Ev, symObjAddr: 0x88FA4, symBinAddr: 0x10008C318, symSize: 0x2C }
  - { offsetInCU: 0x421D0, offset: 0x421D0, size: 0x8, addend: 0x0, symName: __ZNSt3__112__hash_tableINS_17__hash_value_typeINS_12basic_stringIcNS_11char_traitsIcEENS_9allocatorIcEEEE4DataEENS_22__unordered_map_hasherIS7_S9_NS_4hashIS7_EENS_8equal_toIS7_EELb1EEENS_21__unordered_map_equalIS7_S9_SE_SC_Lb1EEENS5_IS9_EEEC2Ev, symObjAddr: 0x88FD0, symBinAddr: 0x10008C344, symSize: 0x38C }
  - { offsetInCU: 0x421FD, offset: 0x421FD, size: 0x8, addend: 0x0, symName: __ZNSt3__110unique_ptrIA_PNS_16__hash_node_baseIPNS_11__hash_nodeINS_17__hash_value_typeINS_12basic_stringIcNS_11char_traitsIcEENS_9allocatorIcEEEE4DataEEPvEEEENS_25__bucket_list_deallocatorINS7_ISG_EEEEEC1B8ue170006ILb1EvEEv, symObjAddr: 0x8935C, symBinAddr: 0x10008C6D0, symSize: 0x2C }
  - { offsetInCU: 0x42232, offset: 0x42232, size: 0x8, addend: 0x0, symName: __ZNSt3__117__compressed_pairINS_16__hash_node_baseIPNS_11__hash_nodeINS_17__hash_value_typeINS_12basic_stringIcNS_11char_traitsIcEENS_9allocatorIcEEEE4DataEEPvEEEENS7_ISD_EEEC1B8ue170006ILb1EvEEv, symObjAddr: 0x89388, symBinAddr: 0x10008C6FC, symSize: 0x2C }
  - { offsetInCU: 0x42267, offset: 0x42267, size: 0x8, addend: 0x0, symName: __ZNSt3__117__compressed_pairImNS_22__unordered_map_hasherINS_12basic_stringIcNS_11char_traitsIcEENS_9allocatorIcEEEENS_17__hash_value_typeIS7_4DataEENS_4hashIS7_EENS_8equal_toIS7_EELb1EEEEC1B8ue170006IiNS_18__default_init_tagEEEOT_OT0_, symObjAddr: 0x893B4, symBinAddr: 0x10008C728, symSize: 0x3C }
  - { offsetInCU: 0x422BF, offset: 0x422BF, size: 0x8, addend: 0x0, symName: __ZNSt3__117__compressed_pairIfNS_21__unordered_map_equalINS_12basic_stringIcNS_11char_traitsIcEENS_9allocatorIcEEEENS_17__hash_value_typeIS7_4DataEENS_8equal_toIS7_EENS_4hashIS7_EELb1EEEEC1B8ue170006IfNS_18__default_init_tagEEEOT_OT0_, symObjAddr: 0x893F0, symBinAddr: 0x10008C764, symSize: 0x3C }
  - { offsetInCU: 0x42317, offset: 0x42317, size: 0x8, addend: 0x0, symName: __ZNSt3__110unique_ptrIA_PNS_16__hash_node_baseIPNS_11__hash_nodeINS_17__hash_value_typeINS_12basic_stringIcNS_11char_traitsIcEENS_9allocatorIcEEEE4DataEEPvEEEENS_25__bucket_list_deallocatorINS7_ISG_EEEEEC2B8ue170006ILb1EvEEv, symObjAddr: 0x8942C, symBinAddr: 0x10008C7A0, symSize: 0x200 }
  - { offsetInCU: 0x4234D, offset: 0x4234D, size: 0x8, addend: 0x0, symName: __ZNSt3__117__compressed_pairIPPNS_16__hash_node_baseIPNS_11__hash_nodeINS_17__hash_value_typeINS_12basic_stringIcNS_11char_traitsIcEENS_9allocatorIcEEEE4DataEEPvEEEENS_25__bucket_list_deallocatorINS7_ISG_EEEEEC1B8ue170006INS_16__value_init_tagESN_EEOT_OT0_, symObjAddr: 0x8962C, symBinAddr: 0x10008C9A0, symSize: 0x3C }
  - { offsetInCU: 0x423A5, offset: 0x423A5, size: 0x8, addend: 0x0, symName: __ZNSt3__117__compressed_pairIPPNS_16__hash_node_baseIPNS_11__hash_nodeINS_17__hash_value_typeINS_12basic_stringIcNS_11char_traitsIcEENS_9allocatorIcEEEE4DataEEPvEEEENS_25__bucket_list_deallocatorINS7_ISG_EEEEEC2B8ue170006INS_16__value_init_tagESN_EEOT_OT0_, symObjAddr: 0x89668, symBinAddr: 0x10008C9DC, symSize: 0x40 }
  - { offsetInCU: 0x423FD, offset: 0x423FD, size: 0x8, addend: 0x0, symName: __ZNSt3__122__compressed_pair_elemIPPNS_16__hash_node_baseIPNS_11__hash_nodeINS_17__hash_value_typeINS_12basic_stringIcNS_11char_traitsIcEENS_9allocatorIcEEEE4DataEEPvEEEELi0ELb0EEC2B8ue170006ENS_16__value_init_tagE, symObjAddr: 0x896A8, symBinAddr: 0x10008CA1C, symSize: 0x60 }
  - { offsetInCU: 0x42432, offset: 0x42432, size: 0x8, addend: 0x0, symName: __ZNSt3__122__compressed_pair_elemINS_25__bucket_list_deallocatorINS_9allocatorIPNS_16__hash_node_baseIPNS_11__hash_nodeINS_17__hash_value_typeINS_12basic_stringIcNS_11char_traitsIcEENS2_IcEEEE4DataEEPvEEEEEEEELi1ELb0EEC2B8ue170006ENS_16__value_init_tagE, symObjAddr: 0x89708, symBinAddr: 0x10008CA7C, symSize: 0x2C }
  - { offsetInCU: 0x42467, offset: 0x42467, size: 0x8, addend: 0x0, symName: __ZNSt3__125__bucket_list_deallocatorINS_9allocatorIPNS_16__hash_node_baseIPNS_11__hash_nodeINS_17__hash_value_typeINS_12basic_stringIcNS_11char_traitsIcEENS1_IcEEEE4DataEEPvEEEEEEEC1B8ue170006Ev, symObjAddr: 0x89734, symBinAddr: 0x10008CAA8, symSize: 0x2C }
  - { offsetInCU: 0x42491, offset: 0x42491, size: 0x8, addend: 0x0, symName: __ZNSt3__125__bucket_list_deallocatorINS_9allocatorIPNS_16__hash_node_baseIPNS_11__hash_nodeINS_17__hash_value_typeINS_12basic_stringIcNS_11char_traitsIcEENS1_IcEEEE4DataEEPvEEEEEEEC2B8ue170006Ev, symObjAddr: 0x89760, symBinAddr: 0x10008CAD4, symSize: 0x270 }
  - { offsetInCU: 0x424BC, offset: 0x424BC, size: 0x8, addend: 0x0, symName: __ZNSt3__117__compressed_pairImNS_9allocatorIPNS_16__hash_node_baseIPNS_11__hash_nodeINS_17__hash_value_typeINS_12basic_stringIcNS_11char_traitsIcEENS1_IcEEEE4DataEEPvEEEEEEEC1B8ue170006IiNS_18__default_init_tagEEEOT_OT0_, symObjAddr: 0x899D0, symBinAddr: 0x10008CD44, symSize: 0x3C }
  - { offsetInCU: 0x42514, offset: 0x42514, size: 0x8, addend: 0x0, symName: __ZNSt3__117__compressed_pairImNS_9allocatorIPNS_16__hash_node_baseIPNS_11__hash_nodeINS_17__hash_value_typeINS_12basic_stringIcNS_11char_traitsIcEENS1_IcEEEE4DataEEPvEEEEEEEC2B8ue170006IiNS_18__default_init_tagEEEOT_OT0_, symObjAddr: 0x89A0C, symBinAddr: 0x10008CD80, symSize: 0x40 }
  - { offsetInCU: 0x4256C, offset: 0x4256C, size: 0x8, addend: 0x0, symName: __ZNSt3__122__compressed_pair_elemINS_9allocatorIPNS_16__hash_node_baseIPNS_11__hash_nodeINS_17__hash_value_typeINS_12basic_stringIcNS_11char_traitsIcEENS1_IcEEEE4DataEEPvEEEEEELi1ELb1EEC2B8ue170006ENS_18__default_init_tagE, symObjAddr: 0x89A4C, symBinAddr: 0x10008CDC0, symSize: 0x2C }
  - { offsetInCU: 0x425A1, offset: 0x425A1, size: 0x8, addend: 0x0, symName: __ZNSt3__19allocatorIPNS_16__hash_node_baseIPNS_11__hash_nodeINS_17__hash_value_typeINS_12basic_stringIcNS_11char_traitsIcEENS0_IcEEEE4DataEEPvEEEEEC2B8ue170006Ev, symObjAddr: 0x89A78, symBinAddr: 0x10008CDEC, symSize: 0x2C }
  - { offsetInCU: 0x425CB, offset: 0x425CB, size: 0x8, addend: 0x0, symName: __ZNSt3__116__non_trivial_ifILb1ENS_9allocatorIPNS_16__hash_node_baseIPNS_11__hash_nodeINS_17__hash_value_typeINS_12basic_stringIcNS_11char_traitsIcEENS1_IcEEEE4DataEEPvEEEEEEEC2B8ue170006Ev, symObjAddr: 0x89AA4, symBinAddr: 0x10008CE18, symSize: 0x14 }
  - { offsetInCU: 0x425F5, offset: 0x425F5, size: 0x8, addend: 0x0, symName: __ZNSt3__117__compressed_pairINS_16__hash_node_baseIPNS_11__hash_nodeINS_17__hash_value_typeINS_12basic_stringIcNS_11char_traitsIcEENS_9allocatorIcEEEE4DataEEPvEEEENS7_ISD_EEEC2B8ue170006ILb1EvEEv, symObjAddr: 0x89AB8, symBinAddr: 0x10008CE2C, symSize: 0x34 }
  - { offsetInCU: 0x4262A, offset: 0x4262A, size: 0x8, addend: 0x0, symName: __ZNSt3__122__compressed_pair_elemINS_16__hash_node_baseIPNS_11__hash_nodeINS_17__hash_value_typeINS_12basic_stringIcNS_11char_traitsIcEENS_9allocatorIcEEEE4DataEEPvEEEELi0ELb0EEC2B8ue170006ENS_16__value_init_tagE, symObjAddr: 0x89AEC, symBinAddr: 0x10008CE60, symSize: 0x2C }
  - { offsetInCU: 0x4265F, offset: 0x4265F, size: 0x8, addend: 0x0, symName: __ZNSt3__122__compressed_pair_elemINS_9allocatorINS_11__hash_nodeINS_17__hash_value_typeINS_12basic_stringIcNS_11char_traitsIcEENS1_IcEEEE4DataEEPvEEEELi1ELb1EEC2B8ue170006ENS_16__value_init_tagE, symObjAddr: 0x89B18, symBinAddr: 0x10008CE8C, symSize: 0x2C }
  - { offsetInCU: 0x42694, offset: 0x42694, size: 0x8, addend: 0x0, symName: __ZNSt3__116__hash_node_baseIPNS_11__hash_nodeINS_17__hash_value_typeINS_12basic_stringIcNS_11char_traitsIcEENS_9allocatorIcEEEE4DataEEPvEEEC1B8ue170006Ev, symObjAddr: 0x89B44, symBinAddr: 0x10008CEB8, symSize: 0x2C }
  - { offsetInCU: 0x426BE, offset: 0x426BE, size: 0x8, addend: 0x0, symName: __ZNSt3__116__hash_node_baseIPNS_11__hash_nodeINS_17__hash_value_typeINS_12basic_stringIcNS_11char_traitsIcEENS_9allocatorIcEEEE4DataEEPvEEEC2B8ue170006Ev, symObjAddr: 0x89B70, symBinAddr: 0x10008CEE4, symSize: 0x60 }
  - { offsetInCU: 0x426E8, offset: 0x426E8, size: 0x8, addend: 0x0, symName: __ZNSt3__19allocatorINS_11__hash_nodeINS_17__hash_value_typeINS_12basic_stringIcNS_11char_traitsIcEENS0_IcEEEE4DataEEPvEEEC2B8ue170006Ev, symObjAddr: 0x89BD0, symBinAddr: 0x10008CF44, symSize: 0x2C }
  - { offsetInCU: 0x42712, offset: 0x42712, size: 0x8, addend: 0x0, symName: __ZNSt3__116__non_trivial_ifILb1ENS_9allocatorINS_11__hash_nodeINS_17__hash_value_typeINS_12basic_stringIcNS_11char_traitsIcEENS1_IcEEEE4DataEEPvEEEEEC2B8ue170006Ev, symObjAddr: 0x89BFC, symBinAddr: 0x10008CF70, symSize: 0x14 }
  - { offsetInCU: 0x4273C, offset: 0x4273C, size: 0x8, addend: 0x0, symName: __ZNSt3__117__compressed_pairImNS_22__unordered_map_hasherINS_12basic_stringIcNS_11char_traitsIcEENS_9allocatorIcEEEENS_17__hash_value_typeIS7_4DataEENS_4hashIS7_EENS_8equal_toIS7_EELb1EEEEC2B8ue170006IiNS_18__default_init_tagEEEOT_OT0_, symObjAddr: 0x89C10, symBinAddr: 0x10008CF84, symSize: 0x40 }
  - { offsetInCU: 0x42794, offset: 0x42794, size: 0x8, addend: 0x0, symName: __ZNSt3__122__compressed_pair_elemINS_22__unordered_map_hasherINS_12basic_stringIcNS_11char_traitsIcEENS_9allocatorIcEEEENS_17__hash_value_typeIS7_4DataEENS_4hashIS7_EENS_8equal_toIS7_EELb1EEELi1ELb1EEC2B8ue170006ENS_18__default_init_tagE, symObjAddr: 0x89C50, symBinAddr: 0x10008CFC4, symSize: 0x2C }
  - { offsetInCU: 0x427C9, offset: 0x427C9, size: 0x8, addend: 0x0, symName: __ZNSt3__122__unordered_map_hasherINS_12basic_stringIcNS_11char_traitsIcEENS_9allocatorIcEEEENS_17__hash_value_typeIS6_4DataEENS_4hashIS6_EENS_8equal_toIS6_EELb1EEC2B8ue170006Ev, symObjAddr: 0x89C7C, symBinAddr: 0x10008CFF0, symSize: 0x14 }
  - { offsetInCU: 0x427F3, offset: 0x427F3, size: 0x8, addend: 0x0, symName: __ZNSt3__117__compressed_pairIfNS_21__unordered_map_equalINS_12basic_stringIcNS_11char_traitsIcEENS_9allocatorIcEEEENS_17__hash_value_typeIS7_4DataEENS_8equal_toIS7_EENS_4hashIS7_EELb1EEEEC2B8ue170006IfNS_18__default_init_tagEEEOT_OT0_, symObjAddr: 0x89C90, symBinAddr: 0x10008D004, symSize: 0x40 }
  - { offsetInCU: 0x4284B, offset: 0x4284B, size: 0x8, addend: 0x0, symName: __ZNSt3__122__compressed_pair_elemINS_21__unordered_map_equalINS_12basic_stringIcNS_11char_traitsIcEENS_9allocatorIcEEEENS_17__hash_value_typeIS7_4DataEENS_8equal_toIS7_EENS_4hashIS7_EELb1EEELi1ELb1EEC2B8ue170006ENS_18__default_init_tagE, symObjAddr: 0x89CD0, symBinAddr: 0x10008D044, symSize: 0x2C }
  - { offsetInCU: 0x42880, offset: 0x42880, size: 0x8, addend: 0x0, symName: __ZNSt3__121__unordered_map_equalINS_12basic_stringIcNS_11char_traitsIcEENS_9allocatorIcEEEENS_17__hash_value_typeIS6_4DataEENS_8equal_toIS6_EENS_4hashIS6_EELb1EEC2B8ue170006Ev, symObjAddr: 0x89CFC, symBinAddr: 0x10008D070, symSize: 0x14 }
  - { offsetInCU: 0x428AA, offset: 0x428AA, size: 0x8, addend: 0x0, symName: __ZNSt3__113unordered_mapINS_12basic_stringIcNS_11char_traitsIcEENS_9allocatorIcEEEE4DataNS_4hashIS6_EENS_8equal_toIS6_EENS4_INS_4pairIKS6_S7_EEEEED2B8ue170006Ev, symObjAddr: 0x89D10, symBinAddr: 0x10008D084, symSize: 0x2C }
  - { offsetInCU: 0x428D4, offset: 0x428D4, size: 0x8, addend: 0x0, symName: __ZNSt3__112__hash_tableINS_17__hash_value_typeINS_12basic_stringIcNS_11char_traitsIcEENS_9allocatorIcEEEE4DataEENS_22__unordered_map_hasherIS7_S9_NS_4hashIS7_EENS_8equal_toIS7_EELb1EEENS_21__unordered_map_equalIS7_S9_SE_SC_Lb1EEENS5_IS9_EEED1Ev, symObjAddr: 0x89D3C, symBinAddr: 0x10008D0B0, symSize: 0x2C }
  - { offsetInCU: 0x42900, offset: 0x42900, size: 0x8, addend: 0x0, symName: __ZNSt3__112__hash_tableINS_17__hash_value_typeINS_12basic_stringIcNS_11char_traitsIcEENS_9allocatorIcEEEE4DataEENS_22__unordered_map_hasherIS7_S9_NS_4hashIS7_EENS_8equal_toIS7_EELb1EEENS_21__unordered_map_equalIS7_S9_SE_SC_Lb1EEENS5_IS9_EEED2Ev, symObjAddr: 0x89D68, symBinAddr: 0x10008D0DC, symSize: 0x88 }
  - { offsetInCU: 0x4292C, offset: 0x4292C, size: 0x8, addend: 0x0, symName: __ZNSt3__112__hash_tableINS_17__hash_value_typeINS_12basic_stringIcNS_11char_traitsIcEENS_9allocatorIcEEEE4DataEENS_22__unordered_map_hasherIS7_S9_NS_4hashIS7_EENS_8equal_toIS7_EELb1EEENS_21__unordered_map_equalIS7_S9_SE_SC_Lb1EEENS5_IS9_EEE17__deallocate_nodeEPNS_16__hash_node_baseIPNS_11__hash_nodeIS9_PvEEEE, symObjAddr: 0x89DF0, symBinAddr: 0x10008D164, symSize: 0xF8 }
  - { offsetInCU: 0x42996, offset: 0x42996, size: 0x8, addend: 0x0, symName: __ZNSt3__117__compressed_pairINS_16__hash_node_baseIPNS_11__hash_nodeINS_17__hash_value_typeINS_12basic_stringIcNS_11char_traitsIcEENS_9allocatorIcEEEE4DataEEPvEEEENS7_ISD_EEE5firstB8ue170006Ev, symObjAddr: 0x89EE8, symBinAddr: 0x10008D25C, symSize: 0x24 }
  - { offsetInCU: 0x429BC, offset: 0x429BC, size: 0x8, addend: 0x0, symName: __ZNSt3__110unique_ptrIA_PNS_16__hash_node_baseIPNS_11__hash_nodeINS_17__hash_value_typeINS_12basic_stringIcNS_11char_traitsIcEENS_9allocatorIcEEEE4DataEEPvEEEENS_25__bucket_list_deallocatorINS7_ISG_EEEEED1B8ue170006Ev, symObjAddr: 0x89F0C, symBinAddr: 0x10008D280, symSize: 0x2C }
  - { offsetInCU: 0x429E6, offset: 0x429E6, size: 0x8, addend: 0x0, symName: __ZNSt3__112__hash_tableINS_17__hash_value_typeINS_12basic_stringIcNS_11char_traitsIcEENS_9allocatorIcEEEE4DataEENS_22__unordered_map_hasherIS7_S9_NS_4hashIS7_EENS_8equal_toIS7_EELb1EEENS_21__unordered_map_equalIS7_S9_SE_SC_Lb1EEENS5_IS9_EEE12__node_allocB8ue170006Ev, symObjAddr: 0x89F38, symBinAddr: 0x10008D2AC, symSize: 0x28 }
  - { offsetInCU: 0x42A0C, offset: 0x42A0C, size: 0x8, addend: 0x0, symName: __ZNSt3__116__hash_node_baseIPNS_11__hash_nodeINS_17__hash_value_typeINS_12basic_stringIcNS_11char_traitsIcEENS_9allocatorIcEEEE4DataEEPvEEE8__upcastB8ue170006Ev, symObjAddr: 0x89F60, symBinAddr: 0x10008D2D4, symSize: 0x24 }
  - { offsetInCU: 0x42A32, offset: 0x42A32, size: 0x8, addend: 0x0, symName: __ZNSt3__116allocator_traitsINS_9allocatorINS_11__hash_nodeINS_17__hash_value_typeINS_12basic_stringIcNS_11char_traitsIcEENS1_IcEEEE4DataEEPvEEEEE7destroyB8ue170006INS_4pairIKS8_S9_EEvvEEvRSD_PT_, symObjAddr: 0x89F84, symBinAddr: 0x10008D2F8, symSize: 0x28 }
  - { offsetInCU: 0x42A6D, offset: 0x42A6D, size: 0x8, addend: 0x0, symName: __ZNSt3__122__hash_key_value_typesINS_17__hash_value_typeINS_12basic_stringIcNS_11char_traitsIcEENS_9allocatorIcEEEE4DataEEE9__get_ptrB8ue170006ERS9_, symObjAddr: 0x89FAC, symBinAddr: 0x10008D320, symSize: 0x24 }
  - { offsetInCU: 0x42A90, offset: 0x42A90, size: 0x8, addend: 0x0, symName: __ZNSt3__116allocator_traitsINS_9allocatorINS_11__hash_nodeINS_17__hash_value_typeINS_12basic_stringIcNS_11char_traitsIcEENS1_IcEEEE4DataEEPvEEEEE10deallocateB8ue170006ERSD_PSC_m, symObjAddr: 0x89FD0, symBinAddr: 0x10008D344, symSize: 0x34 }
  - { offsetInCU: 0x42AD2, offset: 0x42AD2, size: 0x8, addend: 0x0, symName: __ZNSt3__117__compressed_pairINS_16__hash_node_baseIPNS_11__hash_nodeINS_17__hash_value_typeINS_12basic_stringIcNS_11char_traitsIcEENS_9allocatorIcEEEE4DataEEPvEEEENS7_ISD_EEE6secondB8ue170006Ev, symObjAddr: 0x8A004, symBinAddr: 0x10008D378, symSize: 0x24 }
  - { offsetInCU: 0x42AF8, offset: 0x42AF8, size: 0x8, addend: 0x0, symName: __ZNSt3__122__compressed_pair_elemINS_9allocatorINS_11__hash_nodeINS_17__hash_value_typeINS_12basic_stringIcNS_11char_traitsIcEENS1_IcEEEE4DataEEPvEEEELi1ELb1EE5__getB8ue170006Ev, symObjAddr: 0x8A028, symBinAddr: 0x10008D39C, symSize: 0x14 }
  - { offsetInCU: 0x42B1E, offset: 0x42B1E, size: 0x8, addend: 0x0, symName: __ZNSt3__114pointer_traitsIPNS_16__hash_node_baseIPNS_11__hash_nodeINS_17__hash_value_typeINS_12basic_stringIcNS_11char_traitsIcEENS_9allocatorIcEEEE4DataEEPvEEEEE10pointer_toB8ue170006ERSF_, symObjAddr: 0x8A03C, symBinAddr: 0x10008D3B0, symSize: 0x14 }
  - { offsetInCU: 0x42B41, offset: 0x42B41, size: 0x8, addend: 0x0, symName: __ZNSt3__14pairIKNS_12basic_stringIcNS_11char_traitsIcEENS_9allocatorIcEEEE4DataED1Ev, symObjAddr: 0x8A098, symBinAddr: 0x10008D40C, symSize: 0x2C }
  - { offsetInCU: 0x42B6D, offset: 0x42B6D, size: 0x8, addend: 0x0, symName: __ZNSt3__14pairIKNS_12basic_stringIcNS_11char_traitsIcEENS_9allocatorIcEEEE4DataED2Ev, symObjAddr: 0x8A0C4, symBinAddr: 0x10008D438, symSize: 0x38 }
  - { offsetInCU: 0x42B99, offset: 0x42B99, size: 0x8, addend: 0x0, symName: __ZNSt3__117__hash_value_typeINS_12basic_stringIcNS_11char_traitsIcEENS_9allocatorIcEEEE4DataE11__get_valueB8ue170006Ev, symObjAddr: 0x8A0FC, symBinAddr: 0x10008D470, symSize: 0x24 }
  - { offsetInCU: 0x42BBF, offset: 0x42BBF, size: 0x8, addend: 0x0, symName: __ZNSt3__19allocatorINS_11__hash_nodeINS_17__hash_value_typeINS_12basic_stringIcNS_11char_traitsIcEENS0_IcEEEE4DataEEPvEEE10deallocateB8ue170006EPSB_m, symObjAddr: 0x8A158, symBinAddr: 0x10008D4CC, symSize: 0x50 }
  - { offsetInCU: 0x42C01, offset: 0x42C01, size: 0x8, addend: 0x0, symName: __ZNSt3__122__compressed_pair_elemINS_16__hash_node_baseIPNS_11__hash_nodeINS_17__hash_value_typeINS_12basic_stringIcNS_11char_traitsIcEENS_9allocatorIcEEEE4DataEEPvEEEELi0ELb0EE5__getB8ue170006Ev, symObjAddr: 0x8A1A8, symBinAddr: 0x10008D51C, symSize: 0x14 }
  - { offsetInCU: 0x42C27, offset: 0x42C27, size: 0x8, addend: 0x0, symName: __ZNSt3__110unique_ptrIA_PNS_16__hash_node_baseIPNS_11__hash_nodeINS_17__hash_value_typeINS_12basic_stringIcNS_11char_traitsIcEENS_9allocatorIcEEEE4DataEEPvEEEENS_25__bucket_list_deallocatorINS7_ISG_EEEEED2B8ue170006Ev, symObjAddr: 0x8A1BC, symBinAddr: 0x10008D530, symSize: 0x30 }
  - { offsetInCU: 0x42C51, offset: 0x42C51, size: 0x8, addend: 0x0, symName: __ZNSt3__110unique_ptrIA_PNS_16__hash_node_baseIPNS_11__hash_nodeINS_17__hash_value_typeINS_12basic_stringIcNS_11char_traitsIcEENS_9allocatorIcEEEE4DataEEPvEEEENS_25__bucket_list_deallocatorINS7_ISG_EEEEE5resetB8ue170006EDn, symObjAddr: 0x8A1EC, symBinAddr: 0x10008D560, symSize: 0xE0 }
  - { offsetInCU: 0x42C92, offset: 0x42C92, size: 0x8, addend: 0x0, symName: __ZNSt3__117__compressed_pairIPPNS_16__hash_node_baseIPNS_11__hash_nodeINS_17__hash_value_typeINS_12basic_stringIcNS_11char_traitsIcEENS_9allocatorIcEEEE4DataEEPvEEEENS_25__bucket_list_deallocatorINS7_ISG_EEEEE5firstB8ue170006Ev, symObjAddr: 0x8A2CC, symBinAddr: 0x10008D640, symSize: 0x24 }
  - { offsetInCU: 0x42CB8, offset: 0x42CB8, size: 0x8, addend: 0x0, symName: __ZNSt3__117__compressed_pairIPPNS_16__hash_node_baseIPNS_11__hash_nodeINS_17__hash_value_typeINS_12basic_stringIcNS_11char_traitsIcEENS_9allocatorIcEEEE4DataEEPvEEEENS_25__bucket_list_deallocatorINS7_ISG_EEEEE6secondB8ue170006Ev, symObjAddr: 0x8A2F0, symBinAddr: 0x10008D664, symSize: 0x28 }
  - { offsetInCU: 0x42CDE, offset: 0x42CDE, size: 0x8, addend: 0x0, symName: __ZNSt3__125__bucket_list_deallocatorINS_9allocatorIPNS_16__hash_node_baseIPNS_11__hash_nodeINS_17__hash_value_typeINS_12basic_stringIcNS_11char_traitsIcEENS1_IcEEEE4DataEEPvEEEEEEEclB8ue170006EPSG_, symObjAddr: 0x8A318, symBinAddr: 0x10008D68C, symSize: 0x98 }
  - { offsetInCU: 0x42D13, offset: 0x42D13, size: 0x8, addend: 0x0, symName: __ZNSt3__122__compressed_pair_elemIPPNS_16__hash_node_baseIPNS_11__hash_nodeINS_17__hash_value_typeINS_12basic_stringIcNS_11char_traitsIcEENS_9allocatorIcEEEE4DataEEPvEEEELi0ELb0EE5__getB8ue170006Ev, symObjAddr: 0x8A3B0, symBinAddr: 0x10008D724, symSize: 0x14 }
  - { offsetInCU: 0x42D39, offset: 0x42D39, size: 0x8, addend: 0x0, symName: __ZNSt3__122__compressed_pair_elemINS_25__bucket_list_deallocatorINS_9allocatorIPNS_16__hash_node_baseIPNS_11__hash_nodeINS_17__hash_value_typeINS_12basic_stringIcNS_11char_traitsIcEENS2_IcEEEE4DataEEPvEEEEEEEELi1ELb0EE5__getB8ue170006Ev, symObjAddr: 0x8A3C4, symBinAddr: 0x10008D738, symSize: 0x14 }
  - { offsetInCU: 0x42D5F, offset: 0x42D5F, size: 0x8, addend: 0x0, symName: __ZNSt3__116allocator_traitsINS_9allocatorIPNS_16__hash_node_baseIPNS_11__hash_nodeINS_17__hash_value_typeINS_12basic_stringIcNS_11char_traitsIcEENS1_IcEEEE4DataEEPvEEEEEEE10deallocateB8ue170006ERSH_PSG_m, symObjAddr: 0x8A3D8, symBinAddr: 0x10008D74C, symSize: 0x34 }
  - { offsetInCU: 0x42DA1, offset: 0x42DA1, size: 0x8, addend: 0x0, symName: __ZNSt3__125__bucket_list_deallocatorINS_9allocatorIPNS_16__hash_node_baseIPNS_11__hash_nodeINS_17__hash_value_typeINS_12basic_stringIcNS_11char_traitsIcEENS1_IcEEEE4DataEEPvEEEEEEE7__allocB8ue170006Ev, symObjAddr: 0x8A40C, symBinAddr: 0x10008D780, symSize: 0x24 }
  - { offsetInCU: 0x42DC7, offset: 0x42DC7, size: 0x8, addend: 0x0, symName: __ZNSt3__125__bucket_list_deallocatorINS_9allocatorIPNS_16__hash_node_baseIPNS_11__hash_nodeINS_17__hash_value_typeINS_12basic_stringIcNS_11char_traitsIcEENS1_IcEEEE4DataEEPvEEEEEEE4sizeB8ue170006Ev, symObjAddr: 0x8A430, symBinAddr: 0x10008D7A4, symSize: 0x24 }
  - { offsetInCU: 0x42DED, offset: 0x42DED, size: 0x8, addend: 0x0, symName: __ZNSt3__19allocatorIPNS_16__hash_node_baseIPNS_11__hash_nodeINS_17__hash_value_typeINS_12basic_stringIcNS_11char_traitsIcEENS0_IcEEEE4DataEEPvEEEEE10deallocateB8ue170006EPSF_m, symObjAddr: 0x8A454, symBinAddr: 0x10008D7C8, symSize: 0x4C }
  - { offsetInCU: 0x42E2F, offset: 0x42E2F, size: 0x8, addend: 0x0, symName: __ZNSt3__117__compressed_pairImNS_9allocatorIPNS_16__hash_node_baseIPNS_11__hash_nodeINS_17__hash_value_typeINS_12basic_stringIcNS_11char_traitsIcEENS1_IcEEEE4DataEEPvEEEEEEE6secondB8ue170006Ev, symObjAddr: 0x8A4A0, symBinAddr: 0x10008D814, symSize: 0x24 }
  - { offsetInCU: 0x42E55, offset: 0x42E55, size: 0x8, addend: 0x0, symName: __ZNSt3__122__compressed_pair_elemINS_9allocatorIPNS_16__hash_node_baseIPNS_11__hash_nodeINS_17__hash_value_typeINS_12basic_stringIcNS_11char_traitsIcEENS1_IcEEEE4DataEEPvEEEEEELi1ELb1EE5__getB8ue170006Ev, symObjAddr: 0x8A4C4, symBinAddr: 0x10008D838, symSize: 0x14 }
  - { offsetInCU: 0x42E7B, offset: 0x42E7B, size: 0x8, addend: 0x0, symName: __ZNSt3__117__compressed_pairImNS_9allocatorIPNS_16__hash_node_baseIPNS_11__hash_nodeINS_17__hash_value_typeINS_12basic_stringIcNS_11char_traitsIcEENS1_IcEEEE4DataEEPvEEEEEEE5firstB8ue170006Ev, symObjAddr: 0x8A4D8, symBinAddr: 0x10008D84C, symSize: 0x24 }
  - { offsetInCU: 0x42EA1, offset: 0x42EA1, size: 0x8, addend: 0x0, symName: __ZNSt3__13mapINS_12basic_stringIcNS_11char_traitsIcEENS_9allocatorIcEEEE4DataNS_4lessIS6_EENS4_INS_4pairIKS6_S7_EEEEEC2B8ue170006Ev, symObjAddr: 0x8A4FC, symBinAddr: 0x10008D870, symSize: 0x1E8 }
  - { offsetInCU: 0x42ECC, offset: 0x42ECC, size: 0x8, addend: 0x0, symName: __ZNSt3__119__map_value_compareINS_12basic_stringIcNS_11char_traitsIcEENS_9allocatorIcEEEENS_12__value_typeIS6_4DataEENS_4lessIS6_EELb1EEC1B8ue170006ESB_, symObjAddr: 0x8A6E4, symBinAddr: 0x10008DA58, symSize: 0x2C }
  - { offsetInCU: 0x42F05, offset: 0x42F05, size: 0x8, addend: 0x0, symName: __ZNSt3__16__treeINS_12__value_typeINS_12basic_stringIcNS_11char_traitsIcEENS_9allocatorIcEEEE4DataEENS_19__map_value_compareIS7_S9_NS_4lessIS7_EELb1EEENS5_IS9_EEEC1ERKSD_, symObjAddr: 0x8A710, symBinAddr: 0x10008DA84, symSize: 0x34 }
  - { offsetInCU: 0x42F40, offset: 0x42F40, size: 0x8, addend: 0x0, symName: __ZNSt3__119__map_value_compareINS_12basic_stringIcNS_11char_traitsIcEENS_9allocatorIcEEEENS_12__value_typeIS6_4DataEENS_4lessIS6_EELb1EEC2B8ue170006ESB_, symObjAddr: 0x8A744, symBinAddr: 0x10008DAB8, symSize: 0x14 }
  - { offsetInCU: 0x42F79, offset: 0x42F79, size: 0x8, addend: 0x0, symName: __ZNSt3__16__treeINS_12__value_typeINS_12basic_stringIcNS_11char_traitsIcEENS_9allocatorIcEEEE4DataEENS_19__map_value_compareIS7_S9_NS_4lessIS7_EELb1EEENS5_IS9_EEEC2ERKSD_, symObjAddr: 0x8A758, symBinAddr: 0x10008DACC, symSize: 0x2CC }
  - { offsetInCU: 0x42FB6, offset: 0x42FB6, size: 0x8, addend: 0x0, symName: __ZNSt3__117__compressed_pairINS_15__tree_end_nodeIPNS_16__tree_node_baseIPvEEEENS_9allocatorINS_11__tree_nodeINS_12__value_typeINS_12basic_stringIcNS_11char_traitsIcEENS7_IcEEEE4DataEES3_EEEEEC1B8ue170006ILb1EvEEv, symObjAddr: 0x8AA24, symBinAddr: 0x10008DD98, symSize: 0x2C }
  - { offsetInCU: 0x42FEB, offset: 0x42FEB, size: 0x8, addend: 0x0, symName: __ZNSt3__117__compressed_pairImNS_19__map_value_compareINS_12basic_stringIcNS_11char_traitsIcEENS_9allocatorIcEEEENS_12__value_typeIS7_4DataEENS_4lessIS7_EELb1EEEEC1B8ue170006IiRKSD_EEOT_OT0_, symObjAddr: 0x8AA50, symBinAddr: 0x10008DDC4, symSize: 0x3C }
  - { offsetInCU: 0x43043, offset: 0x43043, size: 0x8, addend: 0x0, symName: __ZNSt3__16__treeINS_12__value_typeINS_12basic_stringIcNS_11char_traitsIcEENS_9allocatorIcEEEE4DataEENS_19__map_value_compareIS7_S9_NS_4lessIS7_EELb1EEENS5_IS9_EEE10__end_nodeB8ue170006Ev, symObjAddr: 0x8AA8C, symBinAddr: 0x10008DE00, symSize: 0x2C }
  - { offsetInCU: 0x43069, offset: 0x43069, size: 0x8, addend: 0x0, symName: __ZNSt3__16__treeINS_12__value_typeINS_12basic_stringIcNS_11char_traitsIcEENS_9allocatorIcEEEE4DataEENS_19__map_value_compareIS7_S9_NS_4lessIS7_EELb1EEENS5_IS9_EEE12__begin_nodeB8ue170006Ev, symObjAddr: 0x8AAB8, symBinAddr: 0x10008DE2C, symSize: 0x14 }
  - { offsetInCU: 0x4308F, offset: 0x4308F, size: 0x8, addend: 0x0, symName: __ZNSt3__117__compressed_pairINS_15__tree_end_nodeIPNS_16__tree_node_baseIPvEEEENS_9allocatorINS_11__tree_nodeINS_12__value_typeINS_12basic_stringIcNS_11char_traitsIcEENS7_IcEEEE4DataEES3_EEEEEC2B8ue170006ILb1EvEEv, symObjAddr: 0x8AACC, symBinAddr: 0x10008DE40, symSize: 0x34 }
  - { offsetInCU: 0x430C4, offset: 0x430C4, size: 0x8, addend: 0x0, symName: __ZNSt3__122__compressed_pair_elemINS_15__tree_end_nodeIPNS_16__tree_node_baseIPvEEEELi0ELb0EEC2B8ue170006ENS_16__value_init_tagE, symObjAddr: 0x8AB00, symBinAddr: 0x10008DE74, symSize: 0x2C }
  - { offsetInCU: 0x430F9, offset: 0x430F9, size: 0x8, addend: 0x0, symName: __ZNSt3__122__compressed_pair_elemINS_9allocatorINS_11__tree_nodeINS_12__value_typeINS_12basic_stringIcNS_11char_traitsIcEENS1_IcEEEE4DataEEPvEEEELi1ELb1EEC2B8ue170006ENS_16__value_init_tagE, symObjAddr: 0x8AB2C, symBinAddr: 0x10008DEA0, symSize: 0x2C }
  - { offsetInCU: 0x4312E, offset: 0x4312E, size: 0x8, addend: 0x0, symName: __ZNSt3__115__tree_end_nodeIPNS_16__tree_node_baseIPvEEEC1B8ue170006Ev, symObjAddr: 0x8AB58, symBinAddr: 0x10008DECC, symSize: 0x2C }
  - { offsetInCU: 0x43158, offset: 0x43158, size: 0x8, addend: 0x0, symName: __ZNSt3__115__tree_end_nodeIPNS_16__tree_node_baseIPvEEEC2B8ue170006Ev, symObjAddr: 0x8AB84, symBinAddr: 0x10008DEF8, symSize: 0x60 }
  - { offsetInCU: 0x43182, offset: 0x43182, size: 0x8, addend: 0x0, symName: __ZNSt3__19allocatorINS_11__tree_nodeINS_12__value_typeINS_12basic_stringIcNS_11char_traitsIcEENS0_IcEEEE4DataEEPvEEEC2B8ue170006Ev, symObjAddr: 0x8ABE4, symBinAddr: 0x10008DF58, symSize: 0x2C }
  - { offsetInCU: 0x431AC, offset: 0x431AC, size: 0x8, addend: 0x0, symName: __ZNSt3__116__non_trivial_ifILb1ENS_9allocatorINS_11__tree_nodeINS_12__value_typeINS_12basic_stringIcNS_11char_traitsIcEENS1_IcEEEE4DataEEPvEEEEEC2B8ue170006Ev, symObjAddr: 0x8AC10, symBinAddr: 0x10008DF84, symSize: 0x14 }
  - { offsetInCU: 0x431D6, offset: 0x431D6, size: 0x8, addend: 0x0, symName: __ZNSt3__117__compressed_pairImNS_19__map_value_compareINS_12basic_stringIcNS_11char_traitsIcEENS_9allocatorIcEEEENS_12__value_typeIS7_4DataEENS_4lessIS7_EELb1EEEEC2B8ue170006IiRKSD_EEOT_OT0_, symObjAddr: 0x8AC24, symBinAddr: 0x10008DF98, symSize: 0x44 }
  - { offsetInCU: 0x4322E, offset: 0x4322E, size: 0x8, addend: 0x0, symName: __ZNSt3__122__compressed_pair_elemINS_19__map_value_compareINS_12basic_stringIcNS_11char_traitsIcEENS_9allocatorIcEEEENS_12__value_typeIS7_4DataEENS_4lessIS7_EELb1EEELi1ELb1EEC2B8ue170006IRKSD_vEEOT_, symObjAddr: 0x8AC68, symBinAddr: 0x10008DFDC, symSize: 0x18 }
  - { offsetInCU: 0x43270, offset: 0x43270, size: 0x8, addend: 0x0, symName: __ZNSt3__114pointer_traitsIPNS_15__tree_end_nodeIPNS_16__tree_node_baseIPvEEEEE10pointer_toB8ue170006ERS6_, symObjAddr: 0x8AC80, symBinAddr: 0x10008DFF4, symSize: 0x14 }
  - { offsetInCU: 0x43293, offset: 0x43293, size: 0x8, addend: 0x0, symName: __ZNSt3__117__compressed_pairINS_15__tree_end_nodeIPNS_16__tree_node_baseIPvEEEENS_9allocatorINS_11__tree_nodeINS_12__value_typeINS_12basic_stringIcNS_11char_traitsIcEENS7_IcEEEE4DataEES3_EEEEE5firstB8ue170006Ev, symObjAddr: 0x8AC94, symBinAddr: 0x10008E008, symSize: 0x24 }
  - { offsetInCU: 0x432B9, offset: 0x432B9, size: 0x8, addend: 0x0, symName: __ZNSt3__122__compressed_pair_elemINS_15__tree_end_nodeIPNS_16__tree_node_baseIPvEEEELi0ELb0EE5__getB8ue170006Ev, symObjAddr: 0x8ACB8, symBinAddr: 0x10008E02C, symSize: 0x14 }
  - { offsetInCU: 0x432DF, offset: 0x432DF, size: 0x8, addend: 0x0, symName: __ZNSt3__13mapINS_12basic_stringIcNS_11char_traitsIcEENS_9allocatorIcEEEE4DataNS_4lessIS6_EENS4_INS_4pairIKS6_S7_EEEEED2B8ue170006Ev, symObjAddr: 0x8ACCC, symBinAddr: 0x10008E040, symSize: 0x2C }
  - { offsetInCU: 0x43309, offset: 0x43309, size: 0x8, addend: 0x0, symName: __ZNSt3__16__treeINS_12__value_typeINS_12basic_stringIcNS_11char_traitsIcEENS_9allocatorIcEEEE4DataEENS_19__map_value_compareIS7_S9_NS_4lessIS7_EELb1EEENS5_IS9_EEED1Ev, symObjAddr: 0x8ACF8, symBinAddr: 0x10008E06C, symSize: 0x2C }
  - { offsetInCU: 0x43335, offset: 0x43335, size: 0x8, addend: 0x0, symName: __ZNSt3__16__treeINS_12__value_typeINS_12basic_stringIcNS_11char_traitsIcEENS_9allocatorIcEEEE4DataEENS_19__map_value_compareIS7_S9_NS_4lessIS7_EELb1EEENS5_IS9_EEED2Ev, symObjAddr: 0x8AD24, symBinAddr: 0x10008E098, symSize: 0x38 }
  - { offsetInCU: 0x43361, offset: 0x43361, size: 0x8, addend: 0x0, symName: __ZNSt3__16__treeINS_12__value_typeINS_12basic_stringIcNS_11char_traitsIcEENS_9allocatorIcEEEE4DataEENS_19__map_value_compareIS7_S9_NS_4lessIS7_EELb1EEENS5_IS9_EEE7destroyEPNS_11__tree_nodeIS9_PvEE, symObjAddr: 0x8AD5C, symBinAddr: 0x10008E0D0, symSize: 0x134 }
  - { offsetInCU: 0x433AD, offset: 0x433AD, size: 0x8, addend: 0x0, symName: __ZNKSt3__16__treeINS_12__value_typeINS_12basic_stringIcNS_11char_traitsIcEENS_9allocatorIcEEEE4DataEENS_19__map_value_compareIS7_S9_NS_4lessIS7_EELb1EEENS5_IS9_EEE6__rootB8ue170006Ev, symObjAddr: 0x8AE90, symBinAddr: 0x10008E204, symSize: 0x6C }
  - { offsetInCU: 0x433D3, offset: 0x433D3, size: 0x8, addend: 0x0, symName: __ZNSt3__16__treeINS_12__value_typeINS_12basic_stringIcNS_11char_traitsIcEENS_9allocatorIcEEEE4DataEENS_19__map_value_compareIS7_S9_NS_4lessIS7_EELb1EEENS5_IS9_EEE12__node_allocB8ue170006Ev, symObjAddr: 0x8AEFC, symBinAddr: 0x10008E270, symSize: 0x28 }
  - { offsetInCU: 0x433F9, offset: 0x433F9, size: 0x8, addend: 0x0, symName: __ZNSt3__116allocator_traitsINS_9allocatorINS_11__tree_nodeINS_12__value_typeINS_12basic_stringIcNS_11char_traitsIcEENS1_IcEEEE4DataEEPvEEEEE7destroyB8ue170006INS_4pairIKS8_S9_EEvvEEvRSD_PT_, symObjAddr: 0x8AF24, symBinAddr: 0x10008E298, symSize: 0x28 }
  - { offsetInCU: 0x43434, offset: 0x43434, size: 0x8, addend: 0x0, symName: __ZNSt3__122__tree_key_value_typesINS_12__value_typeINS_12basic_stringIcNS_11char_traitsIcEENS_9allocatorIcEEEE4DataEEE9__get_ptrB8ue170006ERS9_, symObjAddr: 0x8AF4C, symBinAddr: 0x10008E2C0, symSize: 0x24 }
  - { offsetInCU: 0x43458, offset: 0x43458, size: 0x8, addend: 0x0, symName: __ZNSt3__116allocator_traitsINS_9allocatorINS_11__tree_nodeINS_12__value_typeINS_12basic_stringIcNS_11char_traitsIcEENS1_IcEEEE4DataEEPvEEEEE10deallocateB8ue170006ERSD_PSC_m, symObjAddr: 0x8AF70, symBinAddr: 0x10008E2E4, symSize: 0x34 }
  - { offsetInCU: 0x4349A, offset: 0x4349A, size: 0x8, addend: 0x0, symName: __ZNSt3__117__compressed_pairINS_15__tree_end_nodeIPNS_16__tree_node_baseIPvEEEENS_9allocatorINS_11__tree_nodeINS_12__value_typeINS_12basic_stringIcNS_11char_traitsIcEENS7_IcEEEE4DataEES3_EEEEE6secondB8ue170006Ev, symObjAddr: 0x8AFA4, symBinAddr: 0x10008E318, symSize: 0x24 }
  - { offsetInCU: 0x434C0, offset: 0x434C0, size: 0x8, addend: 0x0, symName: __ZNSt3__122__compressed_pair_elemINS_9allocatorINS_11__tree_nodeINS_12__value_typeINS_12basic_stringIcNS_11char_traitsIcEENS1_IcEEEE4DataEEPvEEEELi1ELb1EE5__getB8ue170006Ev, symObjAddr: 0x8AFC8, symBinAddr: 0x10008E33C, symSize: 0x14 }
  - { offsetInCU: 0x434E6, offset: 0x434E6, size: 0x8, addend: 0x0, symName: __ZNSt3__112__value_typeINS_12basic_stringIcNS_11char_traitsIcEENS_9allocatorIcEEEE4DataE11__get_valueB8ue170006Ev, symObjAddr: 0x8AFDC, symBinAddr: 0x10008E350, symSize: 0x24 }
  - { offsetInCU: 0x4350C, offset: 0x4350C, size: 0x8, addend: 0x0, symName: __ZNSt3__19allocatorINS_11__tree_nodeINS_12__value_typeINS_12basic_stringIcNS_11char_traitsIcEENS0_IcEEEE4DataEEPvEEE10deallocateB8ue170006EPSB_m, symObjAddr: 0x8B000, symBinAddr: 0x10008E374, symSize: 0x50 }
  - { offsetInCU: 0x4354E, offset: 0x4354E, size: 0x8, addend: 0x0, symName: __ZNKSt3__16__treeINS_12__value_typeINS_12basic_stringIcNS_11char_traitsIcEENS_9allocatorIcEEEE4DataEENS_19__map_value_compareIS7_S9_NS_4lessIS7_EELb1EEENS5_IS9_EEE10__end_nodeB8ue170006Ev, symObjAddr: 0x8B050, symBinAddr: 0x10008E3C4, symSize: 0x2C }
  - { offsetInCU: 0x43574, offset: 0x43574, size: 0x8, addend: 0x0, symName: __ZNKSt3__117__compressed_pairINS_15__tree_end_nodeIPNS_16__tree_node_baseIPvEEEENS_9allocatorINS_11__tree_nodeINS_12__value_typeINS_12basic_stringIcNS_11char_traitsIcEENS7_IcEEEE4DataEES3_EEEEE5firstB8ue170006Ev, symObjAddr: 0x8B07C, symBinAddr: 0x10008E3F0, symSize: 0x24 }
  - { offsetInCU: 0x4359A, offset: 0x4359A, size: 0x8, addend: 0x0, symName: __ZNKSt3__122__compressed_pair_elemINS_15__tree_end_nodeIPNS_16__tree_node_baseIPvEEEELi0ELb0EE5__getB8ue170006Ev, symObjAddr: 0x8B0A0, symBinAddr: 0x10008E414, symSize: 0x14 }
  - { offsetInCU: 0x435C0, offset: 0x435C0, size: 0x8, addend: 0x0, symName: __ZN9SplayTreeINSt3__112basic_stringIcNS0_11char_traitsIcEENS0_9allocatorIcEEEE4DataED2Ev, symObjAddr: 0x8B0B4, symBinAddr: 0x10008E428, symSize: 0x2C }
  - { offsetInCU: 0x435EA, offset: 0x435EA, size: 0x8, addend: 0x0, symName: __ZN9SplayTreeINSt3__112basic_stringIcNS0_11char_traitsIcEENS0_9allocatorIcEEEE4DataE5clearEv, symObjAddr: 0x8B0E0, symBinAddr: 0x10008E454, symSize: 0x370 }
  - { offsetInCU: 0x43611, offset: 0x43611, size: 0x8, addend: 0x0, symName: __ZNSt3__112__hash_tableINS_12basic_stringIcNS_11char_traitsIcEENS_9allocatorIcEEEENS_4hashIS6_EENS_8equal_toIS6_EENS4_IS6_EEE5beginEv, symObjAddr: 0x8B450, symBinAddr: 0x10008E7C4, symSize: 0x23C }
  - { offsetInCU: 0x4363A, offset: 0x4363A, size: 0x8, addend: 0x0, symName: __ZNSt3__112__hash_tableINS_12basic_stringIcNS_11char_traitsIcEENS_9allocatorIcEEEENS_4hashIS6_EENS_8equal_toIS6_EENS4_IS6_EEE3endEv, symObjAddr: 0x8B68C, symBinAddr: 0x10008EA00, symSize: 0x1F8 }
  - { offsetInCU: 0x43663, offset: 0x43663, size: 0x8, addend: 0x0, symName: __ZNSt3__112__hash_tableINS_17__hash_value_typeINS_12basic_stringIcNS_11char_traitsIcEENS_9allocatorIcEEEE4DataEENS_22__unordered_map_hasherIS7_S9_NS_4hashIS7_EENS_8equal_toIS7_EELb1EEENS_21__unordered_map_equalIS7_S9_SE_SC_Lb1EEENS5_IS9_EEE16__emplace_uniqueB8ue170006IRKS7_S8_EENS_9enable_ifIXsr21__can_extract_map_keyIT_S7_NS_4pairISL_S8_EEEE5valueENSP_INS_15__hash_iteratorIPNS_11__hash_nodeIS9_PvEEEEbEEE4typeEOSO_OT0_, symObjAddr: 0x8B93C, symBinAddr: 0x10008ECB0, symSize: 0x230 }
  - { offsetInCU: 0x436BC, offset: 0x436BC, size: 0x8, addend: 0x0, symName: __ZNSt3__14pairINS_19__hash_map_iteratorINS_15__hash_iteratorIPNS_11__hash_nodeINS_17__hash_value_typeINS_12basic_stringIcNS_11char_traitsIcEENS_9allocatorIcEEEE4DataEEPvEEEEEEbEC1B8ue170006ISG_bLSD_0EEEONS0_IT_T0_EE, symObjAddr: 0x8BB6C, symBinAddr: 0x10008EEE0, symSize: 0x34 }
  - { offsetInCU: 0x4370D, offset: 0x4370D, size: 0x8, addend: 0x0, symName: __ZNSt3__112__hash_tableINS_17__hash_value_typeINS_12basic_stringIcNS_11char_traitsIcEENS_9allocatorIcEEEE4DataEENS_22__unordered_map_hasherIS7_S9_NS_4hashIS7_EENS_8equal_toIS7_EELb1EEENS_21__unordered_map_equalIS7_S9_SE_SC_Lb1EEENS5_IS9_EEE25__emplace_unique_key_argsIS7_JRKS7_S8_EEENS_4pairINS_15__hash_iteratorIPNS_11__hash_nodeIS9_PvEEEEbEERKT_DpOT0_, symObjAddr: 0x8BBA0, symBinAddr: 0x10008EF14, symSize: 0xDFC }
  - { offsetInCU: 0x4380C, offset: 0x4380C, size: 0x8, addend: 0x0, symName: __ZNSt3__112__hash_tableINS_17__hash_value_typeINS_12basic_stringIcNS_11char_traitsIcEENS_9allocatorIcEEEE4DataEENS_22__unordered_map_hasherIS7_S9_NS_4hashIS7_EENS_8equal_toIS7_EELb1EEENS_21__unordered_map_equalIS7_S9_SE_SC_Lb1EEENS5_IS9_EEE13hash_functionB8ue170006Ev, symObjAddr: 0x8C99C, symBinAddr: 0x10008FD10, symSize: 0x28 }
  - { offsetInCU: 0x43832, offset: 0x43832, size: 0x8, addend: 0x0, symName: __ZNKSt3__122__unordered_map_hasherINS_12basic_stringIcNS_11char_traitsIcEENS_9allocatorIcEEEENS_17__hash_value_typeIS6_4DataEENS_4hashIS6_EENS_8equal_toIS6_EELb1EEclB8ue170006ERKS6_, symObjAddr: 0x8C9C4, symBinAddr: 0x10008FD38, symSize: 0x2C }
  - { offsetInCU: 0x43867, offset: 0x43867, size: 0x8, addend: 0x0, symName: __ZNKSt3__112__hash_tableINS_17__hash_value_typeINS_12basic_stringIcNS_11char_traitsIcEENS_9allocatorIcEEEE4DataEENS_22__unordered_map_hasherIS7_S9_NS_4hashIS7_EENS_8equal_toIS7_EELb1EEENS_21__unordered_map_equalIS7_S9_SE_SC_Lb1EEENS5_IS9_EEE12bucket_countB8ue170006Ev, symObjAddr: 0x8C9F0, symBinAddr: 0x10008FD64, symSize: 0x28 }
  - { offsetInCU: 0x4388D, offset: 0x4388D, size: 0x8, addend: 0x0, symName: __ZNKSt3__110unique_ptrIA_PNS_16__hash_node_baseIPNS_11__hash_nodeINS_17__hash_value_typeINS_12basic_stringIcNS_11char_traitsIcEENS_9allocatorIcEEEE4DataEEPvEEEENS_25__bucket_list_deallocatorINS7_ISG_EEEEEixB8ue170006Em, symObjAddr: 0x8CA18, symBinAddr: 0x10008FD8C, symSize: 0x78 }
  - { offsetInCU: 0x438C2, offset: 0x438C2, size: 0x8, addend: 0x0, symName: __ZNKSt3__116__hash_node_baseIPNS_11__hash_nodeINS_17__hash_value_typeINS_12basic_stringIcNS_11char_traitsIcEENS_9allocatorIcEEEE4DataEEPvEEE6__hashB8ue170006Ev, symObjAddr: 0x8CA90, symBinAddr: 0x10008FE04, symSize: 0x64 }
  - { offsetInCU: 0x438E8, offset: 0x438E8, size: 0x8, addend: 0x0, symName: __ZNSt3__112__hash_tableINS_17__hash_value_typeINS_12basic_stringIcNS_11char_traitsIcEENS_9allocatorIcEEEE4DataEENS_22__unordered_map_hasherIS7_S9_NS_4hashIS7_EENS_8equal_toIS7_EELb1EEENS_21__unordered_map_equalIS7_S9_SE_SC_Lb1EEENS5_IS9_EEE6key_eqB8ue170006Ev, symObjAddr: 0x8CAF4, symBinAddr: 0x10008FE68, symSize: 0x28 }
  - { offsetInCU: 0x4390E, offset: 0x4390E, size: 0x8, addend: 0x0, symName: __ZNKSt3__121__unordered_map_equalINS_12basic_stringIcNS_11char_traitsIcEENS_9allocatorIcEEEENS_17__hash_value_typeIS6_4DataEENS_8equal_toIS6_EENS_4hashIS6_EELb1EEclB8ue170006ERKS9_RKS6_, symObjAddr: 0x8CB1C, symBinAddr: 0x10008FE90, symSize: 0x48 }
  - { offsetInCU: 0x43952, offset: 0x43952, size: 0x8, addend: 0x0, symName: __ZNSt3__112__hash_tableINS_17__hash_value_typeINS_12basic_stringIcNS_11char_traitsIcEENS_9allocatorIcEEEE4DataEENS_22__unordered_map_hasherIS7_S9_NS_4hashIS7_EENS_8equal_toIS7_EELb1EEENS_21__unordered_map_equalIS7_S9_SE_SC_Lb1EEENS5_IS9_EEE21__construct_node_hashIRKS7_JS8_EEENS_10unique_ptrINS_11__hash_nodeIS9_PvEENS_22__hash_node_destructorINS5_ISQ_EEEEEEmOT_DpOT0_, symObjAddr: 0x8CB64, symBinAddr: 0x10008FED8, symSize: 0x420 }
  - { offsetInCU: 0x439E0, offset: 0x439E0, size: 0x8, addend: 0x0, symName: __ZNSt3__112__hash_tableINS_17__hash_value_typeINS_12basic_stringIcNS_11char_traitsIcEENS_9allocatorIcEEEE4DataEENS_22__unordered_map_hasherIS7_S9_NS_4hashIS7_EENS_8equal_toIS7_EELb1EEENS_21__unordered_map_equalIS7_S9_SE_SC_Lb1EEENS5_IS9_EEE4sizeB8ue170006Ev, symObjAddr: 0x8CF84, symBinAddr: 0x1000902F8, symSize: 0x28 }
  - { offsetInCU: 0x43A06, offset: 0x43A06, size: 0x8, addend: 0x0, symName: __ZNSt3__112__hash_tableINS_17__hash_value_typeINS_12basic_stringIcNS_11char_traitsIcEENS_9allocatorIcEEEE4DataEENS_22__unordered_map_hasherIS7_S9_NS_4hashIS7_EENS_8equal_toIS7_EELb1EEENS_21__unordered_map_equalIS7_S9_SE_SC_Lb1EEENS5_IS9_EEE15max_load_factorB8ue170006Ev, symObjAddr: 0x8CFAC, symBinAddr: 0x100090320, symSize: 0x28 }
  - { offsetInCU: 0x43A2C, offset: 0x43A2C, size: 0x8, addend: 0x0, symName: __ZNSt3__112__hash_tableINS_17__hash_value_typeINS_12basic_stringIcNS_11char_traitsIcEENS_9allocatorIcEEEE4DataEENS_22__unordered_map_hasherIS7_S9_NS_4hashIS7_EENS_8equal_toIS7_EELb1EEENS_21__unordered_map_equalIS7_S9_SE_SC_Lb1EEENS5_IS9_EEE15__rehash_uniqueB8ue170006Em, symObjAddr: 0x8CFD4, symBinAddr: 0x100090348, symSize: 0x2C }
  - { offsetInCU: 0x43A61, offset: 0x43A61, size: 0x8, addend: 0x0, symName: __ZNSt3__116__hash_node_baseIPNS_11__hash_nodeINS_17__hash_value_typeINS_12basic_stringIcNS_11char_traitsIcEENS_9allocatorIcEEEE4DataEEPvEEE5__ptrB8ue170006Ev, symObjAddr: 0x8D000, symBinAddr: 0x100090374, symSize: 0x24 }
  - { offsetInCU: 0x43A87, offset: 0x43A87, size: 0x8, addend: 0x0, symName: __ZNKSt3__110unique_ptrINS_11__hash_nodeINS_17__hash_value_typeINS_12basic_stringIcNS_11char_traitsIcEENS_9allocatorIcEEEE4DataEEPvEENS_22__hash_node_destructorINS6_ISC_EEEEEptB8ue170006Ev, symObjAddr: 0x8D024, symBinAddr: 0x100090398, symSize: 0x6C }
  - { offsetInCU: 0x43AAD, offset: 0x43AAD, size: 0x8, addend: 0x0, symName: __ZNKSt3__110unique_ptrINS_11__hash_nodeINS_17__hash_value_typeINS_12basic_stringIcNS_11char_traitsIcEENS_9allocatorIcEEEE4DataEEPvEENS_22__hash_node_destructorINS6_ISC_EEEEE3getB8ue170006Ev, symObjAddr: 0x8D090, symBinAddr: 0x100090404, symSize: 0x6C }
  - { offsetInCU: 0x43AD3, offset: 0x43AD3, size: 0x8, addend: 0x0, symName: __ZNSt3__110unique_ptrINS_11__hash_nodeINS_17__hash_value_typeINS_12basic_stringIcNS_11char_traitsIcEENS_9allocatorIcEEEE4DataEEPvEENS_22__hash_node_destructorINS6_ISC_EEEEE7releaseB8ue170006Ev, symObjAddr: 0x8D0FC, symBinAddr: 0x100090470, symSize: 0xB8 }
  - { offsetInCU: 0x43B08, offset: 0x43B08, size: 0x8, addend: 0x0, symName: __ZNSt3__110unique_ptrINS_11__hash_nodeINS_17__hash_value_typeINS_12basic_stringIcNS_11char_traitsIcEENS_9allocatorIcEEEE4DataEEPvEENS_22__hash_node_destructorINS6_ISC_EEEEED1B8ue170006Ev, symObjAddr: 0x8D1B4, symBinAddr: 0x100090528, symSize: 0x2C }
  - { offsetInCU: 0x43B32, offset: 0x43B32, size: 0x8, addend: 0x0, symName: __ZNSt3__115__hash_iteratorIPNS_11__hash_nodeINS_17__hash_value_typeINS_12basic_stringIcNS_11char_traitsIcEENS_9allocatorIcEEEE4DataEEPvEEEC1B8ue170006EPNS_16__hash_node_baseISD_EE, symObjAddr: 0x8D1E0, symBinAddr: 0x100090554, symSize: 0x34 }
  - { offsetInCU: 0x43B71, offset: 0x43B71, size: 0x8, addend: 0x0, symName: __ZNSt3__14pairINS_15__hash_iteratorIPNS_11__hash_nodeINS_17__hash_value_typeINS_12basic_stringIcNS_11char_traitsIcEENS_9allocatorIcEEEE4DataEEPvEEEEbEC1B8ue170006ISF_RbLSC_0EEEOT_OT0_, symObjAddr: 0x8D214, symBinAddr: 0x100090588, symSize: 0x3C }
  - { offsetInCU: 0x43BCF, offset: 0x43BCF, size: 0x8, addend: 0x0, symName: __ZNSt3__117__compressed_pairImNS_22__unordered_map_hasherINS_12basic_stringIcNS_11char_traitsIcEENS_9allocatorIcEEEENS_17__hash_value_typeIS7_4DataEENS_4hashIS7_EENS_8equal_toIS7_EELb1EEEE6secondB8ue170006Ev, symObjAddr: 0x8D250, symBinAddr: 0x1000905C4, symSize: 0x24 }
  - { offsetInCU: 0x43BF5, offset: 0x43BF5, size: 0x8, addend: 0x0, symName: __ZNSt3__122__compressed_pair_elemINS_22__unordered_map_hasherINS_12basic_stringIcNS_11char_traitsIcEENS_9allocatorIcEEEENS_17__hash_value_typeIS7_4DataEENS_4hashIS7_EENS_8equal_toIS7_EELb1EEELi1ELb1EE5__getB8ue170006Ev, symObjAddr: 0x8D274, symBinAddr: 0x1000905E8, symSize: 0x14 }
  - { offsetInCU: 0x43C1B, offset: 0x43C1B, size: 0x8, addend: 0x0, symName: __ZNKSt3__110unique_ptrIA_PNS_16__hash_node_baseIPNS_11__hash_nodeINS_17__hash_value_typeINS_12basic_stringIcNS_11char_traitsIcEENS_9allocatorIcEEEE4DataEEPvEEEENS_25__bucket_list_deallocatorINS7_ISG_EEEEE11get_deleterB8ue170006Ev, symObjAddr: 0x8D288, symBinAddr: 0x1000905FC, symSize: 0x24 }
  - { offsetInCU: 0x43C41, offset: 0x43C41, size: 0x8, addend: 0x0, symName: __ZNKSt3__125__bucket_list_deallocatorINS_9allocatorIPNS_16__hash_node_baseIPNS_11__hash_nodeINS_17__hash_value_typeINS_12basic_stringIcNS_11char_traitsIcEENS1_IcEEEE4DataEEPvEEEEEEE4sizeB8ue170006Ev, symObjAddr: 0x8D2AC, symBinAddr: 0x100090620, symSize: 0x6C }
  - { offsetInCU: 0x43C67, offset: 0x43C67, size: 0x8, addend: 0x0, symName: __ZNKSt3__117__compressed_pairIPPNS_16__hash_node_baseIPNS_11__hash_nodeINS_17__hash_value_typeINS_12basic_stringIcNS_11char_traitsIcEENS_9allocatorIcEEEE4DataEEPvEEEENS_25__bucket_list_deallocatorINS7_ISG_EEEEE6secondB8ue170006Ev, symObjAddr: 0x8D318, symBinAddr: 0x10009068C, symSize: 0x28 }
  - { offsetInCU: 0x43C8D, offset: 0x43C8D, size: 0x8, addend: 0x0, symName: __ZNKSt3__122__compressed_pair_elemINS_25__bucket_list_deallocatorINS_9allocatorIPNS_16__hash_node_baseIPNS_11__hash_nodeINS_17__hash_value_typeINS_12basic_stringIcNS_11char_traitsIcEENS2_IcEEEE4DataEEPvEEEEEEEELi1ELb0EE5__getB8ue170006Ev, symObjAddr: 0x8D340, symBinAddr: 0x1000906B4, symSize: 0x14 }
  - { offsetInCU: 0x43CB3, offset: 0x43CB3, size: 0x8, addend: 0x0, symName: __ZNKSt3__117__compressed_pairImNS_9allocatorIPNS_16__hash_node_baseIPNS_11__hash_nodeINS_17__hash_value_typeINS_12basic_stringIcNS_11char_traitsIcEENS1_IcEEEE4DataEEPvEEEEEEE5firstB8ue170006Ev, symObjAddr: 0x8D354, symBinAddr: 0x1000906C8, symSize: 0x24 }
  - { offsetInCU: 0x43CD9, offset: 0x43CD9, size: 0x8, addend: 0x0, symName: __ZNKSt3__117__compressed_pairIPPNS_16__hash_node_baseIPNS_11__hash_nodeINS_17__hash_value_typeINS_12basic_stringIcNS_11char_traitsIcEENS_9allocatorIcEEEE4DataEEPvEEEENS_25__bucket_list_deallocatorINS7_ISG_EEEEE5firstB8ue170006Ev, symObjAddr: 0x8D378, symBinAddr: 0x1000906EC, symSize: 0x24 }
  - { offsetInCU: 0x43CFF, offset: 0x43CFF, size: 0x8, addend: 0x0, symName: __ZNKSt3__122__compressed_pair_elemIPPNS_16__hash_node_baseIPNS_11__hash_nodeINS_17__hash_value_typeINS_12basic_stringIcNS_11char_traitsIcEENS_9allocatorIcEEEE4DataEEPvEEEELi0ELb0EE5__getB8ue170006Ev, symObjAddr: 0x8D39C, symBinAddr: 0x100090710, symSize: 0x14 }
  - { offsetInCU: 0x43D25, offset: 0x43D25, size: 0x8, addend: 0x0, symName: __ZNSt3__117__compressed_pairIfNS_21__unordered_map_equalINS_12basic_stringIcNS_11char_traitsIcEENS_9allocatorIcEEEENS_17__hash_value_typeIS7_4DataEENS_8equal_toIS7_EENS_4hashIS7_EELb1EEEE6secondB8ue170006Ev, symObjAddr: 0x8D3B0, symBinAddr: 0x100090724, symSize: 0x24 }
  - { offsetInCU: 0x43D4B, offset: 0x43D4B, size: 0x8, addend: 0x0, symName: __ZNSt3__122__compressed_pair_elemINS_21__unordered_map_equalINS_12basic_stringIcNS_11char_traitsIcEENS_9allocatorIcEEEENS_17__hash_value_typeIS7_4DataEENS_8equal_toIS7_EENS_4hashIS7_EELb1EEELi1ELb1EE5__getB8ue170006Ev, symObjAddr: 0x8D3D4, symBinAddr: 0x100090748, symSize: 0x14 }
  - { offsetInCU: 0x43D71, offset: 0x43D71, size: 0x8, addend: 0x0, symName: __ZNKSt3__117__hash_value_typeINS_12basic_stringIcNS_11char_traitsIcEENS_9allocatorIcEEEE4DataE11__get_valueB8ue170006Ev, symObjAddr: 0x8D3E8, symBinAddr: 0x10009075C, symSize: 0x24 }
  - { offsetInCU: 0x43D97, offset: 0x43D97, size: 0x8, addend: 0x0, symName: __ZNSt3__116allocator_traitsINS_9allocatorINS_11__hash_nodeINS_17__hash_value_typeINS_12basic_stringIcNS_11char_traitsIcEENS1_IcEEEE4DataEEPvEEEEE8allocateB8ue170006ERSD_m, symObjAddr: 0x8D444, symBinAddr: 0x1000907B8, symSize: 0x2C }
  - { offsetInCU: 0x43DCA, offset: 0x43DCA, size: 0x8, addend: 0x0, symName: __ZNSt3__122__hash_node_destructorINS_9allocatorINS_11__hash_nodeINS_17__hash_value_typeINS_12basic_stringIcNS_11char_traitsIcEENS1_IcEEEE4DataEEPvEEEEEC1B8ue170006ERSD_b, symObjAddr: 0x8D470, symBinAddr: 0x1000907E4, symSize: 0x48 }
  - { offsetInCU: 0x43E18, offset: 0x43E18, size: 0x8, addend: 0x0, symName: __ZNSt3__110unique_ptrINS_11__hash_nodeINS_17__hash_value_typeINS_12basic_stringIcNS_11char_traitsIcEENS_9allocatorIcEEEE4DataEEPvEENS_22__hash_node_destructorINS6_ISC_EEEEEC1B8ue170006ILb1EvEEPSC_NS_16__dependent_typeINS_27__unique_ptr_deleter_sfinaeISF_EEXT_EE20__good_rval_ref_typeE, symObjAddr: 0x8D4B8, symBinAddr: 0x10009082C, symSize: 0x3C }
  - { offsetInCU: 0x43E69, offset: 0x43E69, size: 0x8, addend: 0x0, symName: __ZNSt3__116allocator_traitsINS_9allocatorINS_11__hash_nodeINS_17__hash_value_typeINS_12basic_stringIcNS_11char_traitsIcEENS1_IcEEEE4DataEEPvEEEEE9constructB8ue170006INS_4pairIKS8_S9_EEJRSH_S9_EvvEEvRSD_PT_DpOT0_, symObjAddr: 0x8D4F4, symBinAddr: 0x100090868, symSize: 0x38 }
  - { offsetInCU: 0x43ED2, offset: 0x43ED2, size: 0x8, addend: 0x0, symName: __ZNSt3__110unique_ptrINS_11__hash_nodeINS_17__hash_value_typeINS_12basic_stringIcNS_11char_traitsIcEENS_9allocatorIcEEEE4DataEEPvEENS_22__hash_node_destructorINS6_ISC_EEEEE11get_deleterB8ue170006Ev, symObjAddr: 0x8D52C, symBinAddr: 0x1000908A0, symSize: 0x24 }
  - { offsetInCU: 0x43EF8, offset: 0x43EF8, size: 0x8, addend: 0x0, symName: __ZNSt3__19allocatorINS_11__hash_nodeINS_17__hash_value_typeINS_12basic_stringIcNS_11char_traitsIcEENS0_IcEEEE4DataEEPvEEE8allocateB8ue170006Em, symObjAddr: 0x8D550, symBinAddr: 0x1000908C4, symSize: 0x60 }
  - { offsetInCU: 0x43F37, offset: 0x43F37, size: 0x8, addend: 0x0, symName: __ZNSt3__116allocator_traitsINS_9allocatorINS_11__hash_nodeINS_17__hash_value_typeINS_12basic_stringIcNS_11char_traitsIcEENS1_IcEEEE4DataEEPvEEEEE8max_sizeB8ue170006ISD_vvEEmRKSD_, symObjAddr: 0x8D5B0, symBinAddr: 0x100090924, symSize: 0x28 }
  - { offsetInCU: 0x43F63, offset: 0x43F63, size: 0x8, addend: 0x0, symName: __ZNSt3__122__hash_node_destructorINS_9allocatorINS_11__hash_nodeINS_17__hash_value_typeINS_12basic_stringIcNS_11char_traitsIcEENS1_IcEEEE4DataEEPvEEEEEC2B8ue170006ERSD_b, symObjAddr: 0x8D5D8, symBinAddr: 0x10009094C, symSize: 0xF0 }
  - { offsetInCU: 0x43FAB, offset: 0x43FAB, size: 0x8, addend: 0x0, symName: __ZNSt3__110unique_ptrINS_11__hash_nodeINS_17__hash_value_typeINS_12basic_stringIcNS_11char_traitsIcEENS_9allocatorIcEEEE4DataEEPvEENS_22__hash_node_destructorINS6_ISC_EEEEEC2B8ue170006ILb1EvEEPSC_NS_16__dependent_typeINS_27__unique_ptr_deleter_sfinaeISF_EEXT_EE20__good_rval_ref_typeE, symObjAddr: 0x8D6C8, symBinAddr: 0x100090A3C, symSize: 0x21C }
  - { offsetInCU: 0x44002, offset: 0x44002, size: 0x8, addend: 0x0, symName: __ZNSt3__117__compressed_pairIPNS_11__hash_nodeINS_17__hash_value_typeINS_12basic_stringIcNS_11char_traitsIcEENS_9allocatorIcEEEE4DataEEPvEENS_22__hash_node_destructorINS6_ISC_EEEEEC1B8ue170006IRSD_SG_EEOT_OT0_, symObjAddr: 0x8D8E4, symBinAddr: 0x100090C58, symSize: 0x3C }
  - { offsetInCU: 0x4405A, offset: 0x4405A, size: 0x8, addend: 0x0, symName: __ZNSt3__117__compressed_pairIPNS_11__hash_nodeINS_17__hash_value_typeINS_12basic_stringIcNS_11char_traitsIcEENS_9allocatorIcEEEE4DataEEPvEENS_22__hash_node_destructorINS6_ISC_EEEEEC2B8ue170006IRSD_SG_EEOT_OT0_, symObjAddr: 0x8D920, symBinAddr: 0x100090C94, symSize: 0x48 }
  - { offsetInCU: 0x440B2, offset: 0x440B2, size: 0x8, addend: 0x0, symName: __ZNSt3__122__compressed_pair_elemIPNS_11__hash_nodeINS_17__hash_value_typeINS_12basic_stringIcNS_11char_traitsIcEENS_9allocatorIcEEEE4DataEEPvEELi0ELb0EEC2B8ue170006IRSD_vEEOT_, symObjAddr: 0x8D968, symBinAddr: 0x100090CDC, symSize: 0xB0 }
  - { offsetInCU: 0x440F4, offset: 0x440F4, size: 0x8, addend: 0x0, symName: __ZNSt3__122__compressed_pair_elemINS_22__hash_node_destructorINS_9allocatorINS_11__hash_nodeINS_17__hash_value_typeINS_12basic_stringIcNS_11char_traitsIcEENS2_IcEEEE4DataEEPvEEEEEELi1ELb0EEC2B8ue170006ISF_vEEOT_, symObjAddr: 0x8DA18, symBinAddr: 0x100090D8C, symSize: 0x38 }
  - { offsetInCU: 0x44136, offset: 0x44136, size: 0x8, addend: 0x0, symName: __ZNSt3__14pairIKNS_12basic_stringIcNS_11char_traitsIcEENS_9allocatorIcEEEE4DataEC1B8ue170006IRS7_S8_LPv0EEEOT_OT0_, symObjAddr: 0x8DA94, symBinAddr: 0x100090E08, symSize: 0x3C }
  - { offsetInCU: 0x44194, offset: 0x44194, size: 0x8, addend: 0x0, symName: __ZNSt3__14pairIKNS_12basic_stringIcNS_11char_traitsIcEENS_9allocatorIcEEEE4DataEC2B8ue170006IRS7_S8_LPv0EEEOT_OT0_, symObjAddr: 0x8DAD0, symBinAddr: 0x100090E44, symSize: 0x48 }
  - { offsetInCU: 0x441F2, offset: 0x441F2, size: 0x8, addend: 0x0, symName: __ZN4DataC1EOS_, symObjAddr: 0x8DB18, symBinAddr: 0x100090E8C, symSize: 0x34 }
  - { offsetInCU: 0x44227, offset: 0x44227, size: 0x8, addend: 0x0, symName: __ZN4DataC2EOS_, symObjAddr: 0x8DB4C, symBinAddr: 0x100090EC0, symSize: 0x4C }
  - { offsetInCU: 0x4425C, offset: 0x4425C, size: 0x8, addend: 0x0, symName: __ZNSt3__117__compressed_pairIPNS_11__hash_nodeINS_17__hash_value_typeINS_12basic_stringIcNS_11char_traitsIcEENS_9allocatorIcEEEE4DataEEPvEENS_22__hash_node_destructorINS6_ISC_EEEEE6secondB8ue170006Ev, symObjAddr: 0x8DB98, symBinAddr: 0x100090F0C, symSize: 0x28 }
  - { offsetInCU: 0x44282, offset: 0x44282, size: 0x8, addend: 0x0, symName: __ZNSt3__122__compressed_pair_elemINS_22__hash_node_destructorINS_9allocatorINS_11__hash_nodeINS_17__hash_value_typeINS_12basic_stringIcNS_11char_traitsIcEENS2_IcEEEE4DataEEPvEEEEEELi1ELb0EE5__getB8ue170006Ev, symObjAddr: 0x8DBC0, symBinAddr: 0x100090F34, symSize: 0x14 }
  - { offsetInCU: 0x442A8, offset: 0x442A8, size: 0x8, addend: 0x0, symName: __ZNSt3__117__compressed_pairImNS_22__unordered_map_hasherINS_12basic_stringIcNS_11char_traitsIcEENS_9allocatorIcEEEENS_17__hash_value_typeIS7_4DataEENS_4hashIS7_EENS_8equal_toIS7_EELb1EEEE5firstB8ue170006Ev, symObjAddr: 0x8DBD4, symBinAddr: 0x100090F48, symSize: 0x24 }
  - { offsetInCU: 0x442CE, offset: 0x442CE, size: 0x8, addend: 0x0, symName: __ZNSt3__117__compressed_pairIfNS_21__unordered_map_equalINS_12basic_stringIcNS_11char_traitsIcEENS_9allocatorIcEEEENS_17__hash_value_typeIS7_4DataEENS_8equal_toIS7_EENS_4hashIS7_EELb1EEEE5firstB8ue170006Ev, symObjAddr: 0x8DBF8, symBinAddr: 0x100090F6C, symSize: 0x24 }
  - { offsetInCU: 0x442F4, offset: 0x442F4, size: 0x8, addend: 0x0, symName: __ZNSt3__112__hash_tableINS_17__hash_value_typeINS_12basic_stringIcNS_11char_traitsIcEENS_9allocatorIcEEEE4DataEENS_22__unordered_map_hasherIS7_S9_NS_4hashIS7_EENS_8equal_toIS7_EELb1EEENS_21__unordered_map_equalIS7_S9_SE_SC_Lb1EEENS5_IS9_EEE8__rehashILb1EEEvm, symObjAddr: 0x8DC1C, symBinAddr: 0x100090F90, symSize: 0x784 }
  - { offsetInCU: 0x4434A, offset: 0x4434A, size: 0x8, addend: 0x0, symName: __ZNSt3__112__hash_tableINS_17__hash_value_typeINS_12basic_stringIcNS_11char_traitsIcEENS_9allocatorIcEEEE4DataEENS_22__unordered_map_hasherIS7_S9_NS_4hashIS7_EENS_8equal_toIS7_EELb1EEENS_21__unordered_map_equalIS7_S9_SE_SC_Lb1EEENS5_IS9_EEE11__do_rehashILb1EEEvm, symObjAddr: 0x8E3A0, symBinAddr: 0x100091714, symSize: 0x5BC }
  - { offsetInCU: 0x4442F, offset: 0x4442F, size: 0x8, addend: 0x0, symName: __ZNSt3__110unique_ptrIA_PNS_16__hash_node_baseIPNS_11__hash_nodeINS_17__hash_value_typeINS_12basic_stringIcNS_11char_traitsIcEENS_9allocatorIcEEEE4DataEEPvEEEENS_25__bucket_list_deallocatorINS7_ISG_EEEEE11get_deleterB8ue170006Ev, symObjAddr: 0x8E95C, symBinAddr: 0x100091CD0, symSize: 0x24 }
  - { offsetInCU: 0x44455, offset: 0x44455, size: 0x8, addend: 0x0, symName: __ZNSt3__110unique_ptrIA_PNS_16__hash_node_baseIPNS_11__hash_nodeINS_17__hash_value_typeINS_12basic_stringIcNS_11char_traitsIcEENS_9allocatorIcEEEE4DataEEPvEEEENS_25__bucket_list_deallocatorINS7_ISG_EEEEE5resetB8ue170006IPSG_EENS_9enable_ifIXsr28_CheckArrayPointerConversionIT_EE5valueEvE4typeESP_, symObjAddr: 0x8E980, symBinAddr: 0x100091CF4, symSize: 0xEC }
  - { offsetInCU: 0x444A2, offset: 0x444A2, size: 0x8, addend: 0x0, symName: __ZNSt3__116allocator_traitsINS_9allocatorIPNS_16__hash_node_baseIPNS_11__hash_nodeINS_17__hash_value_typeINS_12basic_stringIcNS_11char_traitsIcEENS1_IcEEEE4DataEEPvEEEEEEE8allocateB8ue170006ERSH_m, symObjAddr: 0x8EA6C, symBinAddr: 0x100091DE0, symSize: 0x2C }
  - { offsetInCU: 0x444D5, offset: 0x444D5, size: 0x8, addend: 0x0, symName: __ZNSt3__19allocatorIPNS_16__hash_node_baseIPNS_11__hash_nodeINS_17__hash_value_typeINS_12basic_stringIcNS_11char_traitsIcEENS0_IcEEEE4DataEEPvEEEEE8allocateB8ue170006Em, symObjAddr: 0x8EA98, symBinAddr: 0x100091E0C, symSize: 0x5C }
  - { offsetInCU: 0x44514, offset: 0x44514, size: 0x8, addend: 0x0, symName: __ZNSt3__116allocator_traitsINS_9allocatorIPNS_16__hash_node_baseIPNS_11__hash_nodeINS_17__hash_value_typeINS_12basic_stringIcNS_11char_traitsIcEENS1_IcEEEE4DataEEPvEEEEEEE8max_sizeB8ue170006ISH_vvEEmRKSH_, symObjAddr: 0x8EAF4, symBinAddr: 0x100091E68, symSize: 0x28 }
  - { offsetInCU: 0x44540, offset: 0x44540, size: 0x8, addend: 0x0, symName: __ZNKSt3__117__compressed_pairIPNS_11__hash_nodeINS_17__hash_value_typeINS_12basic_stringIcNS_11char_traitsIcEENS_9allocatorIcEEEE4DataEEPvEENS_22__hash_node_destructorINS6_ISC_EEEEE5firstB8ue170006Ev, symObjAddr: 0x8EB1C, symBinAddr: 0x100091E90, symSize: 0x24 }
  - { offsetInCU: 0x44566, offset: 0x44566, size: 0x8, addend: 0x0, symName: __ZNKSt3__122__compressed_pair_elemIPNS_11__hash_nodeINS_17__hash_value_typeINS_12basic_stringIcNS_11char_traitsIcEENS_9allocatorIcEEEE4DataEEPvEELi0ELb0EE5__getB8ue170006Ev, symObjAddr: 0x8EB40, symBinAddr: 0x100091EB4, symSize: 0x14 }
  - { offsetInCU: 0x4458C, offset: 0x4458C, size: 0x8, addend: 0x0, symName: __ZNSt3__117__compressed_pairIPNS_11__hash_nodeINS_17__hash_value_typeINS_12basic_stringIcNS_11char_traitsIcEENS_9allocatorIcEEEE4DataEEPvEENS_22__hash_node_destructorINS6_ISC_EEEEE5firstB8ue170006Ev, symObjAddr: 0x8EB54, symBinAddr: 0x100091EC8, symSize: 0x24 }
  - { offsetInCU: 0x445B2, offset: 0x445B2, size: 0x8, addend: 0x0, symName: __ZNSt3__122__compressed_pair_elemIPNS_11__hash_nodeINS_17__hash_value_typeINS_12basic_stringIcNS_11char_traitsIcEENS_9allocatorIcEEEE4DataEEPvEELi0ELb0EE5__getB8ue170006Ev, symObjAddr: 0x8EB78, symBinAddr: 0x100091EEC, symSize: 0x14 }
  - { offsetInCU: 0x445D8, offset: 0x445D8, size: 0x8, addend: 0x0, symName: __ZNSt3__110unique_ptrINS_11__hash_nodeINS_17__hash_value_typeINS_12basic_stringIcNS_11char_traitsIcEENS_9allocatorIcEEEE4DataEEPvEENS_22__hash_node_destructorINS6_ISC_EEEEED2B8ue170006Ev, symObjAddr: 0x8EB8C, symBinAddr: 0x100091F00, symSize: 0x30 }
  - { offsetInCU: 0x44602, offset: 0x44602, size: 0x8, addend: 0x0, symName: __ZNSt3__110unique_ptrINS_11__hash_nodeINS_17__hash_value_typeINS_12basic_stringIcNS_11char_traitsIcEENS_9allocatorIcEEEE4DataEEPvEENS_22__hash_node_destructorINS6_ISC_EEEEE5resetB8ue170006EPSC_, symObjAddr: 0x8EBBC, symBinAddr: 0x100091F30, symSize: 0xEC }
  - { offsetInCU: 0x44646, offset: 0x44646, size: 0x8, addend: 0x0, symName: __ZNSt3__122__hash_node_destructorINS_9allocatorINS_11__hash_nodeINS_17__hash_value_typeINS_12basic_stringIcNS_11char_traitsIcEENS1_IcEEEE4DataEEPvEEEEEclB8ue170006EPSC_, symObjAddr: 0x8ECA8, symBinAddr: 0x10009201C, symSize: 0x168 }
  - { offsetInCU: 0x4467B, offset: 0x4467B, size: 0x8, addend: 0x0, symName: __ZNSt3__115__hash_iteratorIPNS_11__hash_nodeINS_17__hash_value_typeINS_12basic_stringIcNS_11char_traitsIcEENS_9allocatorIcEEEE4DataEEPvEEEC2B8ue170006EPNS_16__hash_node_baseISD_EE, symObjAddr: 0x8EE10, symBinAddr: 0x100092184, symSize: 0x70 }
  - { offsetInCU: 0x446B4, offset: 0x446B4, size: 0x8, addend: 0x0, symName: __ZNSt3__14pairINS_15__hash_iteratorIPNS_11__hash_nodeINS_17__hash_value_typeINS_12basic_stringIcNS_11char_traitsIcEENS_9allocatorIcEEEE4DataEEPvEEEEbEC2B8ue170006ISF_RbLSC_0EEEOT_OT0_, symObjAddr: 0x8EE80, symBinAddr: 0x1000921F4, symSize: 0x120 }
  - { offsetInCU: 0x44712, offset: 0x44712, size: 0x8, addend: 0x0, symName: __ZNSt3__14pairINS_19__hash_map_iteratorINS_15__hash_iteratorIPNS_11__hash_nodeINS_17__hash_value_typeINS_12basic_stringIcNS_11char_traitsIcEENS_9allocatorIcEEEE4DataEEPvEEEEEEbEC2B8ue170006ISG_bLSD_0EEEONS0_IT_T0_EE, symObjAddr: 0x8EFA0, symBinAddr: 0x100092314, symSize: 0x2E8 }
  - { offsetInCU: 0x44765, offset: 0x44765, size: 0x8, addend: 0x0, symName: __ZNSt3__119__hash_map_iteratorINS_15__hash_iteratorIPNS_11__hash_nodeINS_17__hash_value_typeINS_12basic_stringIcNS_11char_traitsIcEENS_9allocatorIcEEEE4DataEEPvEEEEEC1B8ue170006ESF_, symObjAddr: 0x8F288, symBinAddr: 0x1000925FC, symSize: 0x238 }
  - { offsetInCU: 0x447A3, offset: 0x447A3, size: 0x8, addend: 0x0, symName: __ZNSt3__119__hash_map_iteratorINS_15__hash_iteratorIPNS_11__hash_nodeINS_17__hash_value_typeINS_12basic_stringIcNS_11char_traitsIcEENS_9allocatorIcEEEE4DataEEPvEEEEEC2B8ue170006ESF_, symObjAddr: 0x8F4C0, symBinAddr: 0x100092834, symSize: 0x204 }
  - { offsetInCU: 0x447E1, offset: 0x447E1, size: 0x8, addend: 0x0, symName: __ZNKSt3__112__hash_tableINS_12basic_stringIcNS_11char_traitsIcEENS_9allocatorIcEEEENS_4hashIS6_EENS_8equal_toIS6_EENS4_IS6_EEE4sizeB8ue170006Ev, symObjAddr: 0x8F6C4, symBinAddr: 0x100092A38, symSize: 0x70 }
  - { offsetInCU: 0x44807, offset: 0x44807, size: 0x8, addend: 0x0, symName: __ZNKSt3__117__compressed_pairImNS_4hashINS_12basic_stringIcNS_11char_traitsIcEENS_9allocatorIcEEEEEEE5firstB8ue170006Ev, symObjAddr: 0x8F734, symBinAddr: 0x100092AA8, symSize: 0x24 }
  - { offsetInCU: 0x4482D, offset: 0x4482D, size: 0x8, addend: 0x0, symName: __ZNSt3__16__treeINS_12__value_typeINS_12basic_stringIcNS_11char_traitsIcEENS_9allocatorIcEEEE4DataEENS_19__map_value_compareIS7_S9_NS_4lessIS7_EELb1EEENS5_IS9_EEE16__emplace_uniqueB8ue170006IRKS7_S8_EENS_9enable_ifIXsr21__can_extract_map_keyIT_S7_NS_4pairISH_S8_EEEE5valueENSL_INS_15__tree_iteratorIS9_PNS_11__tree_nodeIS9_PvEElEEbEEE4typeEOSK_OT0_, symObjAddr: 0x8F758, symBinAddr: 0x100092ACC, symSize: 0x230 }
  - { offsetInCU: 0x44886, offset: 0x44886, size: 0x8, addend: 0x0, symName: __ZNSt3__14pairINS_14__map_iteratorINS_15__tree_iteratorINS_12__value_typeINS_12basic_stringIcNS_11char_traitsIcEENS_9allocatorIcEEEE4DataEEPNS_11__tree_nodeISB_PvEElEEEEbEC1B8ue170006ISG_bLSD_0EEEONS0_IT_T0_EE, symObjAddr: 0x8F988, symBinAddr: 0x100092CFC, symSize: 0x34 }
  - { offsetInCU: 0x448D7, offset: 0x448D7, size: 0x8, addend: 0x0, symName: __ZNSt3__16__treeINS_12__value_typeINS_12basic_stringIcNS_11char_traitsIcEENS_9allocatorIcEEEE4DataEENS_19__map_value_compareIS7_S9_NS_4lessIS7_EELb1EEENS5_IS9_EEE25__emplace_unique_key_argsIS7_JRKS7_S8_EEENS_4pairINS_15__tree_iteratorIS9_PNS_11__tree_nodeIS9_PvEElEEbEERKT_DpOT0_, symObjAddr: 0x8F9BC, symBinAddr: 0x100092D30, symSize: 0x518 }
  - { offsetInCU: 0x449A8, offset: 0x449A8, size: 0x8, addend: 0x0, symName: __ZNSt3__16__treeINS_12__value_typeINS_12basic_stringIcNS_11char_traitsIcEENS_9allocatorIcEEEE4DataEENS_19__map_value_compareIS7_S9_NS_4lessIS7_EELb1EEENS5_IS9_EEE12__find_equalIS7_EERPNS_16__tree_node_baseIPvEERPNS_15__tree_end_nodeISK_EERKT_, symObjAddr: 0x8FED4, symBinAddr: 0x100093248, symSize: 0x3F0 }
  - { offsetInCU: 0x44A15, offset: 0x44A15, size: 0x8, addend: 0x0, symName: __ZNSt3__16__treeINS_12__value_typeINS_12basic_stringIcNS_11char_traitsIcEENS_9allocatorIcEEEE4DataEENS_19__map_value_compareIS7_S9_NS_4lessIS7_EELb1EEENS5_IS9_EEE16__construct_nodeIJRKS7_S8_EEENS_10unique_ptrINS_11__tree_nodeIS9_PvEENS_22__tree_node_destructorINS5_ISM_EEEEEEDpOT_, symObjAddr: 0x902C4, symBinAddr: 0x100093638, symSize: 0x38C }
  - { offsetInCU: 0x44A8F, offset: 0x44A8F, size: 0x8, addend: 0x0, symName: __ZNSt3__16__treeINS_12__value_typeINS_12basic_stringIcNS_11char_traitsIcEENS_9allocatorIcEEEE4DataEENS_19__map_value_compareIS7_S9_NS_4lessIS7_EELb1EEENS5_IS9_EEE16__insert_node_atEPNS_15__tree_end_nodeIPNS_16__tree_node_baseIPvEEEERSK_SK_, symObjAddr: 0x90650, symBinAddr: 0x1000939C4, symSize: 0x370 }
  - { offsetInCU: 0x44AE4, offset: 0x44AE4, size: 0x8, addend: 0x0, symName: __ZNKSt3__110unique_ptrINS_11__tree_nodeINS_12__value_typeINS_12basic_stringIcNS_11char_traitsIcEENS_9allocatorIcEEEE4DataEEPvEENS_22__tree_node_destructorINS6_ISC_EEEEE3getB8ue170006Ev, symObjAddr: 0x909C0, symBinAddr: 0x100093D34, symSize: 0x6C }
  - { offsetInCU: 0x44B0A, offset: 0x44B0A, size: 0x8, addend: 0x0, symName: __ZNSt3__110unique_ptrINS_11__tree_nodeINS_12__value_typeINS_12basic_stringIcNS_11char_traitsIcEENS_9allocatorIcEEEE4DataEEPvEENS_22__tree_node_destructorINS6_ISC_EEEEE7releaseB8ue170006Ev, symObjAddr: 0x90A2C, symBinAddr: 0x100093DA0, symSize: 0xB8 }
  - { offsetInCU: 0x44B3F, offset: 0x44B3F, size: 0x8, addend: 0x0, symName: __ZNSt3__110unique_ptrINS_11__tree_nodeINS_12__value_typeINS_12basic_stringIcNS_11char_traitsIcEENS_9allocatorIcEEEE4DataEEPvEENS_22__tree_node_destructorINS6_ISC_EEEEED1B8ue170006Ev, symObjAddr: 0x90AE4, symBinAddr: 0x100093E58, symSize: 0x2C }
  - { offsetInCU: 0x44B69, offset: 0x44B69, size: 0x8, addend: 0x0, symName: __ZNSt3__115__tree_iteratorINS_12__value_typeINS_12basic_stringIcNS_11char_traitsIcEENS_9allocatorIcEEEE4DataEEPNS_11__tree_nodeIS9_PvEElEC1B8ue170006ESD_, symObjAddr: 0x90B10, symBinAddr: 0x100093E84, symSize: 0x34 }
  - { offsetInCU: 0x44BA8, offset: 0x44BA8, size: 0x8, addend: 0x0, symName: __ZNSt3__14pairINS_15__tree_iteratorINS_12__value_typeINS_12basic_stringIcNS_11char_traitsIcEENS_9allocatorIcEEEE4DataEEPNS_11__tree_nodeISA_PvEElEEbEC1B8ue170006ISF_RbLSC_0EEEOT_OT0_, symObjAddr: 0x90B44, symBinAddr: 0x100093EB8, symSize: 0x3C }
  - { offsetInCU: 0x44C06, offset: 0x44C06, size: 0x8, addend: 0x0, symName: __ZNKSt3__16__treeINS_12__value_typeINS_12basic_stringIcNS_11char_traitsIcEENS_9allocatorIcEEEE4DataEENS_19__map_value_compareIS7_S9_NS_4lessIS7_EELb1EEENS5_IS9_EEE10__root_ptrB8ue170006Ev, symObjAddr: 0x90B80, symBinAddr: 0x100093EF4, symSize: 0x24 }
  - { offsetInCU: 0x44C2C, offset: 0x44C2C, size: 0x8, addend: 0x0, symName: __ZNSt3__16__treeINS_12__value_typeINS_12basic_stringIcNS_11char_traitsIcEENS_9allocatorIcEEEE4DataEENS_19__map_value_compareIS7_S9_NS_4lessIS7_EELb1EEENS5_IS9_EEE10value_compB8ue170006Ev, symObjAddr: 0x90BA4, symBinAddr: 0x100093F18, symSize: 0x28 }
  - { offsetInCU: 0x44C52, offset: 0x44C52, size: 0x8, addend: 0x0, symName: __ZNKSt3__119__map_value_compareINS_12basic_stringIcNS_11char_traitsIcEENS_9allocatorIcEEEENS_12__value_typeIS6_4DataEENS_4lessIS6_EELb1EEclB8ue170006ERKS6_RKS9_, symObjAddr: 0x90BCC, symBinAddr: 0x100093F40, symSize: 0x50 }
  - { offsetInCU: 0x44C96, offset: 0x44C96, size: 0x8, addend: 0x0, symName: __ZNKSt3__119__map_value_compareINS_12basic_stringIcNS_11char_traitsIcEENS_9allocatorIcEEEENS_12__value_typeIS6_4DataEENS_4lessIS6_EELb1EEclB8ue170006ERKS9_RKS6_, symObjAddr: 0x90C1C, symBinAddr: 0x100093F90, symSize: 0x48 }
  - { offsetInCU: 0x44CDA, offset: 0x44CDA, size: 0x8, addend: 0x0, symName: __ZNSt3__117__compressed_pairImNS_19__map_value_compareINS_12basic_stringIcNS_11char_traitsIcEENS_9allocatorIcEEEENS_12__value_typeIS7_4DataEENS_4lessIS7_EELb1EEEE6secondB8ue170006Ev, symObjAddr: 0x90C64, symBinAddr: 0x100093FD8, symSize: 0x24 }
  - { offsetInCU: 0x44D00, offset: 0x44D00, size: 0x8, addend: 0x0, symName: __ZNSt3__122__compressed_pair_elemINS_19__map_value_compareINS_12basic_stringIcNS_11char_traitsIcEENS_9allocatorIcEEEENS_12__value_typeIS7_4DataEENS_4lessIS7_EELb1EEELi1ELb1EE5__getB8ue170006Ev, symObjAddr: 0x90C88, symBinAddr: 0x100093FFC, symSize: 0x14 }
  - { offsetInCU: 0x44D26, offset: 0x44D26, size: 0x8, addend: 0x0, symName: __ZNKSt3__14lessINS_12basic_stringIcNS_11char_traitsIcEENS_9allocatorIcEEEEEclB8ue170006ERKS6_S9_, symObjAddr: 0x90C9C, symBinAddr: 0x100094010, symSize: 0x2AC }
  - { offsetInCU: 0x44D6D, offset: 0x44D6D, size: 0x8, addend: 0x0, symName: __ZNKSt3__112__value_typeINS_12basic_stringIcNS_11char_traitsIcEENS_9allocatorIcEEEE4DataE11__get_valueB8ue170006Ev, symObjAddr: 0x90F48, symBinAddr: 0x1000942BC, symSize: 0x24 }
  - { offsetInCU: 0x44DA2, offset: 0x44DA2, size: 0x8, addend: 0x0, symName: __ZNSt3__120_CmpUnspecifiedParamC1B8ue170006EMS0_i, symObjAddr: 0x9158C, symBinAddr: 0x100094900, symSize: 0x34 }
  - { offsetInCU: 0x44DD7, offset: 0x44DD7, size: 0x8, addend: 0x0, symName: __ZNSt3__120_CmpUnspecifiedParamC2B8ue170006EMS0_i, symObjAddr: 0x919A8, symBinAddr: 0x100094D1C, symSize: 0x18 }
  - { offsetInCU: 0x44E0C, offset: 0x44E0C, size: 0x8, addend: 0x0, symName: __ZNSt3__116allocator_traitsINS_9allocatorINS_11__tree_nodeINS_12__value_typeINS_12basic_stringIcNS_11char_traitsIcEENS1_IcEEEE4DataEEPvEEEEE8allocateB8ue170006ERSD_m, symObjAddr: 0x919C0, symBinAddr: 0x100094D34, symSize: 0x2C }
  - { offsetInCU: 0x44E3F, offset: 0x44E3F, size: 0x8, addend: 0x0, symName: __ZNSt3__122__tree_node_destructorINS_9allocatorINS_11__tree_nodeINS_12__value_typeINS_12basic_stringIcNS_11char_traitsIcEENS1_IcEEEE4DataEEPvEEEEEC1B8ue170006ERSD_b, symObjAddr: 0x919EC, symBinAddr: 0x100094D60, symSize: 0x48 }
  - { offsetInCU: 0x44E8D, offset: 0x44E8D, size: 0x8, addend: 0x0, symName: __ZNSt3__110unique_ptrINS_11__tree_nodeINS_12__value_typeINS_12basic_stringIcNS_11char_traitsIcEENS_9allocatorIcEEEE4DataEEPvEENS_22__tree_node_destructorINS6_ISC_EEEEEC1B8ue170006ILb1EvEEPSC_NS_16__dependent_typeINS_27__unique_ptr_deleter_sfinaeISF_EEXT_EE20__good_rval_ref_typeE, symObjAddr: 0x91A34, symBinAddr: 0x100094DA8, symSize: 0x3C }
  - { offsetInCU: 0x44EDE, offset: 0x44EDE, size: 0x8, addend: 0x0, symName: __ZNSt3__116allocator_traitsINS_9allocatorINS_11__tree_nodeINS_12__value_typeINS_12basic_stringIcNS_11char_traitsIcEENS1_IcEEEE4DataEEPvEEEEE9constructB8ue170006INS_4pairIKS8_S9_EEJRSH_S9_EvvEEvRSD_PT_DpOT0_, symObjAddr: 0x91A70, symBinAddr: 0x100094DE4, symSize: 0x38 }
  - { offsetInCU: 0x44F47, offset: 0x44F47, size: 0x8, addend: 0x0, symName: __ZNKSt3__110unique_ptrINS_11__tree_nodeINS_12__value_typeINS_12basic_stringIcNS_11char_traitsIcEENS_9allocatorIcEEEE4DataEEPvEENS_22__tree_node_destructorINS6_ISC_EEEEEptB8ue170006Ev, symObjAddr: 0x91AA8, symBinAddr: 0x100094E1C, symSize: 0x6C }
  - { offsetInCU: 0x44F6D, offset: 0x44F6D, size: 0x8, addend: 0x0, symName: __ZNSt3__110unique_ptrINS_11__tree_nodeINS_12__value_typeINS_12basic_stringIcNS_11char_traitsIcEENS_9allocatorIcEEEE4DataEEPvEENS_22__tree_node_destructorINS6_ISC_EEEEE11get_deleterB8ue170006Ev, symObjAddr: 0x91B14, symBinAddr: 0x100094E88, symSize: 0x24 }
  - { offsetInCU: 0x44F93, offset: 0x44F93, size: 0x8, addend: 0x0, symName: __ZNSt3__19allocatorINS_11__tree_nodeINS_12__value_typeINS_12basic_stringIcNS_11char_traitsIcEENS0_IcEEEE4DataEEPvEEE8allocateB8ue170006Em, symObjAddr: 0x91B38, symBinAddr: 0x100094EAC, symSize: 0x60 }
  - { offsetInCU: 0x44FD2, offset: 0x44FD2, size: 0x8, addend: 0x0, symName: __ZNSt3__116allocator_traitsINS_9allocatorINS_11__tree_nodeINS_12__value_typeINS_12basic_stringIcNS_11char_traitsIcEENS1_IcEEEE4DataEEPvEEEEE8max_sizeB8ue170006ISD_vvEEmRKSD_, symObjAddr: 0x91B98, symBinAddr: 0x100094F0C, symSize: 0x28 }
  - { offsetInCU: 0x44FFE, offset: 0x44FFE, size: 0x8, addend: 0x0, symName: __ZNSt3__122__tree_node_destructorINS_9allocatorINS_11__tree_nodeINS_12__value_typeINS_12basic_stringIcNS_11char_traitsIcEENS1_IcEEEE4DataEEPvEEEEEC2B8ue170006ERSD_b, symObjAddr: 0x91BC0, symBinAddr: 0x100094F34, symSize: 0xF0 }
  - { offsetInCU: 0x45046, offset: 0x45046, size: 0x8, addend: 0x0, symName: __ZNSt3__110unique_ptrINS_11__tree_nodeINS_12__value_typeINS_12basic_stringIcNS_11char_traitsIcEENS_9allocatorIcEEEE4DataEEPvEENS_22__tree_node_destructorINS6_ISC_EEEEEC2B8ue170006ILb1EvEEPSC_NS_16__dependent_typeINS_27__unique_ptr_deleter_sfinaeISF_EEXT_EE20__good_rval_ref_typeE, symObjAddr: 0x91CB0, symBinAddr: 0x100095024, symSize: 0x21C }
  - { offsetInCU: 0x4509D, offset: 0x4509D, size: 0x8, addend: 0x0, symName: __ZNSt3__117__compressed_pairIPNS_11__tree_nodeINS_12__value_typeINS_12basic_stringIcNS_11char_traitsIcEENS_9allocatorIcEEEE4DataEEPvEENS_22__tree_node_destructorINS6_ISC_EEEEEC1B8ue170006IRSD_SG_EEOT_OT0_, symObjAddr: 0x91ECC, symBinAddr: 0x100095240, symSize: 0x3C }
  - { offsetInCU: 0x450F5, offset: 0x450F5, size: 0x8, addend: 0x0, symName: __ZNSt3__117__compressed_pairIPNS_11__tree_nodeINS_12__value_typeINS_12basic_stringIcNS_11char_traitsIcEENS_9allocatorIcEEEE4DataEEPvEENS_22__tree_node_destructorINS6_ISC_EEEEEC2B8ue170006IRSD_SG_EEOT_OT0_, symObjAddr: 0x91F08, symBinAddr: 0x10009527C, symSize: 0x48 }
  - { offsetInCU: 0x4514D, offset: 0x4514D, size: 0x8, addend: 0x0, symName: __ZNSt3__122__compressed_pair_elemIPNS_11__tree_nodeINS_12__value_typeINS_12basic_stringIcNS_11char_traitsIcEENS_9allocatorIcEEEE4DataEEPvEELi0ELb0EEC2B8ue170006IRSD_vEEOT_, symObjAddr: 0x91F50, symBinAddr: 0x1000952C4, symSize: 0xB0 }
  - { offsetInCU: 0x4518F, offset: 0x4518F, size: 0x8, addend: 0x0, symName: __ZNSt3__122__compressed_pair_elemINS_22__tree_node_destructorINS_9allocatorINS_11__tree_nodeINS_12__value_typeINS_12basic_stringIcNS_11char_traitsIcEENS2_IcEEEE4DataEEPvEEEEEELi1ELb0EEC2B8ue170006ISF_vEEOT_, symObjAddr: 0x92000, symBinAddr: 0x100095374, symSize: 0x38 }
  - { offsetInCU: 0x451D1, offset: 0x451D1, size: 0x8, addend: 0x0, symName: __ZNKSt3__117__compressed_pairIPNS_11__tree_nodeINS_12__value_typeINS_12basic_stringIcNS_11char_traitsIcEENS_9allocatorIcEEEE4DataEEPvEENS_22__tree_node_destructorINS6_ISC_EEEEE5firstB8ue170006Ev, symObjAddr: 0x92038, symBinAddr: 0x1000953AC, symSize: 0x24 }
  - { offsetInCU: 0x451F7, offset: 0x451F7, size: 0x8, addend: 0x0, symName: __ZNKSt3__122__compressed_pair_elemIPNS_11__tree_nodeINS_12__value_typeINS_12basic_stringIcNS_11char_traitsIcEENS_9allocatorIcEEEE4DataEEPvEELi0ELb0EE5__getB8ue170006Ev, symObjAddr: 0x9205C, symBinAddr: 0x1000953D0, symSize: 0x14 }
  - { offsetInCU: 0x4521D, offset: 0x4521D, size: 0x8, addend: 0x0, symName: __ZNSt3__117__compressed_pairIPNS_11__tree_nodeINS_12__value_typeINS_12basic_stringIcNS_11char_traitsIcEENS_9allocatorIcEEEE4DataEEPvEENS_22__tree_node_destructorINS6_ISC_EEEEE6secondB8ue170006Ev, symObjAddr: 0x92070, symBinAddr: 0x1000953E4, symSize: 0x28 }
  - { offsetInCU: 0x45243, offset: 0x45243, size: 0x8, addend: 0x0, symName: __ZNSt3__122__compressed_pair_elemINS_22__tree_node_destructorINS_9allocatorINS_11__tree_nodeINS_12__value_typeINS_12basic_stringIcNS_11char_traitsIcEENS2_IcEEEE4DataEEPvEEEEEELi1ELb0EE5__getB8ue170006Ev, symObjAddr: 0x92098, symBinAddr: 0x10009540C, symSize: 0x14 }
  - { offsetInCU: 0x45269, offset: 0x45269, size: 0x8, addend: 0x0, symName: __ZNSt3__16__treeINS_12__value_typeINS_12basic_stringIcNS_11char_traitsIcEENS_9allocatorIcEEEE4DataEENS_19__map_value_compareIS7_S9_NS_4lessIS7_EELb1EEENS5_IS9_EEE4sizeB8ue170006Ev, symObjAddr: 0x92A0C, symBinAddr: 0x100095D80, symSize: 0x28 }
  - { offsetInCU: 0x4528F, offset: 0x4528F, size: 0x8, addend: 0x0, symName: __ZNKSt3__116__tree_node_baseIPvE15__parent_unsafeB8ue170006Ev, symObjAddr: 0x92A34, symBinAddr: 0x100095DA8, symSize: 0x64 }
  - { offsetInCU: 0x452B5, offset: 0x452B5, size: 0x8, addend: 0x0, symName: __ZNSt3__116__tree_node_baseIPvE12__set_parentB8ue170006EPS2_, symObjAddr: 0x93218, symBinAddr: 0x10009658C, symSize: 0x74 }
  - { offsetInCU: 0x452EA, offset: 0x452EA, size: 0x8, addend: 0x0, symName: __ZNSt3__117__compressed_pairImNS_19__map_value_compareINS_12basic_stringIcNS_11char_traitsIcEENS_9allocatorIcEEEENS_12__value_typeIS7_4DataEENS_4lessIS7_EELb1EEEE5firstB8ue170006Ev, symObjAddr: 0x9328C, symBinAddr: 0x100096600, symSize: 0x24 }
  - { offsetInCU: 0x45310, offset: 0x45310, size: 0x8, addend: 0x0, symName: __ZNSt3__117__compressed_pairIPNS_11__tree_nodeINS_12__value_typeINS_12basic_stringIcNS_11char_traitsIcEENS_9allocatorIcEEEE4DataEEPvEENS_22__tree_node_destructorINS6_ISC_EEEEE5firstB8ue170006Ev, symObjAddr: 0x932B0, symBinAddr: 0x100096624, symSize: 0x24 }
  - { offsetInCU: 0x45336, offset: 0x45336, size: 0x8, addend: 0x0, symName: __ZNSt3__122__compressed_pair_elemIPNS_11__tree_nodeINS_12__value_typeINS_12basic_stringIcNS_11char_traitsIcEENS_9allocatorIcEEEE4DataEEPvEELi0ELb0EE5__getB8ue170006Ev, symObjAddr: 0x932D4, symBinAddr: 0x100096648, symSize: 0x14 }
  - { offsetInCU: 0x4535C, offset: 0x4535C, size: 0x8, addend: 0x0, symName: __ZNSt3__110unique_ptrINS_11__tree_nodeINS_12__value_typeINS_12basic_stringIcNS_11char_traitsIcEENS_9allocatorIcEEEE4DataEEPvEENS_22__tree_node_destructorINS6_ISC_EEEEED2B8ue170006Ev, symObjAddr: 0x932E8, symBinAddr: 0x10009665C, symSize: 0x30 }
  - { offsetInCU: 0x45386, offset: 0x45386, size: 0x8, addend: 0x0, symName: __ZNSt3__110unique_ptrINS_11__tree_nodeINS_12__value_typeINS_12basic_stringIcNS_11char_traitsIcEENS_9allocatorIcEEEE4DataEEPvEENS_22__tree_node_destructorINS6_ISC_EEEEE5resetB8ue170006EPSC_, symObjAddr: 0x93318, symBinAddr: 0x10009668C, symSize: 0xEC }
  - { offsetInCU: 0x453CA, offset: 0x453CA, size: 0x8, addend: 0x0, symName: __ZNSt3__122__tree_node_destructorINS_9allocatorINS_11__tree_nodeINS_12__value_typeINS_12basic_stringIcNS_11char_traitsIcEENS1_IcEEEE4DataEEPvEEEEEclB8ue170006EPSC_, symObjAddr: 0x93404, symBinAddr: 0x100096778, symSize: 0x168 }
  - { offsetInCU: 0x453FF, offset: 0x453FF, size: 0x8, addend: 0x0, symName: __ZNSt3__115__tree_iteratorINS_12__value_typeINS_12basic_stringIcNS_11char_traitsIcEENS_9allocatorIcEEEE4DataEEPNS_11__tree_nodeIS9_PvEElEC2B8ue170006ESD_, symObjAddr: 0x9356C, symBinAddr: 0x1000968E0, symSize: 0x70 }
  - { offsetInCU: 0x45438, offset: 0x45438, size: 0x8, addend: 0x0, symName: __ZNSt3__14pairINS_15__tree_iteratorINS_12__value_typeINS_12basic_stringIcNS_11char_traitsIcEENS_9allocatorIcEEEE4DataEEPNS_11__tree_nodeISA_PvEElEEbEC2B8ue170006ISF_RbLSC_0EEEOT_OT0_, symObjAddr: 0x935DC, symBinAddr: 0x100096950, symSize: 0x120 }
  - { offsetInCU: 0x45496, offset: 0x45496, size: 0x8, addend: 0x0, symName: __ZNSt3__14pairINS_14__map_iteratorINS_15__tree_iteratorINS_12__value_typeINS_12basic_stringIcNS_11char_traitsIcEENS_9allocatorIcEEEE4DataEEPNS_11__tree_nodeISB_PvEElEEEEbEC2B8ue170006ISG_bLSD_0EEEONS0_IT_T0_EE, symObjAddr: 0x936FC, symBinAddr: 0x100096A70, symSize: 0x2E8 }
  - { offsetInCU: 0x454E9, offset: 0x454E9, size: 0x8, addend: 0x0, symName: __ZNSt3__114__map_iteratorINS_15__tree_iteratorINS_12__value_typeINS_12basic_stringIcNS_11char_traitsIcEENS_9allocatorIcEEEE4DataEEPNS_11__tree_nodeISA_PvEElEEEC1B8ue170006ESF_, symObjAddr: 0x939E4, symBinAddr: 0x100096D58, symSize: 0x238 }
  - { offsetInCU: 0x45527, offset: 0x45527, size: 0x8, addend: 0x0, symName: __ZNSt3__114__map_iteratorINS_15__tree_iteratorINS_12__value_typeINS_12basic_stringIcNS_11char_traitsIcEENS_9allocatorIcEEEE4DataEEPNS_11__tree_nodeISA_PvEElEEEC2B8ue170006ESF_, symObjAddr: 0x93C1C, symBinAddr: 0x100096F90, symSize: 0x204 }
  - { offsetInCU: 0x45565, offset: 0x45565, size: 0x8, addend: 0x0, symName: __ZNK9SplayTreeIcPN14FlashRadixTreeINSt3__112basic_stringIcNS1_11char_traitsIcEENS1_9allocatorIcEEEE4DataL9MatchMode0EE18FlashRadixTreeNodeEE9XiteratorILNSD_17IteratorDirectionE0EEptEv, symObjAddr: 0x93E20, symBinAddr: 0x100097194, symSize: 0x60 }
  - { offsetInCU: 0x4558B, offset: 0x4558B, size: 0x8, addend: 0x0, symName: __ZN14FlashRadixTreeINSt3__112basic_stringIcNS0_11char_traitsIcEENS0_9allocatorIcEEEE4DataL9MatchMode0EE18FlashRadixTreeNodeC1ERKS6_OKS7_bPSA_, symObjAddr: 0x93E80, symBinAddr: 0x1000971F4, symSize: 0x58 }
  - { offsetInCU: 0x455ED, offset: 0x455ED, size: 0x8, addend: 0x0, symName: __ZN9SplayTreeIcPN14FlashRadixTreeINSt3__112basic_stringIcNS1_11char_traitsIcEENS1_9allocatorIcEEEE4DataL9MatchMode0EE18FlashRadixTreeNodeEE6insertEcSC_, symObjAddr: 0x93ED8, symBinAddr: 0x10009724C, symSize: 0x174 }
  - { offsetInCU: 0x4562F, offset: 0x4562F, size: 0x8, addend: 0x0, symName: __ZN14FlashRadixTreeINSt3__112basic_stringIcNS0_11char_traitsIcEENS0_9allocatorIcEEEE4DataL9MatchMode0EE18FlashRadixTreeNode13setMyIteratorERKN9SplayTreeIcPSA_E9XiteratorILNSD_17IteratorDirectionE0EEE, symObjAddr: 0x9404C, symBinAddr: 0x1000973C0, symSize: 0x30 }
  - { offsetInCU: 0x45664, offset: 0x45664, size: 0x8, addend: 0x0, symName: __ZN14FlashRadixTreeINSt3__112basic_stringIcNS0_11char_traitsIcEENS0_9allocatorIcEEEE4DataL9MatchMode0EE18FlashRadixTreeNodeC1ERKS6_OKS7_PSA_, symObjAddr: 0x9407C, symBinAddr: 0x1000973F0, symSize: 0x44 }
  - { offsetInCU: 0x456B8, offset: 0x456B8, size: 0x8, addend: 0x0, symName: __ZN14FlashRadixTreeINSt3__112basic_stringIcNS0_11char_traitsIcEENS0_9allocatorIcEEEE4DataL9MatchMode0EE23XFlashRadixTreeIteratorILNS9_17IteratorDirectionE0EEC1ERKSC_, symObjAddr: 0x940C0, symBinAddr: 0x100097434, symSize: 0x34 }
  - { offsetInCU: 0x456F0, offset: 0x456F0, size: 0x8, addend: 0x0, symName: __ZN14FlashRadixTreeINSt3__112basic_stringIcNS0_11char_traitsIcEENS0_9allocatorIcEEEE4DataL9MatchMode0EE18FlashRadixTreeNodeC2ERKS6_OKS7_bPSA_, symObjAddr: 0x940F4, symBinAddr: 0x100097468, symSize: 0x21C }
  - { offsetInCU: 0x45758, offset: 0x45758, size: 0x8, addend: 0x0, symName: __ZN4DataC1ERKS_, symObjAddr: 0x94310, symBinAddr: 0x100097684, symSize: 0x34 }
  - { offsetInCU: 0x4578D, offset: 0x4578D, size: 0x8, addend: 0x0, symName: __ZN4DataC2ERKS_, symObjAddr: 0x94344, symBinAddr: 0x1000976B8, symSize: 0x4C }
  - { offsetInCU: 0x457C2, offset: 0x457C2, size: 0x8, addend: 0x0, symName: __ZN9SplayTreeIcPN14FlashRadixTreeINSt3__112basic_stringIcNS1_11char_traitsIcEENS1_9allocatorIcEEEE4DataL9MatchMode0EE18FlashRadixTreeNodeEE9_New_NodeEcSC_, symObjAddr: 0x9474C, symBinAddr: 0x100097AC0, symSize: 0x13C }
  - { offsetInCU: 0x45815, offset: 0x45815, size: 0x8, addend: 0x0, symName: __ZN9SplayTreeIcPN14FlashRadixTreeINSt3__112basic_stringIcNS1_11char_traitsIcEENS1_9allocatorIcEEEE4DataL9MatchMode0EE18FlashRadixTreeNodeEE5splayC1EcSC_, symObjAddr: 0x94888, symBinAddr: 0x100097BFC, symSize: 0x3C }
  - { offsetInCU: 0x4585B, offset: 0x4585B, size: 0x8, addend: 0x0, symName: __ZN9SplayTreeIcPN14FlashRadixTreeINSt3__112basic_stringIcNS1_11char_traitsIcEENS1_9allocatorIcEEEE4DataL9MatchMode0EE18FlashRadixTreeNodeEE5splayC2EcSC_, symObjAddr: 0x948C4, symBinAddr: 0x100097C38, symSize: 0x150 }
  - { offsetInCU: 0x458A1, offset: 0x458A1, size: 0x8, addend: 0x0, symName: __ZN9SplayTreeIcPN14FlashRadixTreeINSt3__112basic_stringIcNS1_11char_traitsIcEENS1_9allocatorIcEEEE4DataL9MatchMode0EE18FlashRadixTreeNodeEE9XiteratorILNSD_17IteratorDirectionE0EEaSERKSG_, symObjAddr: 0x94A14, symBinAddr: 0x100097D88, symSize: 0x268 }
  - { offsetInCU: 0x458D5, offset: 0x458D5, size: 0x8, addend: 0x0, symName: __ZN14FlashRadixTreeINSt3__112basic_stringIcNS0_11char_traitsIcEENS0_9allocatorIcEEEE4DataL9MatchMode0EE18FlashRadixTreeNodeC2ERKS6_OKS7_PSA_, symObjAddr: 0x94C7C, symBinAddr: 0x100097FF0, symSize: 0x1F8 }
  - { offsetInCU: 0x45929, offset: 0x45929, size: 0x8, addend: 0x0, symName: __ZN14FlashRadixTreeINSt3__112basic_stringIcNS0_11char_traitsIcEENS0_9allocatorIcEEEE4DataL9MatchMode0EE23XFlashRadixTreeIteratorILNS9_17IteratorDirectionE0EEC2ERKSC_, symObjAddr: 0x94E74, symBinAddr: 0x1000981E8, symSize: 0x270 }
  - { offsetInCU: 0x45961, offset: 0x45961, size: 0x8, addend: 0x0, symName: __ZNK9SplayTreeIcPN14FlashRadixTreeINSt3__112basic_stringIcNS1_11char_traitsIcEENS1_9allocatorIcEEEE4DataL9MatchMode1EE18FlashRadixTreeNodeEE9XiteratorILNSD_17IteratorDirectionE0EEptEv, symObjAddr: 0x950E4, symBinAddr: 0x100098458, symSize: 0x60 }
  - { offsetInCU: 0x45987, offset: 0x45987, size: 0x8, addend: 0x0, symName: __ZN14FlashRadixTreeINSt3__112basic_stringIcNS0_11char_traitsIcEENS0_9allocatorIcEEEE4DataL9MatchMode1EE18FlashRadixTreeNodeC1ERKS6_OKS7_bPSA_, symObjAddr: 0x95144, symBinAddr: 0x1000984B8, symSize: 0x58 }
  - { offsetInCU: 0x459E9, offset: 0x459E9, size: 0x8, addend: 0x0, symName: __ZN9SplayTreeIcPN14FlashRadixTreeINSt3__112basic_stringIcNS1_11char_traitsIcEENS1_9allocatorIcEEEE4DataL9MatchMode1EE18FlashRadixTreeNodeEE6insertEcSC_, symObjAddr: 0x9519C, symBinAddr: 0x100098510, symSize: 0x174 }
  - { offsetInCU: 0x45A2B, offset: 0x45A2B, size: 0x8, addend: 0x0, symName: __ZN14FlashRadixTreeINSt3__112basic_stringIcNS0_11char_traitsIcEENS0_9allocatorIcEEEE4DataL9MatchMode1EE18FlashRadixTreeNode13setMyIteratorERKN9SplayTreeIcPSA_E9XiteratorILNSD_17IteratorDirectionE0EEE, symObjAddr: 0x95310, symBinAddr: 0x100098684, symSize: 0x30 }
  - { offsetInCU: 0x45A60, offset: 0x45A60, size: 0x8, addend: 0x0, symName: __ZN14FlashRadixTreeINSt3__112basic_stringIcNS0_11char_traitsIcEENS0_9allocatorIcEEEE4DataL9MatchMode1EE18FlashRadixTreeNodeC1ERKS6_OKS7_PSA_, symObjAddr: 0x95340, symBinAddr: 0x1000986B4, symSize: 0x44 }
  - { offsetInCU: 0x45AB4, offset: 0x45AB4, size: 0x8, addend: 0x0, symName: __ZN14FlashRadixTreeINSt3__112basic_stringIcNS0_11char_traitsIcEENS0_9allocatorIcEEEE4DataL9MatchMode1EE23XFlashRadixTreeIteratorILNS9_17IteratorDirectionE0EEC1ERKSC_, symObjAddr: 0x95384, symBinAddr: 0x1000986F8, symSize: 0x34 }
  - { offsetInCU: 0x45AEC, offset: 0x45AEC, size: 0x8, addend: 0x0, symName: __ZN14FlashRadixTreeINSt3__112basic_stringIcNS0_11char_traitsIcEENS0_9allocatorIcEEEE4DataL9MatchMode1EE18FlashRadixTreeNodeC2ERKS6_OKS7_bPSA_, symObjAddr: 0x953B8, symBinAddr: 0x10009872C, symSize: 0x21C }
  - { offsetInCU: 0x45B4E, offset: 0x45B4E, size: 0x8, addend: 0x0, symName: __ZN9SplayTreeIcPN14FlashRadixTreeINSt3__112basic_stringIcNS1_11char_traitsIcEENS1_9allocatorIcEEEE4DataL9MatchMode1EE18FlashRadixTreeNodeEE9_New_NodeEcSC_, symObjAddr: 0x95990, symBinAddr: 0x100098D04, symSize: 0x13C }
  - { offsetInCU: 0x45BA1, offset: 0x45BA1, size: 0x8, addend: 0x0, symName: __ZN9SplayTreeIcPN14FlashRadixTreeINSt3__112basic_stringIcNS1_11char_traitsIcEENS1_9allocatorIcEEEE4DataL9MatchMode1EE18FlashRadixTreeNodeEE5splayC1EcSC_, symObjAddr: 0x95ACC, symBinAddr: 0x100098E40, symSize: 0x3C }
  - { offsetInCU: 0x45BE7, offset: 0x45BE7, size: 0x8, addend: 0x0, symName: __ZN9SplayTreeIcPN14FlashRadixTreeINSt3__112basic_stringIcNS1_11char_traitsIcEENS1_9allocatorIcEEEE4DataL9MatchMode1EE18FlashRadixTreeNodeEE5splayC2EcSC_, symObjAddr: 0x95B08, symBinAddr: 0x100098E7C, symSize: 0x150 }
  - { offsetInCU: 0x45C2D, offset: 0x45C2D, size: 0x8, addend: 0x0, symName: __ZN9SplayTreeIcPN14FlashRadixTreeINSt3__112basic_stringIcNS1_11char_traitsIcEENS1_9allocatorIcEEEE4DataL9MatchMode1EE18FlashRadixTreeNodeEE9XiteratorILNSD_17IteratorDirectionE0EEaSERKSG_, symObjAddr: 0x95C58, symBinAddr: 0x100098FCC, symSize: 0x268 }
  - { offsetInCU: 0x45C61, offset: 0x45C61, size: 0x8, addend: 0x0, symName: __ZN14FlashRadixTreeINSt3__112basic_stringIcNS0_11char_traitsIcEENS0_9allocatorIcEEEE4DataL9MatchMode1EE18FlashRadixTreeNodeC2ERKS6_OKS7_PSA_, symObjAddr: 0x95EC0, symBinAddr: 0x100099234, symSize: 0x1F8 }
  - { offsetInCU: 0x45CB5, offset: 0x45CB5, size: 0x8, addend: 0x0, symName: __ZN14FlashRadixTreeINSt3__112basic_stringIcNS0_11char_traitsIcEENS0_9allocatorIcEEEE4DataL9MatchMode1EE23XFlashRadixTreeIteratorILNS9_17IteratorDirectionE0EEC2ERKSC_, symObjAddr: 0x960B8, symBinAddr: 0x10009942C, symSize: 0x270 }
  - { offsetInCU: 0x45CED, offset: 0x45CED, size: 0x8, addend: 0x0, symName: __ZN9SplayTreeINSt3__112basic_stringIcNS0_11char_traitsIcEENS0_9allocatorIcEEEE4DataE9XiteratorILNS8_17IteratorDirectionE0EEC1ERKSB_, symObjAddr: 0x96914, symBinAddr: 0x100099C88, symSize: 0x34 }
  - { offsetInCU: 0x45D25, offset: 0x45D25, size: 0x8, addend: 0x0, symName: __ZN9SplayTreeINSt3__112basic_stringIcNS0_11char_traitsIcEENS0_9allocatorIcEEEE4DataE9_New_NodeES6_S7_, symObjAddr: 0x96948, symBinAddr: 0x100099CBC, symSize: 0x354 }
  - { offsetInCU: 0x45D7E, offset: 0x45D7E, size: 0x8, addend: 0x0, symName: __ZNK9SplayTreeINSt3__112basic_stringIcNS0_11char_traitsIcEENS0_9allocatorIcEEEE4DataE6_splayES6_PNS8_5splayE, symObjAddr: 0x96C9C, symBinAddr: 0x10009A010, symSize: 0xE60 }
  - { offsetInCU: 0x45E33, offset: 0x45E33, size: 0x8, addend: 0x0, symName: __ZN9SplayTreeINSt3__112basic_stringIcNS0_11char_traitsIcEENS0_9allocatorIcEEEE4DataE5splayC1ES6_S7_, symObjAddr: 0x97D70, symBinAddr: 0x10009B0E4, symSize: 0x3C }
  - { offsetInCU: 0x45E7B, offset: 0x45E7B, size: 0x8, addend: 0x0, symName: __ZN9SplayTreeINSt3__112basic_stringIcNS0_11char_traitsIcEENS0_9allocatorIcEEEE4DataE5splayC2ES6_S7_, symObjAddr: 0x97DAC, symBinAddr: 0x10009B120, symSize: 0xE4 }
  - { offsetInCU: 0x45EC3, offset: 0x45EC3, size: 0x8, addend: 0x0, symName: __ZN9SplayTreeINSt3__112basic_stringIcNS0_11char_traitsIcEENS0_9allocatorIcEEEE4DataE5splayC1Ev, symObjAddr: 0x97E90, symBinAddr: 0x10009B204, symSize: 0x2C }
  - { offsetInCU: 0x45EED, offset: 0x45EED, size: 0x8, addend: 0x0, symName: __ZNK9SplayTreeINSt3__112basic_stringIcNS0_11char_traitsIcEENS0_9allocatorIcEEEE4DataE10_RR_RotateEPNS8_5splayE, symObjAddr: 0x97EBC, symBinAddr: 0x10009B230, symSize: 0x148 }
  - { offsetInCU: 0x45F31, offset: 0x45F31, size: 0x8, addend: 0x0, symName: __ZNK9SplayTreeINSt3__112basic_stringIcNS0_11char_traitsIcEENS0_9allocatorIcEEEE4DataE10_LL_RotateEPNS8_5splayE, symObjAddr: 0x98004, symBinAddr: 0x10009B378, symSize: 0x148 }
  - { offsetInCU: 0x45F75, offset: 0x45F75, size: 0x8, addend: 0x0, symName: __ZN9SplayTreeINSt3__112basic_stringIcNS0_11char_traitsIcEENS0_9allocatorIcEEEE4DataE5splayD1Ev, symObjAddr: 0x9814C, symBinAddr: 0x10009B4C0, symSize: 0x2C }
  - { offsetInCU: 0x45F9F, offset: 0x45F9F, size: 0x8, addend: 0x0, symName: __ZN9SplayTreeINSt3__112basic_stringIcNS0_11char_traitsIcEENS0_9allocatorIcEEEE4DataE5splayC2Ev, symObjAddr: 0x98178, symBinAddr: 0x10009B4EC, symSize: 0xB8 }
  - { offsetInCU: 0x45FC9, offset: 0x45FC9, size: 0x8, addend: 0x0, symName: __ZN9SplayTreeINSt3__112basic_stringIcNS0_11char_traitsIcEENS0_9allocatorIcEEEE4DataE5splayD2Ev, symObjAddr: 0x98230, symBinAddr: 0x10009B5A4, symSize: 0x38 }
  - { offsetInCU: 0x45FF3, offset: 0x45FF3, size: 0x8, addend: 0x0, symName: __ZN9SplayTreeINSt3__112basic_stringIcNS0_11char_traitsIcEENS0_9allocatorIcEEEE4DataE9XiteratorILNS8_17IteratorDirectionE0EEC2ERKSB_, symObjAddr: 0x98268, symBinAddr: 0x10009B5DC, symSize: 0x270 }
  - { offsetInCU: 0x4602B, offset: 0x4602B, size: 0x8, addend: 0x0, symName: __ZNSt3__112__hash_tableINS_17__hash_value_typeINS_12basic_stringIcNS_11char_traitsIcEENS_9allocatorIcEEEE4DataEENS_22__unordered_map_hasherIS7_S9_NS_4hashIS7_EENS_8equal_toIS7_EELb1EEENS_21__unordered_map_equalIS7_S9_SE_SC_Lb1EEENS5_IS9_EEE4findIS7_EENS_15__hash_iteratorIPNS_11__hash_nodeIS9_PvEEEERKT_, symObjAddr: 0x984D8, symBinAddr: 0x10009B84C, symSize: 0x484 }
  - { offsetInCU: 0x460B3, offset: 0x460B3, size: 0x8, addend: 0x0, symName: __ZNSt3__112__hash_tableINS_17__hash_value_typeINS_12basic_stringIcNS_11char_traitsIcEENS_9allocatorIcEEEE4DataEENS_22__unordered_map_hasherIS7_S9_NS_4hashIS7_EENS_8equal_toIS7_EELb1EEENS_21__unordered_map_equalIS7_S9_SE_SC_Lb1EEENS5_IS9_EEE3endEv, symObjAddr: 0x9895C, symBinAddr: 0x10009BCD0, symSize: 0x1F8 }
  - { offsetInCU: 0x460DC, offset: 0x460DC, size: 0x8, addend: 0x0, symName: __ZNSt3__112__hash_tableINS_12basic_stringIcNS_11char_traitsIcEENS_9allocatorIcEEEENS_4hashIS6_EENS_8equal_toIS6_EENS4_IS6_EEE4findIS6_EENS_15__hash_iteratorIPNS_11__hash_nodeIS6_PvEEEERKT_, symObjAddr: 0x98C0C, symBinAddr: 0x10009BF80, symSize: 0x484 }
  - { offsetInCU: 0x46164, offset: 0x46164, size: 0x8, addend: 0x0, symName: __ZNSt3__16__treeINS_12__value_typeINS_12basic_stringIcNS_11char_traitsIcEENS_9allocatorIcEEEE4DataEENS_19__map_value_compareIS7_S9_NS_4lessIS7_EELb1EEENS5_IS9_EEE4findIS7_EENS_15__tree_iteratorIS9_PNS_11__tree_nodeIS9_PvEElEERKT_, symObjAddr: 0x99090, symBinAddr: 0x10009C404, symSize: 0x3FC }
  - { offsetInCU: 0x461B9, offset: 0x461B9, size: 0x8, addend: 0x0, symName: __ZNSt3__16__treeINS_12__value_typeINS_12basic_stringIcNS_11char_traitsIcEENS_9allocatorIcEEEE4DataEENS_19__map_value_compareIS7_S9_NS_4lessIS7_EELb1EEENS5_IS9_EEE13__lower_boundIS7_EENS_15__tree_iteratorIS9_PNS_11__tree_nodeIS9_PvEElEERKT_SL_PNS_15__tree_end_nodeIPNS_16__tree_node_baseISJ_EEEE, symObjAddr: 0x9948C, symBinAddr: 0x10009C800, symSize: 0x2E0 }
  - { offsetInCU: 0x4621B, offset: 0x4621B, size: 0x8, addend: 0x0, symName: __ZNSt3__16__treeINS_12__value_typeINS_12basic_stringIcNS_11char_traitsIcEENS_9allocatorIcEEEE4DataEENS_19__map_value_compareIS7_S9_NS_4lessIS7_EELb1EEENS5_IS9_EEE3endB8ue170006Ev, symObjAddr: 0x997A0, symBinAddr: 0x10009CB14, symSize: 0x204 }
  - { offsetInCU: 0x46242, offset: 0x46242, size: 0x8, addend: 0x0, symName: __ZNKSt3__115__tree_iteratorINS_12__value_typeINS_12basic_stringIcNS_11char_traitsIcEENS_9allocatorIcEEEE4DataEEPNS_11__tree_nodeIS9_PvEElEdeB8ue170006Ev, symObjAddr: 0x999A4, symBinAddr: 0x10009CD18, symSize: 0x28 }
  - { offsetInCU: 0x46268, offset: 0x46268, size: 0x8, addend: 0x0, symName: __ZNSt3__115__tree_iteratorINS_12__value_typeINS_12basic_stringIcNS_11char_traitsIcEENS_9allocatorIcEEEE4DataEEPNS_11__tree_nodeIS9_PvEElEC1B8ue170006EPNS_15__tree_end_nodeIPNS_16__tree_node_baseISB_EEEE, symObjAddr: 0x999CC, symBinAddr: 0x10009CD40, symSize: 0x34 }
  - { offsetInCU: 0x462A1, offset: 0x462A1, size: 0x8, addend: 0x0, symName: __ZNSt3__115__tree_iteratorINS_12__value_typeINS_12basic_stringIcNS_11char_traitsIcEENS_9allocatorIcEEEE4DataEEPNS_11__tree_nodeIS9_PvEElEC2B8ue170006EPNS_15__tree_end_nodeIPNS_16__tree_node_baseISB_EEEE, symObjAddr: 0x99A00, symBinAddr: 0x10009CD74, symSize: 0x70 }
  - { offsetInCU: 0x462DA, offset: 0x462DA, size: 0x8, addend: 0x0, symName: __ZNKSt3__115__tree_iteratorINS_12__value_typeINS_12basic_stringIcNS_11char_traitsIcEENS_9allocatorIcEEEE4DataEEPNS_11__tree_nodeIS9_PvEElE8__get_npB8ue170006Ev, symObjAddr: 0x99B28, symBinAddr: 0x10009CE9C, symSize: 0x60 }
  - { offsetInCU: 0x46300, offset: 0x46300, size: 0x8, addend: 0x0, symName: __ZNK9SplayTreeIcPN14FlashRadixTreeINSt3__112basic_stringIcNS1_11char_traitsIcEENS1_9allocatorIcEEEE4DataL9MatchMode0EE18FlashRadixTreeNodeEE5emptyEv, symObjAddr: 0x99B88, symBinAddr: 0x10009CEFC, symSize: 0x6C }
  - { offsetInCU: 0x46326, offset: 0x46326, size: 0x8, addend: 0x0, symName: __ZNK14FlashRadixTreeINSt3__112basic_stringIcNS0_11char_traitsIcEENS0_9allocatorIcEEEE4DataL9MatchMode0EE18FlashRadixTreeNodeeqERKSA_, symObjAddr: 0x99BF4, symBinAddr: 0x10009CF68, symSize: 0x318 }
  - { offsetInCU: 0x4635B, offset: 0x4635B, size: 0x8, addend: 0x0, symName: __ZNK14FlashRadixTreeINSt3__112basic_stringIcNS0_11char_traitsIcEENS0_9allocatorIcEEEE4DataL9MatchMode1EE18FlashRadixTreeNodeeqERKSA_, symObjAddr: 0x99F0C, symBinAddr: 0x10009D280, symSize: 0x318 }
  - { offsetInCU: 0x46390, offset: 0x46390, size: 0x8, addend: 0x0, symName: __ZNK9SplayTreeINSt3__112basic_stringIcNS0_11char_traitsIcEENS0_9allocatorIcEEEE4DataE5_findES6_PNS8_5splayE, symObjAddr: 0x9A224, symBinAddr: 0x10009D598, symSize: 0x228 }
  - { offsetInCU: 0x463D8, offset: 0x463D8, size: 0x8, addend: 0x0, symName: __ZNSt3__112__hash_tableINS_17__hash_value_typeINS_12basic_stringIcNS_11char_traitsIcEENS_9allocatorIcEEEE4DataEENS_22__unordered_map_hasherIS7_S9_NS_4hashIS7_EENS_8equal_toIS7_EELb1EEENS_21__unordered_map_equalIS7_S9_SE_SC_Lb1EEENS5_IS9_EEE14__erase_uniqueIS7_EEmRKT_, symObjAddr: 0x9A44C, symBinAddr: 0x10009D7C0, symSize: 0x3D0 }
  - { offsetInCU: 0x4642D, offset: 0x4642D, size: 0x8, addend: 0x0, symName: __ZNSt3__112__hash_tableINS_17__hash_value_typeINS_12basic_stringIcNS_11char_traitsIcEENS_9allocatorIcEEEE4DataEENS_22__unordered_map_hasherIS7_S9_NS_4hashIS7_EENS_8equal_toIS7_EELb1EEENS_21__unordered_map_equalIS7_S9_SE_SC_Lb1EEENS5_IS9_EEE5eraseENS_21__hash_const_iteratorIPNS_11__hash_nodeIS9_PvEEEE, symObjAddr: 0x9A81C, symBinAddr: 0x10009DB90, symSize: 0x378 }
  - { offsetInCU: 0x4648C, offset: 0x4648C, size: 0x8, addend: 0x0, symName: __ZNSt3__121__hash_const_iteratorIPNS_11__hash_nodeINS_17__hash_value_typeINS_12basic_stringIcNS_11char_traitsIcEENS_9allocatorIcEEEE4DataEEPvEEEC1B8ue170006ERKNS_15__hash_iteratorISD_EE, symObjAddr: 0x9AB94, symBinAddr: 0x10009DF08, symSize: 0x34 }
  - { offsetInCU: 0x464C5, offset: 0x464C5, size: 0x8, addend: 0x0, symName: __ZNSt3__115__hash_iteratorIPNS_11__hash_nodeINS_17__hash_value_typeINS_12basic_stringIcNS_11char_traitsIcEENS_9allocatorIcEEEE4DataEEPvEEEppB8ue170006Ev, symObjAddr: 0x9ABC8, symBinAddr: 0x10009DF3C, symSize: 0xDC }
  - { offsetInCU: 0x464EB, offset: 0x464EB, size: 0x8, addend: 0x0, symName: __ZNSt3__112__hash_tableINS_17__hash_value_typeINS_12basic_stringIcNS_11char_traitsIcEENS_9allocatorIcEEEE4DataEENS_22__unordered_map_hasherIS7_S9_NS_4hashIS7_EENS_8equal_toIS7_EELb1EEENS_21__unordered_map_equalIS7_S9_SE_SC_Lb1EEENS5_IS9_EEE6removeENS_21__hash_const_iteratorIPNS_11__hash_nodeIS9_PvEEEE, symObjAddr: 0x9ACA4, symBinAddr: 0x10009E018, symSize: 0x718 }
  - { offsetInCU: 0x46585, offset: 0x46585, size: 0x8, addend: 0x0, symName: __ZNSt3__121__hash_const_iteratorIPNS_11__hash_nodeINS_17__hash_value_typeINS_12basic_stringIcNS_11char_traitsIcEENS_9allocatorIcEEEE4DataEEPvEEEC2B8ue170006ERKNS_15__hash_iteratorISD_EE, symObjAddr: 0x9B3BC, symBinAddr: 0x10009E730, symSize: 0xB0 }
  - { offsetInCU: 0x465BE, offset: 0x465BE, size: 0x8, addend: 0x0, symName: __ZNSt3__16__treeINS_12__value_typeINS_12basic_stringIcNS_11char_traitsIcEENS_9allocatorIcEEEE4DataEENS_19__map_value_compareIS7_S9_NS_4lessIS7_EELb1EEENS5_IS9_EEE14__erase_uniqueIS7_EEmRKT_, symObjAddr: 0x9B46C, symBinAddr: 0x10009E7E0, symSize: 0x434 }
  - { offsetInCU: 0x46613, offset: 0x46613, size: 0x8, addend: 0x0, symName: __ZNSt3__16__treeINS_12__value_typeINS_12basic_stringIcNS_11char_traitsIcEENS_9allocatorIcEEEE4DataEENS_19__map_value_compareIS7_S9_NS_4lessIS7_EELb1EEENS5_IS9_EEE5eraseENS_21__tree_const_iteratorIS9_PNS_11__tree_nodeIS9_PvEElEE, symObjAddr: 0x9B8A0, symBinAddr: 0x10009EC14, symSize: 0x310 }
  - { offsetInCU: 0x46682, offset: 0x46682, size: 0x8, addend: 0x0, symName: __ZNSt3__121__tree_const_iteratorINS_12__value_typeINS_12basic_stringIcNS_11char_traitsIcEENS_9allocatorIcEEEE4DataEEPNS_11__tree_nodeIS9_PvEElEC1B8ue170006ENS_15__tree_iteratorIS9_SD_lEE, symObjAddr: 0x9BBB0, symBinAddr: 0x10009EF24, symSize: 0x238 }
  - { offsetInCU: 0x466C0, offset: 0x466C0, size: 0x8, addend: 0x0, symName: __ZNKSt3__121__tree_const_iteratorINS_12__value_typeINS_12basic_stringIcNS_11char_traitsIcEENS_9allocatorIcEEEE4DataEEPNS_11__tree_nodeIS9_PvEElE8__get_npB8ue170006Ev, symObjAddr: 0x9BDE8, symBinAddr: 0x10009F15C, symSize: 0x60 }
  - { offsetInCU: 0x466E6, offset: 0x466E6, size: 0x8, addend: 0x0, symName: __ZNSt3__16__treeINS_12__value_typeINS_12basic_stringIcNS_11char_traitsIcEENS_9allocatorIcEEEE4DataEENS_19__map_value_compareIS7_S9_NS_4lessIS7_EELb1EEENS5_IS9_EEE21__remove_node_pointerEPNS_11__tree_nodeIS9_PvEE, symObjAddr: 0x9BE48, symBinAddr: 0x10009F1BC, symSize: 0x388 }
  - { offsetInCU: 0x46732, offset: 0x46732, size: 0x8, addend: 0x0, symName: __ZNKSt3__121__tree_const_iteratorINS_12__value_typeINS_12basic_stringIcNS_11char_traitsIcEENS_9allocatorIcEEEE4DataEEPNS_11__tree_nodeIS9_PvEElEdeB8ue170006Ev, symObjAddr: 0x9C1D0, symBinAddr: 0x10009F544, symSize: 0x28 }
  - { offsetInCU: 0x46758, offset: 0x46758, size: 0x8, addend: 0x0, symName: __ZNSt3__115__tree_iteratorINS_12__value_typeINS_12basic_stringIcNS_11char_traitsIcEENS_9allocatorIcEEEE4DataEEPNS_11__tree_nodeIS9_PvEElEppB8ue170006Ev, symObjAddr: 0x9C1F8, symBinAddr: 0x10009F56C, symSize: 0xA8 }
  - { offsetInCU: 0x4677E, offset: 0x4677E, size: 0x8, addend: 0x0, symName: __ZNSt3__121__tree_const_iteratorINS_12__value_typeINS_12basic_stringIcNS_11char_traitsIcEENS_9allocatorIcEEEE4DataEEPNS_11__tree_nodeIS9_PvEElEC2B8ue170006ENS_15__tree_iteratorIS9_SD_lEE, symObjAddr: 0x9E468, symBinAddr: 0x1000A17DC, symSize: 0x270 }
  - { offsetInCU: 0x467BC, offset: 0x467BC, size: 0x8, addend: 0x0, symName: __ZN14FlashRadixTreeINSt3__112basic_stringIcNS0_11char_traitsIcEENS0_9allocatorIcEEEE4DataL9MatchMode0EE6_eraseERKS6_, symObjAddr: 0x9E6D8, symBinAddr: 0x1000A1A4C, symSize: 0xDDC }
  - { offsetInCU: 0x468C1, offset: 0x468C1, size: 0x8, addend: 0x0, symName: __ZNK9SplayTreeIcPN14FlashRadixTreeINSt3__112basic_stringIcNS1_11char_traitsIcEENS1_9allocatorIcEEEE4DataL9MatchMode0EE18FlashRadixTreeNodeEE9XiteratorILNSD_17IteratorDirectionE0EEeqERKSG_, symObjAddr: 0x9F4B4, symBinAddr: 0x1000A2828, symSize: 0x310 }
  - { offsetInCU: 0x468F5, offset: 0x468F5, size: 0x8, addend: 0x0, symName: __ZNK9SplayTreeIcPN14FlashRadixTreeINSt3__112basic_stringIcNS1_11char_traitsIcEENS1_9allocatorIcEEEE4DataL9MatchMode0EE18FlashRadixTreeNodeEE4sizeEv, symObjAddr: 0x9F7C4, symBinAddr: 0x1000A2B38, symSize: 0x64 }
  - { offsetInCU: 0x4691B, offset: 0x4691B, size: 0x8, addend: 0x0, symName: __ZNK9SplayTreeIcPN14FlashRadixTreeINSt3__112basic_stringIcNS1_11char_traitsIcEENS1_9allocatorIcEEEE4DataL9MatchMode0EE18FlashRadixTreeNodeEE4rootEv, symObjAddr: 0x9F828, symBinAddr: 0x1000A2B9C, symSize: 0x60 }
  - { offsetInCU: 0x46941, offset: 0x46941, size: 0x8, addend: 0x0, symName: __ZN4DataaSERKS_, symObjAddr: 0x9F888, symBinAddr: 0x1000A2BFC, symSize: 0x4C }
  - { offsetInCU: 0x46972, offset: 0x46972, size: 0x8, addend: 0x0, symName: __ZN9SplayTreeIcPN14FlashRadixTreeINSt3__112basic_stringIcNS1_11char_traitsIcEENS1_9allocatorIcEEEE4DataL9MatchMode0EE18FlashRadixTreeNodeEEaSEOSD_, symObjAddr: 0x9F8D4, symBinAddr: 0x1000A2C48, symSize: 0x1D0 }
  - { offsetInCU: 0x469A7, offset: 0x469A7, size: 0x8, addend: 0x0, symName: __ZN14FlashRadixTreeINSt3__112basic_stringIcNS0_11char_traitsIcEENS0_9allocatorIcEEEE4DataL9MatchMode1EE6_eraseERKS6_, symObjAddr: 0x9FAA4, symBinAddr: 0x1000A2E18, symSize: 0xDDC }
  - { offsetInCU: 0x46AAC, offset: 0x46AAC, size: 0x8, addend: 0x0, symName: __ZNK9SplayTreeIcPN14FlashRadixTreeINSt3__112basic_stringIcNS1_11char_traitsIcEENS1_9allocatorIcEEEE4DataL9MatchMode1EE18FlashRadixTreeNodeEE9XiteratorILNSD_17IteratorDirectionE0EEeqERKSG_, symObjAddr: 0xA0880, symBinAddr: 0x1000A3BF4, symSize: 0x310 }
  - { offsetInCU: 0x46AE0, offset: 0x46AE0, size: 0x8, addend: 0x0, symName: __ZNK9SplayTreeIcPN14FlashRadixTreeINSt3__112basic_stringIcNS1_11char_traitsIcEENS1_9allocatorIcEEEE4DataL9MatchMode1EE18FlashRadixTreeNodeEE4sizeEv, symObjAddr: 0xA0B90, symBinAddr: 0x1000A3F04, symSize: 0x64 }
  - { offsetInCU: 0x46B06, offset: 0x46B06, size: 0x8, addend: 0x0, symName: __ZNK9SplayTreeIcPN14FlashRadixTreeINSt3__112basic_stringIcNS1_11char_traitsIcEENS1_9allocatorIcEEEE4DataL9MatchMode1EE18FlashRadixTreeNodeEE5emptyEv, symObjAddr: 0xA0BF4, symBinAddr: 0x1000A3F68, symSize: 0x6C }
  - { offsetInCU: 0x46B2C, offset: 0x46B2C, size: 0x8, addend: 0x0, symName: __ZNK9SplayTreeIcPN14FlashRadixTreeINSt3__112basic_stringIcNS1_11char_traitsIcEENS1_9allocatorIcEEEE4DataL9MatchMode1EE18FlashRadixTreeNodeEE4rootEv, symObjAddr: 0xA0C60, symBinAddr: 0x1000A3FD4, symSize: 0x60 }
  - { offsetInCU: 0x46B52, offset: 0x46B52, size: 0x8, addend: 0x0, symName: __ZN9SplayTreeIcPN14FlashRadixTreeINSt3__112basic_stringIcNS1_11char_traitsIcEENS1_9allocatorIcEEEE4DataL9MatchMode1EE18FlashRadixTreeNodeEEaSEOSD_, symObjAddr: 0xA0CC0, symBinAddr: 0x1000A4034, symSize: 0x1D0 }
  - { offsetInCU: 0x46B87, offset: 0x46B87, size: 0x8, addend: 0x0, symName: __ZN9SplayTreeINSt3__112basic_stringIcNS0_11char_traitsIcEENS0_9allocatorIcEEEE4DataE6_eraseES6_PNS8_5splayE, symObjAddr: 0xA0E90, symBinAddr: 0x1000A4204, symSize: 0x4DC }
...
